
Merging program properties


As-needed library included to satisfy reference by file (symbol)

libarsal.so                   /home/jose/catkin_ws/build/parrot_arsdk/arsdk/src/ARSDKBuildUtils/out/arsdk-native/build/libARController/obj/Sources/ARCONTROLLER_StreamQueue.c.o (ARSAL_Sem_Wait)
libardiscovery.so             /home/jose/catkin_ws/build/parrot_arsdk/arsdk/src/ARSDKBuildUtils/out/arsdk-native/build/libARController/obj/Sources/ARCONTROLLER_Network.c.o (ARDISCOVERY_Device_WifiSetDeviceToControllerPort)
libarcommands.so              /home/jose/catkin_ws/build/parrot_arsdk/arsdk/src/ARSDKBuildUtils/out/arsdk-native/build/libARController/obj/Sources/ARCONTROLLER_Network.c.o (ARCOMMANDS_Decoder_DescribeBuffer)
libarstream.so                /home/jose/catkin_ws/build/parrot_arsdk/arsdk/src/ARSDKBuildUtils/out/arsdk-native/build/libARController/obj/Sources/ARCONTROLLER_Stream1.c.o (ARSTREAM_Reader_New)
libarstream2.so               /home/jose/catkin_ws/build/parrot_arsdk/arsdk/src/ARSDKBuildUtils/out/arsdk-native/build/libARController/obj/Sources/ARCONTROLLER_Stream2.c.o (ARSTREAM2_StreamReceiver_RunAppOutputThread)
libarnetworkal.so             /home/jose/catkin_ws/build/parrot_arsdk/arsdk/src/ARSDKBuildUtils/out/arsdk-native/build/libARController/obj/Sources/ARCONTROLLER_Network.c.o (ARNETWORKAL_Error_ToString)
libarnetwork.so               /home/jose/catkin_ws/build/parrot_arsdk/arsdk/src/ARSDKBuildUtils/out/arsdk-native/build/libARController/obj/Sources/ARCONTROLLER_Network.c.o (ARNETWORK_Manager_ReceivingThreadRun)
librtsp.so                    /home/jose/catkin_ws/build/parrot_arsdk/arsdk/src/ARSDKBuildUtils/out/arsdk-native/build/libARController/obj/gen/Sources/ARCONTROLLER_Device.c.o (rtsp_client_connect)
libsdp.so                     /home/jose/catkin_ws/build/parrot_arsdk/arsdk/src/ARSDKBuildUtils/out/arsdk-native/build/libARController/obj/gen/Sources/ARCONTROLLER_Device.c.o (sdp_description_read)
libpomp.so                    /home/jose/catkin_ws/build/parrot_arsdk/arsdk/src/ARSDKBuildUtils/out/arsdk-native/build/libARController/obj/gen/Sources/ARCONTROLLER_Device.c.o (pomp_loop_wakeup)
libmux.so                     /home/jose/catkin_ws/build/parrot_arsdk/arsdk/src/ARSDKBuildUtils/out/arsdk-native/build/libARController/obj/Sources/ARCONTROLLER_Stream2.c.o (mux_ref)
libjson-c.so                  /home/jose/catkin_ws/build/parrot_arsdk/arsdk/src/ARSDKBuildUtils/out/arsdk-native/build/libARController/obj/Sources/ARCONTROLLER_Stream2.c.o (json_object_new_int)
libpthread.so.0               /home/jose/catkin_ws/build/parrot_arsdk/arsdk/src/ARSDKBuildUtils/out/arsdk-native/build/libARController/obj/Sources/ARCONTROLLER_Network.c.o (__errno_location@@GLIBC_2.2.5)
libc.so.6                     /home/jose/catkin_ws/build/parrot_arsdk/arsdk/src/ARSDKBuildUtils/out/arsdk-native/build/libARController/obj/Sources/ARCONTROLLER_Dictionary.c.o (exit@@GLIBC_2.2.5)

Discarded input sections

 .text          0x0000000000000000        0x0 /usr/lib/gcc/x86_64-linux-gnu/9/../../../x86_64-linux-gnu/crti.o
 .data          0x0000000000000000        0x0 /usr/lib/gcc/x86_64-linux-gnu/9/../../../x86_64-linux-gnu/crti.o
 .bss           0x0000000000000000        0x0 /usr/lib/gcc/x86_64-linux-gnu/9/../../../x86_64-linux-gnu/crti.o
 .note.GNU-stack
                0x0000000000000000        0x0 /usr/lib/gcc/x86_64-linux-gnu/9/../../../x86_64-linux-gnu/crti.o
 .data          0x0000000000000000        0x0 /usr/lib/gcc/x86_64-linux-gnu/9/crtbeginS.o
 .note.GNU-stack
                0x0000000000000000        0x0 /usr/lib/gcc/x86_64-linux-gnu/9/crtbeginS.o
 .note.gnu.property
                0x0000000000000000       0x20 /usr/lib/gcc/x86_64-linux-gnu/9/crtbeginS.o
 .text          0x0000000000000000        0x0 /home/jose/catkin_ws/build/parrot_arsdk/arsdk/src/ARSDKBuildUtils/out/arsdk-native/build/libARController/obj/Sources/ARCONTROLLER_Dictionary.c.o
 .data          0x0000000000000000        0x0 /home/jose/catkin_ws/build/parrot_arsdk/arsdk/src/ARSDKBuildUtils/out/arsdk-native/build/libARController/obj/Sources/ARCONTROLLER_Dictionary.c.o
 .bss           0x0000000000000000        0x0 /home/jose/catkin_ws/build/parrot_arsdk/arsdk/src/ARSDKBuildUtils/out/arsdk-native/build/libARController/obj/Sources/ARCONTROLLER_Dictionary.c.o
 .note.GNU-stack
                0x0000000000000000        0x0 /home/jose/catkin_ws/build/parrot_arsdk/arsdk/src/ARSDKBuildUtils/out/arsdk-native/build/libARController/obj/Sources/ARCONTROLLER_Dictionary.c.o
 .note.gnu.property
                0x0000000000000000       0x20 /home/jose/catkin_ws/build/parrot_arsdk/arsdk/src/ARSDKBuildUtils/out/arsdk-native/build/libARController/obj/Sources/ARCONTROLLER_Dictionary.c.o
 .text          0x0000000000000000        0x0 /home/jose/catkin_ws/build/parrot_arsdk/arsdk/src/ARSDKBuildUtils/out/arsdk-native/build/libARController/obj/Sources/ARCONTROLLER_Frame.c.o
 .data          0x0000000000000000        0x0 /home/jose/catkin_ws/build/parrot_arsdk/arsdk/src/ARSDKBuildUtils/out/arsdk-native/build/libARController/obj/Sources/ARCONTROLLER_Frame.c.o
 .bss           0x0000000000000000        0x0 /home/jose/catkin_ws/build/parrot_arsdk/arsdk/src/ARSDKBuildUtils/out/arsdk-native/build/libARController/obj/Sources/ARCONTROLLER_Frame.c.o
 .note.GNU-stack
                0x0000000000000000        0x0 /home/jose/catkin_ws/build/parrot_arsdk/arsdk/src/ARSDKBuildUtils/out/arsdk-native/build/libARController/obj/Sources/ARCONTROLLER_Frame.c.o
 .note.gnu.property
                0x0000000000000000       0x20 /home/jose/catkin_ws/build/parrot_arsdk/arsdk/src/ARSDKBuildUtils/out/arsdk-native/build/libARController/obj/Sources/ARCONTROLLER_Frame.c.o
 .text          0x0000000000000000        0x0 /home/jose/catkin_ws/build/parrot_arsdk/arsdk/src/ARSDKBuildUtils/out/arsdk-native/build/libARController/obj/Sources/ARCONTROLLER_Network.c.o
 .data          0x0000000000000000        0x0 /home/jose/catkin_ws/build/parrot_arsdk/arsdk/src/ARSDKBuildUtils/out/arsdk-native/build/libARController/obj/Sources/ARCONTROLLER_Network.c.o
 .bss           0x0000000000000000        0x0 /home/jose/catkin_ws/build/parrot_arsdk/arsdk/src/ARSDKBuildUtils/out/arsdk-native/build/libARController/obj/Sources/ARCONTROLLER_Network.c.o
 .note.GNU-stack
                0x0000000000000000        0x0 /home/jose/catkin_ws/build/parrot_arsdk/arsdk/src/ARSDKBuildUtils/out/arsdk-native/build/libARController/obj/Sources/ARCONTROLLER_Network.c.o
 .note.gnu.property
                0x0000000000000000       0x20 /home/jose/catkin_ws/build/parrot_arsdk/arsdk/src/ARSDKBuildUtils/out/arsdk-native/build/libARController/obj/Sources/ARCONTROLLER_Network.c.o
 .text          0x0000000000000000        0x0 /home/jose/catkin_ws/build/parrot_arsdk/arsdk/src/ARSDKBuildUtils/out/arsdk-native/build/libARController/obj/Sources/ARCONTROLLER_Stream.c.o
 .data          0x0000000000000000        0x0 /home/jose/catkin_ws/build/parrot_arsdk/arsdk/src/ARSDKBuildUtils/out/arsdk-native/build/libARController/obj/Sources/ARCONTROLLER_Stream.c.o
 .bss           0x0000000000000000        0x0 /home/jose/catkin_ws/build/parrot_arsdk/arsdk/src/ARSDKBuildUtils/out/arsdk-native/build/libARController/obj/Sources/ARCONTROLLER_Stream.c.o
 .note.GNU-stack
                0x0000000000000000        0x0 /home/jose/catkin_ws/build/parrot_arsdk/arsdk/src/ARSDKBuildUtils/out/arsdk-native/build/libARController/obj/Sources/ARCONTROLLER_Stream.c.o
 .note.gnu.property
                0x0000000000000000       0x20 /home/jose/catkin_ws/build/parrot_arsdk/arsdk/src/ARSDKBuildUtils/out/arsdk-native/build/libARController/obj/Sources/ARCONTROLLER_Stream.c.o
 .text          0x0000000000000000        0x0 /home/jose/catkin_ws/build/parrot_arsdk/arsdk/src/ARSDKBuildUtils/out/arsdk-native/build/libARController/obj/Sources/ARCONTROLLER_StreamPool.c.o
 .data          0x0000000000000000        0x0 /home/jose/catkin_ws/build/parrot_arsdk/arsdk/src/ARSDKBuildUtils/out/arsdk-native/build/libARController/obj/Sources/ARCONTROLLER_StreamPool.c.o
 .bss           0x0000000000000000        0x0 /home/jose/catkin_ws/build/parrot_arsdk/arsdk/src/ARSDKBuildUtils/out/arsdk-native/build/libARController/obj/Sources/ARCONTROLLER_StreamPool.c.o
 .note.GNU-stack
                0x0000000000000000        0x0 /home/jose/catkin_ws/build/parrot_arsdk/arsdk/src/ARSDKBuildUtils/out/arsdk-native/build/libARController/obj/Sources/ARCONTROLLER_StreamPool.c.o
 .note.gnu.property
                0x0000000000000000       0x20 /home/jose/catkin_ws/build/parrot_arsdk/arsdk/src/ARSDKBuildUtils/out/arsdk-native/build/libARController/obj/Sources/ARCONTROLLER_StreamPool.c.o
 .text          0x0000000000000000        0x0 /home/jose/catkin_ws/build/parrot_arsdk/arsdk/src/ARSDKBuildUtils/out/arsdk-native/build/libARController/obj/Sources/ARCONTROLLER_StreamQueue.c.o
 .data          0x0000000000000000        0x0 /home/jose/catkin_ws/build/parrot_arsdk/arsdk/src/ARSDKBuildUtils/out/arsdk-native/build/libARController/obj/Sources/ARCONTROLLER_StreamQueue.c.o
 .bss           0x0000000000000000        0x0 /home/jose/catkin_ws/build/parrot_arsdk/arsdk/src/ARSDKBuildUtils/out/arsdk-native/build/libARController/obj/Sources/ARCONTROLLER_StreamQueue.c.o
 .note.GNU-stack
                0x0000000000000000        0x0 /home/jose/catkin_ws/build/parrot_arsdk/arsdk/src/ARSDKBuildUtils/out/arsdk-native/build/libARController/obj/Sources/ARCONTROLLER_StreamQueue.c.o
 .note.gnu.property
                0x0000000000000000       0x20 /home/jose/catkin_ws/build/parrot_arsdk/arsdk/src/ARSDKBuildUtils/out/arsdk-native/build/libARController/obj/Sources/ARCONTROLLER_StreamQueue.c.o
 .text          0x0000000000000000        0x0 /home/jose/catkin_ws/build/parrot_arsdk/arsdk/src/ARSDKBuildUtils/out/arsdk-native/build/libARController/obj/Sources/ARCONTROLLER_Stream1.c.o
 .data          0x0000000000000000        0x0 /home/jose/catkin_ws/build/parrot_arsdk/arsdk/src/ARSDKBuildUtils/out/arsdk-native/build/libARController/obj/Sources/ARCONTROLLER_Stream1.c.o
 .note.GNU-stack
                0x0000000000000000        0x0 /home/jose/catkin_ws/build/parrot_arsdk/arsdk/src/ARSDKBuildUtils/out/arsdk-native/build/libARController/obj/Sources/ARCONTROLLER_Stream1.c.o
 .note.gnu.property
                0x0000000000000000       0x20 /home/jose/catkin_ws/build/parrot_arsdk/arsdk/src/ARSDKBuildUtils/out/arsdk-native/build/libARController/obj/Sources/ARCONTROLLER_Stream1.c.o
 .text          0x0000000000000000        0x0 /home/jose/catkin_ws/build/parrot_arsdk/arsdk/src/ARSDKBuildUtils/out/arsdk-native/build/libARController/obj/Sources/ARCONTROLLER_Stream2.c.o
 .data          0x0000000000000000        0x0 /home/jose/catkin_ws/build/parrot_arsdk/arsdk/src/ARSDKBuildUtils/out/arsdk-native/build/libARController/obj/Sources/ARCONTROLLER_Stream2.c.o
 .bss           0x0000000000000000        0x0 /home/jose/catkin_ws/build/parrot_arsdk/arsdk/src/ARSDKBuildUtils/out/arsdk-native/build/libARController/obj/Sources/ARCONTROLLER_Stream2.c.o
 .note.GNU-stack
                0x0000000000000000        0x0 /home/jose/catkin_ws/build/parrot_arsdk/arsdk/src/ARSDKBuildUtils/out/arsdk-native/build/libARController/obj/Sources/ARCONTROLLER_Stream2.c.o
 .note.gnu.property
                0x0000000000000000       0x20 /home/jose/catkin_ws/build/parrot_arsdk/arsdk/src/ARSDKBuildUtils/out/arsdk-native/build/libARController/obj/Sources/ARCONTROLLER_Stream2.c.o
 .text          0x0000000000000000        0x0 /home/jose/catkin_ws/build/parrot_arsdk/arsdk/src/ARSDKBuildUtils/out/arsdk-native/build/libARController/obj/Sources/ARCONTROLLER_StreamSender.c.o
 .data          0x0000000000000000        0x0 /home/jose/catkin_ws/build/parrot_arsdk/arsdk/src/ARSDKBuildUtils/out/arsdk-native/build/libARController/obj/Sources/ARCONTROLLER_StreamSender.c.o
 .bss           0x0000000000000000        0x0 /home/jose/catkin_ws/build/parrot_arsdk/arsdk/src/ARSDKBuildUtils/out/arsdk-native/build/libARController/obj/Sources/ARCONTROLLER_StreamSender.c.o
 .note.GNU-stack
                0x0000000000000000        0x0 /home/jose/catkin_ws/build/parrot_arsdk/arsdk/src/ARSDKBuildUtils/out/arsdk-native/build/libARController/obj/Sources/ARCONTROLLER_StreamSender.c.o
 .note.gnu.property
                0x0000000000000000       0x20 /home/jose/catkin_ws/build/parrot_arsdk/arsdk/src/ARSDKBuildUtils/out/arsdk-native/build/libARController/obj/Sources/ARCONTROLLER_StreamSender.c.o
 .text          0x0000000000000000        0x0 /home/jose/catkin_ws/build/parrot_arsdk/arsdk/src/ARSDKBuildUtils/out/arsdk-native/build/libARController/obj/Sources/ARCONTROLLER_NAckCbs.c.o
 .data          0x0000000000000000        0x0 /home/jose/catkin_ws/build/parrot_arsdk/arsdk/src/ARSDKBuildUtils/out/arsdk-native/build/libARController/obj/Sources/ARCONTROLLER_NAckCbs.c.o
 .bss           0x0000000000000000        0x0 /home/jose/catkin_ws/build/parrot_arsdk/arsdk/src/ARSDKBuildUtils/out/arsdk-native/build/libARController/obj/Sources/ARCONTROLLER_NAckCbs.c.o
 .note.GNU-stack
                0x0000000000000000        0x0 /home/jose/catkin_ws/build/parrot_arsdk/arsdk/src/ARSDKBuildUtils/out/arsdk-native/build/libARController/obj/Sources/ARCONTROLLER_NAckCbs.c.o
 .note.gnu.property
                0x0000000000000000       0x20 /home/jose/catkin_ws/build/parrot_arsdk/arsdk/src/ARSDKBuildUtils/out/arsdk-native/build/libARController/obj/Sources/ARCONTROLLER_NAckCbs.c.o
 .text          0x0000000000000000        0x0 /home/jose/catkin_ws/build/parrot_arsdk/arsdk/src/ARSDKBuildUtils/out/arsdk-native/build/libARController/obj/gen/Sources/ARCONTROLLER_Device.c.o
 .data          0x0000000000000000        0x0 /home/jose/catkin_ws/build/parrot_arsdk/arsdk/src/ARSDKBuildUtils/out/arsdk-native/build/libARController/obj/gen/Sources/ARCONTROLLER_Device.c.o
 .bss           0x0000000000000000        0x0 /home/jose/catkin_ws/build/parrot_arsdk/arsdk/src/ARSDKBuildUtils/out/arsdk-native/build/libARController/obj/gen/Sources/ARCONTROLLER_Device.c.o
 .note.GNU-stack
                0x0000000000000000        0x0 /home/jose/catkin_ws/build/parrot_arsdk/arsdk/src/ARSDKBuildUtils/out/arsdk-native/build/libARController/obj/gen/Sources/ARCONTROLLER_Device.c.o
 .note.gnu.property
                0x0000000000000000       0x20 /home/jose/catkin_ws/build/parrot_arsdk/arsdk/src/ARSDKBuildUtils/out/arsdk-native/build/libARController/obj/gen/Sources/ARCONTROLLER_Device.c.o
 .text          0x0000000000000000        0x0 /home/jose/catkin_ws/build/parrot_arsdk/arsdk/src/ARSDKBuildUtils/out/arsdk-native/build/libARController/obj/gen/Sources/ARCONTROLLER_DICTIONARY_Key.c.o
 .data          0x0000000000000000        0x0 /home/jose/catkin_ws/build/parrot_arsdk/arsdk/src/ARSDKBuildUtils/out/arsdk-native/build/libARController/obj/gen/Sources/ARCONTROLLER_DICTIONARY_Key.c.o
 .bss           0x0000000000000000        0x0 /home/jose/catkin_ws/build/parrot_arsdk/arsdk/src/ARSDKBuildUtils/out/arsdk-native/build/libARController/obj/gen/Sources/ARCONTROLLER_DICTIONARY_Key.c.o
 .note.GNU-stack
                0x0000000000000000        0x0 /home/jose/catkin_ws/build/parrot_arsdk/arsdk/src/ARSDKBuildUtils/out/arsdk-native/build/libARController/obj/gen/Sources/ARCONTROLLER_DICTIONARY_Key.c.o
 .note.gnu.property
                0x0000000000000000       0x20 /home/jose/catkin_ws/build/parrot_arsdk/arsdk/src/ARSDKBuildUtils/out/arsdk-native/build/libARController/obj/gen/Sources/ARCONTROLLER_DICTIONARY_Key.c.o
 .text          0x0000000000000000        0x0 /home/jose/catkin_ws/build/parrot_arsdk/arsdk/src/ARSDKBuildUtils/out/arsdk-native/build/libARController/obj/gen/Sources/ARCONTROLLER_Error.c.o
 .data          0x0000000000000000        0x0 /home/jose/catkin_ws/build/parrot_arsdk/arsdk/src/ARSDKBuildUtils/out/arsdk-native/build/libARController/obj/gen/Sources/ARCONTROLLER_Error.c.o
 .bss           0x0000000000000000        0x0 /home/jose/catkin_ws/build/parrot_arsdk/arsdk/src/ARSDKBuildUtils/out/arsdk-native/build/libARController/obj/gen/Sources/ARCONTROLLER_Error.c.o
 .note.GNU-stack
                0x0000000000000000        0x0 /home/jose/catkin_ws/build/parrot_arsdk/arsdk/src/ARSDKBuildUtils/out/arsdk-native/build/libARController/obj/gen/Sources/ARCONTROLLER_Error.c.o
 .note.gnu.property
                0x0000000000000000       0x20 /home/jose/catkin_ws/build/parrot_arsdk/arsdk/src/ARSDKBuildUtils/out/arsdk-native/build/libARController/obj/gen/Sources/ARCONTROLLER_Error.c.o
 .text          0x0000000000000000        0x0 /home/jose/catkin_ws/build/parrot_arsdk/arsdk/src/ARSDKBuildUtils/out/arsdk-native/build/libARController/obj/gen/Sources/ARCONTROLLER_Feature.c.o
 .data          0x0000000000000000        0x0 /home/jose/catkin_ws/build/parrot_arsdk/arsdk/src/ARSDKBuildUtils/out/arsdk-native/build/libARController/obj/gen/Sources/ARCONTROLLER_Feature.c.o
 .bss           0x0000000000000000        0x0 /home/jose/catkin_ws/build/parrot_arsdk/arsdk/src/ARSDKBuildUtils/out/arsdk-native/build/libARController/obj/gen/Sources/ARCONTROLLER_Feature.c.o
 .note.GNU-stack
                0x0000000000000000        0x0 /home/jose/catkin_ws/build/parrot_arsdk/arsdk/src/ARSDKBuildUtils/out/arsdk-native/build/libARController/obj/gen/Sources/ARCONTROLLER_Feature.c.o
 .note.gnu.property
                0x0000000000000000       0x20 /home/jose/catkin_ws/build/parrot_arsdk/arsdk/src/ARSDKBuildUtils/out/arsdk-native/build/libARController/obj/gen/Sources/ARCONTROLLER_Feature.c.o
 .text          0x0000000000000000        0x0 /usr/lib/gcc/x86_64-linux-gnu/9/crtendS.o
 .data          0x0000000000000000        0x0 /usr/lib/gcc/x86_64-linux-gnu/9/crtendS.o
 .bss           0x0000000000000000        0x0 /usr/lib/gcc/x86_64-linux-gnu/9/crtendS.o
 .note.GNU-stack
                0x0000000000000000        0x0 /usr/lib/gcc/x86_64-linux-gnu/9/crtendS.o
 .note.gnu.property
                0x0000000000000000       0x20 /usr/lib/gcc/x86_64-linux-gnu/9/crtendS.o
 .text          0x0000000000000000        0x0 /usr/lib/gcc/x86_64-linux-gnu/9/../../../x86_64-linux-gnu/crtn.o
 .data          0x0000000000000000        0x0 /usr/lib/gcc/x86_64-linux-gnu/9/../../../x86_64-linux-gnu/crtn.o
 .bss           0x0000000000000000        0x0 /usr/lib/gcc/x86_64-linux-gnu/9/../../../x86_64-linux-gnu/crtn.o
 .note.gnu.property
                0x0000000000000000       0x20 /usr/lib/gcc/x86_64-linux-gnu/9/../../../x86_64-linux-gnu/crtn.o
 .note.GNU-stack
                0x0000000000000000        0x0 /usr/lib/gcc/x86_64-linux-gnu/9/../../../x86_64-linux-gnu/crtn.o

Memory Configuration

Name             Origin             Length             Attributes
*default*        0x0000000000000000 0xffffffffffffffff

Linker script and memory map

LOAD /usr/lib/gcc/x86_64-linux-gnu/9/../../../x86_64-linux-gnu/crti.o
LOAD /usr/lib/gcc/x86_64-linux-gnu/9/crtbeginS.o
LOAD /home/jose/catkin_ws/build/parrot_arsdk/arsdk/src/ARSDKBuildUtils/out/arsdk-native/build/libARController/obj/Sources/ARCONTROLLER_Dictionary.c.o
LOAD /home/jose/catkin_ws/build/parrot_arsdk/arsdk/src/ARSDKBuildUtils/out/arsdk-native/build/libARController/obj/Sources/ARCONTROLLER_Frame.c.o
LOAD /home/jose/catkin_ws/build/parrot_arsdk/arsdk/src/ARSDKBuildUtils/out/arsdk-native/build/libARController/obj/Sources/ARCONTROLLER_Network.c.o
LOAD /home/jose/catkin_ws/build/parrot_arsdk/arsdk/src/ARSDKBuildUtils/out/arsdk-native/build/libARController/obj/Sources/ARCONTROLLER_Stream.c.o
LOAD /home/jose/catkin_ws/build/parrot_arsdk/arsdk/src/ARSDKBuildUtils/out/arsdk-native/build/libARController/obj/Sources/ARCONTROLLER_StreamPool.c.o
LOAD /home/jose/catkin_ws/build/parrot_arsdk/arsdk/src/ARSDKBuildUtils/out/arsdk-native/build/libARController/obj/Sources/ARCONTROLLER_StreamQueue.c.o
LOAD /home/jose/catkin_ws/build/parrot_arsdk/arsdk/src/ARSDKBuildUtils/out/arsdk-native/build/libARController/obj/Sources/ARCONTROLLER_Stream1.c.o
LOAD /home/jose/catkin_ws/build/parrot_arsdk/arsdk/src/ARSDKBuildUtils/out/arsdk-native/build/libARController/obj/Sources/ARCONTROLLER_Stream2.c.o
LOAD /home/jose/catkin_ws/build/parrot_arsdk/arsdk/src/ARSDKBuildUtils/out/arsdk-native/build/libARController/obj/Sources/ARCONTROLLER_StreamSender.c.o
LOAD /home/jose/catkin_ws/build/parrot_arsdk/arsdk/src/ARSDKBuildUtils/out/arsdk-native/build/libARController/obj/Sources/ARCONTROLLER_NAckCbs.c.o
LOAD /home/jose/catkin_ws/build/parrot_arsdk/arsdk/src/ARSDKBuildUtils/out/arsdk-native/build/libARController/obj/gen/Sources/ARCONTROLLER_Device.c.o
LOAD /home/jose/catkin_ws/build/parrot_arsdk/arsdk/src/ARSDKBuildUtils/out/arsdk-native/build/libARController/obj/gen/Sources/ARCONTROLLER_DICTIONARY_Key.c.o
LOAD /home/jose/catkin_ws/build/parrot_arsdk/arsdk/src/ARSDKBuildUtils/out/arsdk-native/build/libARController/obj/gen/Sources/ARCONTROLLER_Error.c.o
LOAD /home/jose/catkin_ws/build/parrot_arsdk/arsdk/src/ARSDKBuildUtils/out/arsdk-native/build/libARController/obj/gen/Sources/ARCONTROLLER_Feature.c.o
LOAD /home/jose/catkin_ws/build/parrot_arsdk/arsdk/src/ARSDKBuildUtils/out/arsdk-native/staging/usr/lib/libarsal.so
LOAD /home/jose/catkin_ws/build/parrot_arsdk/arsdk/src/ARSDKBuildUtils/out/arsdk-native/staging/usr/lib/libardiscovery.so
LOAD /home/jose/catkin_ws/build/parrot_arsdk/arsdk/src/ARSDKBuildUtils/out/arsdk-native/staging/usr/lib/libarcommands.so
LOAD /home/jose/catkin_ws/build/parrot_arsdk/arsdk/src/ARSDKBuildUtils/out/arsdk-native/staging/usr/lib/libarutils.so
LOAD /home/jose/catkin_ws/build/parrot_arsdk/arsdk/src/ARSDKBuildUtils/out/arsdk-native/staging/usr/lib/libarstream.so
LOAD /home/jose/catkin_ws/build/parrot_arsdk/arsdk/src/ARSDKBuildUtils/out/arsdk-native/staging/usr/lib/libarstream2.so
LOAD /home/jose/catkin_ws/build/parrot_arsdk/arsdk/src/ARSDKBuildUtils/out/arsdk-native/staging/usr/lib/libarnetworkal.so
LOAD /home/jose/catkin_ws/build/parrot_arsdk/arsdk/src/ARSDKBuildUtils/out/arsdk-native/staging/usr/lib/libarnetwork.so
LOAD /home/jose/catkin_ws/build/parrot_arsdk/arsdk/src/ARSDKBuildUtils/out/arsdk-native/staging/usr/lib/librtsp.so
LOAD /home/jose/catkin_ws/build/parrot_arsdk/arsdk/src/ARSDKBuildUtils/out/arsdk-native/staging/usr/lib/libsdp.so
LOAD /home/jose/catkin_ws/build/parrot_arsdk/arsdk/src/ARSDKBuildUtils/out/arsdk-native/staging/usr/lib/libfutils.so
LOAD /home/jose/catkin_ws/build/parrot_arsdk/arsdk/src/ARSDKBuildUtils/out/arsdk-native/staging/usr/lib/libpomp.so
LOAD /home/jose/catkin_ws/build/parrot_arsdk/arsdk/src/ARSDKBuildUtils/out/arsdk-native/staging/usr/lib/libmux.so
LOAD /home/jose/catkin_ws/build/parrot_arsdk/arsdk/src/ARSDKBuildUtils/out/arsdk-native/staging/usr/lib/libjson-c.so
LOAD /usr/lib/gcc/x86_64-linux-gnu/9/../../../x86_64-linux-gnu/librt.so
LOAD /usr/lib/gcc/x86_64-linux-gnu/9/libstdc++.so
LOAD /usr/lib/gcc/x86_64-linux-gnu/9/../../../x86_64-linux-gnu/libm.so
START GROUP
LOAD /lib/x86_64-linux-gnu/libm.so.6
LOAD /lib/x86_64-linux-gnu/libmvec.so.1
END GROUP
LOAD /usr/lib/gcc/x86_64-linux-gnu/9/libgcc_s.so
START GROUP
LOAD /usr/lib/gcc/x86_64-linux-gnu/9/../../../x86_64-linux-gnu/libgcc_s.so.1
LOAD /usr/lib/gcc/x86_64-linux-gnu/9/libgcc.a
END GROUP
LOAD /usr/lib/gcc/x86_64-linux-gnu/9/../../../x86_64-linux-gnu/libpthread.so
LOAD /usr/lib/gcc/x86_64-linux-gnu/9/../../../x86_64-linux-gnu/libc.so
START GROUP
LOAD /lib/x86_64-linux-gnu/libc.so.6
LOAD /usr/lib/x86_64-linux-gnu/libc_nonshared.a
LOAD /lib/x86_64-linux-gnu/ld-linux-x86-64.so.2
END GROUP
LOAD /usr/lib/gcc/x86_64-linux-gnu/9/libgcc_s.so
START GROUP
LOAD /usr/lib/gcc/x86_64-linux-gnu/9/../../../x86_64-linux-gnu/libgcc_s.so.1
LOAD /usr/lib/gcc/x86_64-linux-gnu/9/libgcc.a
END GROUP
LOAD /usr/lib/gcc/x86_64-linux-gnu/9/crtendS.o
LOAD /usr/lib/gcc/x86_64-linux-gnu/9/../../../x86_64-linux-gnu/crtn.o
                0x00000000000002a8                . = (SEGMENT_START ("text-segment", 0x0) + SIZEOF_HEADERS)

.note.gnu.property
                0x00000000000002a8       0x20
 .note.gnu.property
                0x00000000000002a8       0x20 /usr/lib/gcc/x86_64-linux-gnu/9/../../../x86_64-linux-gnu/crti.o

.note.gnu.build-id
                0x00000000000002c8       0x24
 *(.note.gnu.build-id)
 .note.gnu.build-id
                0x00000000000002c8       0x24 /usr/lib/gcc/x86_64-linux-gnu/9/../../../x86_64-linux-gnu/crti.o

.hash
 *(.hash)

.gnu.hash       0x00000000000002f0     0x4848
 *(.gnu.hash)
 .gnu.hash      0x00000000000002f0     0x4848 /usr/lib/gcc/x86_64-linux-gnu/9/../../../x86_64-linux-gnu/crti.o

.dynsym         0x0000000000004b38    0x104d0
 *(.dynsym)
 .dynsym        0x0000000000004b38    0x104d0 /usr/lib/gcc/x86_64-linux-gnu/9/../../../x86_64-linux-gnu/crti.o

.dynstr         0x0000000000015008    0x2aafd
 *(.dynstr)
 .dynstr        0x0000000000015008    0x2aafd /usr/lib/gcc/x86_64-linux-gnu/9/../../../x86_64-linux-gnu/crti.o

.gnu.version    0x000000000003fb06     0x15bc
 *(.gnu.version)
 .gnu.version   0x000000000003fb06     0x15bc /usr/lib/gcc/x86_64-linux-gnu/9/../../../x86_64-linux-gnu/crti.o

.gnu.version_d  0x00000000000410c8        0x0
 *(.gnu.version_d)
 .gnu.version_d
                0x00000000000410c8        0x0 /usr/lib/gcc/x86_64-linux-gnu/9/../../../x86_64-linux-gnu/crti.o

.gnu.version_r  0x00000000000410c8       0x70
 *(.gnu.version_r)
 .gnu.version_r
                0x00000000000410c8       0x70 /usr/lib/gcc/x86_64-linux-gnu/9/../../../x86_64-linux-gnu/crti.o

.rela.dyn       0x0000000000041138     0xc318
 *(.rela.init)
 *(.rela.text .rela.text.* .rela.gnu.linkonce.t.*)
 .rela.text     0x0000000000041138        0x0 /usr/lib/gcc/x86_64-linux-gnu/9/../../../x86_64-linux-gnu/crti.o
 *(.rela.fini)
 *(.rela.rodata .rela.rodata.* .rela.gnu.linkonce.r.*)
 *(.rela.data .rela.data.* .rela.gnu.linkonce.d.*)
 .rela.data.rel.local
                0x0000000000041138     0x4188 /usr/lib/gcc/x86_64-linux-gnu/9/../../../x86_64-linux-gnu/crti.o
 *(.rela.tdata .rela.tdata.* .rela.gnu.linkonce.td.*)
 *(.rela.tbss .rela.tbss.* .rela.gnu.linkonce.tb.*)
 *(.rela.ctors)
 *(.rela.dtors)
 *(.rela.got)
 .rela.got      0x00000000000452c0     0x8160 /usr/lib/gcc/x86_64-linux-gnu/9/../../../x86_64-linux-gnu/crti.o
 *(.rela.bss .rela.bss.* .rela.gnu.linkonce.b.*)
 *(.rela.ldata .rela.ldata.* .rela.gnu.linkonce.l.*)
 *(.rela.lbss .rela.lbss.* .rela.gnu.linkonce.lb.*)
 *(.rela.lrodata .rela.lrodata.* .rela.gnu.linkonce.lr.*)
 *(.rela.ifunc)
 .rela.ifunc    0x000000000004d420        0x0 /usr/lib/gcc/x86_64-linux-gnu/9/../../../x86_64-linux-gnu/crti.o
 .rela.fini_array
                0x000000000004d420       0x18 /usr/lib/gcc/x86_64-linux-gnu/9/../../../x86_64-linux-gnu/crti.o
 .rela.init_array
                0x000000000004d438       0x18 /usr/lib/gcc/x86_64-linux-gnu/9/../../../x86_64-linux-gnu/crti.o

.rela.plt       0x000000000004d450     0x7ed8
 *(.rela.plt)
 .rela.plt      0x000000000004d450     0x7ed8 /usr/lib/gcc/x86_64-linux-gnu/9/../../../x86_64-linux-gnu/crti.o
 *(.rela.iplt)
                0x0000000000056000                . = ALIGN (CONSTANT (MAXPAGESIZE))

.init           0x0000000000056000       0x1b
 *(SORT_NONE(.init))
 .init          0x0000000000056000       0x16 /usr/lib/gcc/x86_64-linux-gnu/9/../../../x86_64-linux-gnu/crti.o
                0x0000000000056000                _init
 .init          0x0000000000056016        0x5 /usr/lib/gcc/x86_64-linux-gnu/9/../../../x86_64-linux-gnu/crtn.o

.plt            0x0000000000056020     0x54a0
 *(.plt)
 .plt           0x0000000000056020     0x54a0 /usr/lib/gcc/x86_64-linux-gnu/9/../../../x86_64-linux-gnu/crti.o
 *(.iplt)

.plt.got        0x000000000005b4c0       0x20
 *(.plt.got)
 .plt.got       0x000000000005b4c0       0x20 /usr/lib/gcc/x86_64-linux-gnu/9/../../../x86_64-linux-gnu/crti.o

.plt.sec        0x000000000005b4e0     0x5490
 *(.plt.sec)
 .plt.sec       0x000000000005b4e0     0x5490 /usr/lib/gcc/x86_64-linux-gnu/9/../../../x86_64-linux-gnu/crti.o

.text           0x0000000000060970   0x194a63
 *(.text.unlikely .text.*_unlikely .text.unlikely.*)
 *(.text.exit .text.exit.*)
 *(.text.startup .text.startup.*)
 *(.text.hot .text.hot.*)
 *(SORT_BY_NAME(.text.sorted.*))
 *(.text .stub .text.* .gnu.linkonce.t.*)
 .text          0x0000000000060970       0xb9 /usr/lib/gcc/x86_64-linux-gnu/9/crtbeginS.o
 *fill*         0x0000000000060a29        0x7 
 .text.ARCONTROLLER_Dictionary_DeleteCallbackList
                0x0000000000060a30       0x94 /home/jose/catkin_ws/build/parrot_arsdk/arsdk/src/ARSDKBuildUtils/out/arsdk-native/build/libARController/obj/Sources/ARCONTROLLER_Dictionary.c.o
                0x0000000000060a30                ARCONTROLLER_Dictionary_DeleteCallbackList
 *fill*         0x0000000000060ac4        0xc 
 .text.ARCONTROLLER_Dictionary_Delete
                0x0000000000060ad0       0x41 /home/jose/catkin_ws/build/parrot_arsdk/arsdk/src/ARSDKBuildUtils/out/arsdk-native/build/libARController/obj/Sources/ARCONTROLLER_Dictionary.c.o
                0x0000000000060ad0                ARCONTROLLER_Dictionary_Delete
 *fill*         0x0000000000060b11        0xf 
 .text.ARCONTROLLER_Dictionary_New
                0x0000000000060b20       0x74 /home/jose/catkin_ws/build/parrot_arsdk/arsdk/src/ARSDKBuildUtils/out/arsdk-native/build/libARController/obj/Sources/ARCONTROLLER_Dictionary.c.o
                0x0000000000060b20                ARCONTROLLER_Dictionary_New
 *fill*         0x0000000000060b94        0xc 
 .text.ARCONTROLLER_Dictionary_AddCallbackInList
                0x0000000000060ba0       0x75 /home/jose/catkin_ws/build/parrot_arsdk/arsdk/src/ARSDKBuildUtils/out/arsdk-native/build/libARController/obj/Sources/ARCONTROLLER_Dictionary.c.o
                0x0000000000060ba0                ARCONTROLLER_Dictionary_AddCallbackInList
 *fill*         0x0000000000060c15        0xb 
 .text.ARCONTROLLER_Dictionary_DeleteDictionary
                0x0000000000060c20      0x1c7 /home/jose/catkin_ws/build/parrot_arsdk/arsdk/src/ARSDKBuildUtils/out/arsdk-native/build/libARController/obj/Sources/ARCONTROLLER_Dictionary.c.o
                0x0000000000060c20                ARCONTROLLER_Dictionary_DeleteDictionary
 *fill*         0x0000000000060de7        0x9 
 .text.ARCONTROLLER_DICTIONARY_NotifyAllCallbackInList
                0x0000000000060df0       0x45 /home/jose/catkin_ws/build/parrot_arsdk/arsdk/src/ARSDKBuildUtils/out/arsdk-native/build/libARController/obj/Sources/ARCONTROLLER_Dictionary.c.o
                0x0000000000060df0                ARCONTROLLER_DICTIONARY_NotifyAllCallbackInList
 *fill*         0x0000000000060e35        0xb 
 .text.ARCONTROLLER_Dictionary_Notify
                0x0000000000060e40      0x116 /home/jose/catkin_ws/build/parrot_arsdk/arsdk/src/ARSDKBuildUtils/out/arsdk-native/build/libARController/obj/Sources/ARCONTROLLER_Dictionary.c.o
                0x0000000000060e40                ARCONTROLLER_Dictionary_Notify
 *fill*         0x0000000000060f56        0xa 
 .text.ARCONTROLLER_DICTIONARY_ElementCompare
                0x0000000000060f60       0x27 /home/jose/catkin_ws/build/parrot_arsdk/arsdk/src/ARSDKBuildUtils/out/arsdk-native/build/libARController/obj/Sources/ARCONTROLLER_Dictionary.c.o
                0x0000000000060f60                ARCONTROLLER_DICTIONARY_ElementCompare
 *fill*         0x0000000000060f87        0x9 
 .text.ARCONTROLLER_Dictionary_AddCallback
                0x0000000000060f90       0xae /home/jose/catkin_ws/build/parrot_arsdk/arsdk/src/ARSDKBuildUtils/out/arsdk-native/build/libARController/obj/Sources/ARCONTROLLER_Dictionary.c.o
                0x0000000000060f90                ARCONTROLLER_Dictionary_AddCallback
 *fill*         0x000000000006103e        0x2 
 .text.ARCONTROLLER_Dictionary_AddDictionaryElement
                0x0000000000061040      0x496 /home/jose/catkin_ws/build/parrot_arsdk/arsdk/src/ARSDKBuildUtils/out/arsdk-native/build/libARController/obj/Sources/ARCONTROLLER_Dictionary.c.o
                0x0000000000061040                ARCONTROLLER_Dictionary_AddDictionaryElement
 *fill*         0x00000000000614d6        0xa 
 .text.ARCONTROLLER_Dictionary_RemoveCallbackFromList
                0x00000000000614e0       0xea /home/jose/catkin_ws/build/parrot_arsdk/arsdk/src/ARSDKBuildUtils/out/arsdk-native/build/libARController/obj/Sources/ARCONTROLLER_Dictionary.c.o
                0x00000000000614e0                ARCONTROLLER_Dictionary_RemoveCallbackFromList
 *fill*         0x00000000000615ca        0x6 
 .text.ARCONTROLLER_Dictionary_RemoveCallback
                0x00000000000615d0       0x26 /home/jose/catkin_ws/build/parrot_arsdk/arsdk/src/ARSDKBuildUtils/out/arsdk-native/build/libARController/obj/Sources/ARCONTROLLER_Dictionary.c.o
                0x00000000000615d0                ARCONTROLLER_Dictionary_RemoveCallback
 *fill*         0x00000000000615f6        0xa 
 .text.ARCONTROLLER_Dictionary_RemoveDictionaryElement
                0x0000000000061600      0x149 /home/jose/catkin_ws/build/parrot_arsdk/arsdk/src/ARSDKBuildUtils/out/arsdk-native/build/libARController/obj/Sources/ARCONTROLLER_Dictionary.c.o
                0x0000000000061600                ARCONTROLLER_Dictionary_RemoveDictionaryElement
 *fill*         0x0000000000061749        0x7 
 .text.ARCONTROLLER_Frame_NewWithCapacity
                0x0000000000061750       0xc4 /home/jose/catkin_ws/build/parrot_arsdk/arsdk/src/ARSDKBuildUtils/out/arsdk-native/build/libARController/obj/Sources/ARCONTROLLER_Frame.c.o
                0x0000000000061750                ARCONTROLLER_Frame_NewWithCapacity
 *fill*         0x0000000000061814        0xc 
 .text.ARCONTROLLER_Frame_New
                0x0000000000061820       0x11 /home/jose/catkin_ws/build/parrot_arsdk/arsdk/src/ARSDKBuildUtils/out/arsdk-native/build/libARController/obj/Sources/ARCONTROLLER_Frame.c.o
                0x0000000000061820                ARCONTROLLER_Frame_New
 *fill*         0x0000000000061831        0xf 
 .text.ARCONTROLLER_Frame_Delete
                0x0000000000061840       0x51 /home/jose/catkin_ws/build/parrot_arsdk/arsdk/src/ARSDKBuildUtils/out/arsdk-native/build/libARController/obj/Sources/ARCONTROLLER_Frame.c.o
                0x0000000000061840                ARCONTROLLER_Frame_Delete
 *fill*         0x0000000000061891        0xf 
 .text.ARCONTROLLER_Frame_ensureCapacityIsAtLeast
                0x00000000000618a0       0x76 /home/jose/catkin_ws/build/parrot_arsdk/arsdk/src/ARSDKBuildUtils/out/arsdk-native/build/libARController/obj/Sources/ARCONTROLLER_Frame.c.o
                0x00000000000618a0                ARCONTROLLER_Frame_ensureCapacityIsAtLeast
 *fill*         0x0000000000061916        0xa 
 .text.ARCONTROLLER_Frame_SetFree
                0x0000000000061920       0x47 /home/jose/catkin_ws/build/parrot_arsdk/arsdk/src/ARSDKBuildUtils/out/arsdk-native/build/libARController/obj/Sources/ARCONTROLLER_Frame.c.o
                0x0000000000061920                ARCONTROLLER_Frame_SetFree
 *fill*         0x0000000000061967        0x9 
 .text.ARCONTROLLER_Network_OnDisconnectNetwork
                0x0000000000061970       0x21 /home/jose/catkin_ws/build/parrot_arsdk/arsdk/src/ARSDKBuildUtils/out/arsdk-native/build/libARController/obj/Sources/ARCONTROLLER_Network.c.o
                0x0000000000061970                ARCONTROLLER_Network_OnDisconnectNetwork
 *fill*         0x0000000000061991        0xf 
 .text.ARCONTROLLER_Network_ReaderRun
                0x00000000000619a0      0x217 /home/jose/catkin_ws/build/parrot_arsdk/arsdk/src/ARSDKBuildUtils/out/arsdk-native/build/libARController/obj/Sources/ARCONTROLLER_Network.c.o
                0x00000000000619a0                ARCONTROLLER_Network_ReaderRun
 *fill*         0x0000000000061bb7        0x9 
 .text.ARCONTROLLER_Network_SendingCallback
                0x0000000000061bc0       0x9c /home/jose/catkin_ws/build/parrot_arsdk/arsdk/src/ARSDKBuildUtils/out/arsdk-native/build/libARController/obj/Sources/ARCONTROLLER_Network.c.o
                0x0000000000061bc0                ARCONTROLLER_Network_SendingCallback
 *fill*         0x0000000000061c5c        0x4 
 .text.ARCONTROLLER_Network_OnSendJson
                0x0000000000061c60       0x66 /home/jose/catkin_ws/build/parrot_arsdk/arsdk/src/ARSDKBuildUtils/out/arsdk-native/build/libARController/obj/Sources/ARCONTROLLER_Network.c.o
                0x0000000000061c60                ARCONTROLLER_Network_OnSendJson
 *fill*         0x0000000000061cc6        0xa 
 .text.ARCONTROLLER_Network_OnReceiveJson
                0x0000000000061cd0       0xb6 /home/jose/catkin_ws/build/parrot_arsdk/arsdk/src/ARSDKBuildUtils/out/arsdk-native/build/libARController/obj/Sources/ARCONTROLLER_Network.c.o
                0x0000000000061cd0                ARCONTROLLER_Network_OnReceiveJson
 *fill*         0x0000000000061d86        0xa 
 .text.ARCONTROLLER_Network_Pause
                0x0000000000061d90       0xc8 /home/jose/catkin_ws/build/parrot_arsdk/arsdk/src/ARSDKBuildUtils/out/arsdk-native/build/libARController/obj/Sources/ARCONTROLLER_Network.c.o
                0x0000000000061d90                ARCONTROLLER_Network_Pause
 *fill*         0x0000000000061e58        0x8 
 .text.ARCONTROLLER_Network_Resume
                0x0000000000061e60       0xd8 /home/jose/catkin_ws/build/parrot_arsdk/arsdk/src/ARSDKBuildUtils/out/arsdk-native/build/libARController/obj/Sources/ARCONTROLLER_Network.c.o
                0x0000000000061e60                ARCONTROLLER_Network_Resume
 *fill*         0x0000000000061f38        0x8 
 .text.ARCONTROLLER_Network_SetVideoReceiveCallback
                0x0000000000061f40       0x90 /home/jose/catkin_ws/build/parrot_arsdk/arsdk/src/ARSDKBuildUtils/out/arsdk-native/build/libARController/obj/Sources/ARCONTROLLER_Network.c.o
                0x0000000000061f40                ARCONTROLLER_Network_SetVideoReceiveCallback
 .text.ARCONTROLLER_Network_StartVideoStream
                0x0000000000061fd0       0x78 /home/jose/catkin_ws/build/parrot_arsdk/arsdk/src/ARSDKBuildUtils/out/arsdk-native/build/libARController/obj/Sources/ARCONTROLLER_Network.c.o
                0x0000000000061fd0                ARCONTROLLER_Network_StartVideoStream
 *fill*         0x0000000000062048        0x8 
 .text.ARCONTROLLER_Network_StopVideoStream
                0x0000000000062050       0x70 /home/jose/catkin_ws/build/parrot_arsdk/arsdk/src/ARSDKBuildUtils/out/arsdk-native/build/libARController/obj/Sources/ARCONTROLLER_Network.c.o
                0x0000000000062050                ARCONTROLLER_Network_StopVideoStream
 .text.ARCONTROLLER_Network_SetVideoStreamMP4Compliant
                0x00000000000620c0       0x80 /home/jose/catkin_ws/build/parrot_arsdk/arsdk/src/ARSDKBuildUtils/out/arsdk-native/build/libARController/obj/Sources/ARCONTROLLER_Network.c.o
                0x00000000000620c0                ARCONTROLLER_Network_SetVideoStreamMP4Compliant
 .text.ARCONTROLLER_Network_SetAudioReceiveCallback
                0x0000000000062140       0x90 /home/jose/catkin_ws/build/parrot_arsdk/arsdk/src/ARSDKBuildUtils/out/arsdk-native/build/libARController/obj/Sources/ARCONTROLLER_Network.c.o
                0x0000000000062140                ARCONTROLLER_Network_SetAudioReceiveCallback
 .text.ARCONTROLLER_Network_StartAudioStream
                0x00000000000621d0       0x98 /home/jose/catkin_ws/build/parrot_arsdk/arsdk/src/ARSDKBuildUtils/out/arsdk-native/build/libARController/obj/Sources/ARCONTROLLER_Network.c.o
                0x00000000000621d0                ARCONTROLLER_Network_StartAudioStream
 *fill*         0x0000000000062268        0x8 
 .text.ARCONTROLLER_Network_StopAudioStream
                0x0000000000062270       0x89 /home/jose/catkin_ws/build/parrot_arsdk/arsdk/src/ARSDKBuildUtils/out/arsdk-native/build/libARController/obj/Sources/ARCONTROLLER_Network.c.o
                0x0000000000062270                ARCONTROLLER_Network_StopAudioStream
 *fill*         0x00000000000622f9        0x7 
 .text.ARCONTROLLER_Network_SendData
                0x0000000000062300      0x1a1 /home/jose/catkin_ws/build/parrot_arsdk/arsdk/src/ARSDKBuildUtils/out/arsdk-native/build/libARController/obj/Sources/ARCONTROLLER_Network.c.o
                0x0000000000062300                ARCONTROLLER_Network_SendData
 *fill*         0x00000000000624a1        0xf 
 .text.ARCONTROLLER_Network_SendAudioFrame
                0x00000000000624b0       0x36 /home/jose/catkin_ws/build/parrot_arsdk/arsdk/src/ARSDKBuildUtils/out/arsdk-native/build/libARController/obj/Sources/ARCONTROLLER_Network.c.o
                0x00000000000624b0                ARCONTROLLER_Network_SendAudioFrame
 *fill*         0x00000000000624e6        0xa 
 .text.ARCONTROLLER_Network_CreateNetworkThreads
                0x00000000000624f0       0x93 /home/jose/catkin_ws/build/parrot_arsdk/arsdk/src/ARSDKBuildUtils/out/arsdk-native/build/libARController/obj/Sources/ARCONTROLLER_Network.c.o
                0x00000000000624f0                ARCONTROLLER_Network_CreateNetworkThreads
 *fill*         0x0000000000062583        0xd 
 .text.ARCONTROLLER_Network_StopNetworkThreads
                0x0000000000062590       0x90 /home/jose/catkin_ws/build/parrot_arsdk/arsdk/src/ARSDKBuildUtils/out/arsdk-native/build/libARController/obj/Sources/ARCONTROLLER_Network.c.o
                0x0000000000062590                ARCONTROLLER_Network_StopNetworkThreads
 .text.ARCONTROLLER_Network_CreateReaderThreads
                0x0000000000062620      0x157 /home/jose/catkin_ws/build/parrot_arsdk/arsdk/src/ARSDKBuildUtils/out/arsdk-native/build/libARController/obj/Sources/ARCONTROLLER_Network.c.o
                0x0000000000062620                ARCONTROLLER_Network_CreateReaderThreads
 *fill*         0x0000000000062777        0x9 
 .text.ARCONTROLLER_Network_StopReaderThreads
                0x0000000000062780       0xbb /home/jose/catkin_ws/build/parrot_arsdk/arsdk/src/ARSDKBuildUtils/out/arsdk-native/build/libARController/obj/Sources/ARCONTROLLER_Network.c.o
                0x0000000000062780                ARCONTROLLER_Network_StopReaderThreads
 *fill*         0x000000000006283b        0x5 
 .text.ARCONTROLLER_Network_Delete
                0x0000000000062840      0x11e /home/jose/catkin_ws/build/parrot_arsdk/arsdk/src/ARSDKBuildUtils/out/arsdk-native/build/libARController/obj/Sources/ARCONTROLLER_Network.c.o
                0x0000000000062840                ARCONTROLLER_Network_Delete
 *fill*         0x000000000006295e        0x2 
 .text.ARCONTROLLER_Network_New
                0x0000000000062960      0x7f0 /home/jose/catkin_ws/build/parrot_arsdk/arsdk/src/ARSDKBuildUtils/out/arsdk-native/build/libARController/obj/Sources/ARCONTROLLER_Network.c.o
                0x0000000000062960                ARCONTROLLER_Network_New
 .text.ARCONTROLLER_Stream_SetMP4Compliant
                0x0000000000063150       0x3e /home/jose/catkin_ws/build/parrot_arsdk/arsdk/src/ARSDKBuildUtils/out/arsdk-native/build/libARController/obj/Sources/ARCONTROLLER_Stream.c.o
                0x0000000000063150                ARCONTROLLER_Stream_SetMP4Compliant
 *fill*         0x000000000006318e        0x2 
 .text.ARCONTROLLER_Stream_Stop
                0x0000000000063190       0x86 /home/jose/catkin_ws/build/parrot_arsdk/arsdk/src/ARSDKBuildUtils/out/arsdk-native/build/libARController/obj/Sources/ARCONTROLLER_Stream.c.o
                0x0000000000063190                ARCONTROLLER_Stream_Stop
 *fill*         0x0000000000063216        0xa 
 .text.ARCONTROLLER_Stream_Delete
                0x0000000000063220       0x49 /home/jose/catkin_ws/build/parrot_arsdk/arsdk/src/ARSDKBuildUtils/out/arsdk-native/build/libARController/obj/Sources/ARCONTROLLER_Stream.c.o
                0x0000000000063220                ARCONTROLLER_Stream_Delete
 *fill*         0x0000000000063269        0x7 
 .text.ARCONTROLLER_Stream_New
                0x0000000000063270       0xf8 /home/jose/catkin_ws/build/parrot_arsdk/arsdk/src/ARSDKBuildUtils/out/arsdk-native/build/libARController/obj/Sources/ARCONTROLLER_Stream.c.o
                0x0000000000063270                ARCONTROLLER_Stream_New
 *fill*         0x0000000000063368        0x8 
 .text.ARCONTROLLER_Stream_video_New
                0x0000000000063370       0x89 /home/jose/catkin_ws/build/parrot_arsdk/arsdk/src/ARSDKBuildUtils/out/arsdk-native/build/libARController/obj/Sources/ARCONTROLLER_Stream.c.o
                0x0000000000063370                ARCONTROLLER_Stream_video_New
 *fill*         0x00000000000633f9        0x7 
 .text.ARCONTROLLER_Stream_audio_New
                0x0000000000063400       0x11 /home/jose/catkin_ws/build/parrot_arsdk/arsdk/src/ARSDKBuildUtils/out/arsdk-native/build/libARController/obj/Sources/ARCONTROLLER_Stream.c.o
                0x0000000000063400                ARCONTROLLER_Stream_audio_New
 *fill*         0x0000000000063411        0xf 
 .text.ARCONTROLLER_Stream_Start
                0x0000000000063420       0x7e /home/jose/catkin_ws/build/parrot_arsdk/arsdk/src/ARSDKBuildUtils/out/arsdk-native/build/libARController/obj/Sources/ARCONTROLLER_Stream.c.o
                0x0000000000063420                ARCONTROLLER_Stream_Start
 *fill*         0x000000000006349e        0x2 
 .text.ARCONTROLLER_Stream_SetReceiveFrameCallback
                0x00000000000634a0       0x66 /home/jose/catkin_ws/build/parrot_arsdk/arsdk/src/ARSDKBuildUtils/out/arsdk-native/build/libARController/obj/Sources/ARCONTROLLER_Stream.c.o
                0x00000000000634a0                ARCONTROLLER_Stream_SetReceiveFrameCallback
 *fill*         0x0000000000063506        0xa 
 .text.ARCONTROLLER_Stream_OnSendJson
                0x0000000000063510       0x26 /home/jose/catkin_ws/build/parrot_arsdk/arsdk/src/ARSDKBuildUtils/out/arsdk-native/build/libARController/obj/Sources/ARCONTROLLER_Stream.c.o
                0x0000000000063510                ARCONTROLLER_Stream_OnSendJson
 *fill*         0x0000000000063536        0xa 
 .text.ARCONTROLLER_Stream_OnReceiveJson
                0x0000000000063540       0x4a /home/jose/catkin_ws/build/parrot_arsdk/arsdk/src/ARSDKBuildUtils/out/arsdk-native/build/libARController/obj/Sources/ARCONTROLLER_Stream.c.o
                0x0000000000063540                ARCONTROLLER_Stream_OnReceiveJson
 *fill*         0x000000000006358a        0x6 
 .text.ARCONTROLLER_StreamPool_Delete
                0x0000000000063590       0x79 /home/jose/catkin_ws/build/parrot_arsdk/arsdk/src/ARSDKBuildUtils/out/arsdk-native/build/libARController/obj/Sources/ARCONTROLLER_StreamPool.c.o
                0x0000000000063590                ARCONTROLLER_StreamPool_Delete
 *fill*         0x0000000000063609        0x7 
 .text.ARCONTROLLER_StreamPool_New
                0x0000000000063610      0x124 /home/jose/catkin_ws/build/parrot_arsdk/arsdk/src/ARSDKBuildUtils/out/arsdk-native/build/libARController/obj/Sources/ARCONTROLLER_StreamPool.c.o
                0x0000000000063610                ARCONTROLLER_StreamPool_New
 *fill*         0x0000000000063734        0xc 
 .text.ARCONTROLLER_StreamPool_GetNextFreeFrame
                0x0000000000063740       0x6a /home/jose/catkin_ws/build/parrot_arsdk/arsdk/src/ARSDKBuildUtils/out/arsdk-native/build/libARController/obj/Sources/ARCONTROLLER_StreamPool.c.o
                0x0000000000063740                ARCONTROLLER_StreamPool_GetNextFreeFrame
 *fill*         0x00000000000637aa        0x6 
 .text.ARCONTROLLER_StreamPool_GetFrameFromData
                0x00000000000637b0       0x5a /home/jose/catkin_ws/build/parrot_arsdk/arsdk/src/ARSDKBuildUtils/out/arsdk-native/build/libARController/obj/Sources/ARCONTROLLER_StreamPool.c.o
                0x00000000000637b0                ARCONTROLLER_StreamPool_GetFrameFromData
 *fill*         0x000000000006380a        0x6 
 .text.ARCONTROLLER_StreamQueue_New
                0x0000000000063810       0x73 /home/jose/catkin_ws/build/parrot_arsdk/arsdk/src/ARSDKBuildUtils/out/arsdk-native/build/libARController/obj/Sources/ARCONTROLLER_StreamQueue.c.o
                0x0000000000063810                ARCONTROLLER_StreamQueue_New
 *fill*         0x0000000000063883        0xd 
 .text.ARCONTROLLER_StreamQueue_LocalPopFrame
                0x0000000000063890       0x94 /home/jose/catkin_ws/build/parrot_arsdk/arsdk/src/ARSDKBuildUtils/out/arsdk-native/build/libARController/obj/Sources/ARCONTROLLER_StreamQueue.c.o
                0x0000000000063890                ARCONTROLLER_StreamQueue_LocalPopFrame
 *fill*         0x0000000000063924        0xc 
 .text.ARCONTROLLER_StreamQueue_Pop
                0x0000000000063930       0x61 /home/jose/catkin_ws/build/parrot_arsdk/arsdk/src/ARSDKBuildUtils/out/arsdk-native/build/libARController/obj/Sources/ARCONTROLLER_StreamQueue.c.o
                0x0000000000063930                ARCONTROLLER_StreamQueue_Pop
 *fill*         0x0000000000063991        0xf 
 .text.ARCONTROLLER_StreamQueue_PopWithTimeout
                0x00000000000639a0       0xbe /home/jose/catkin_ws/build/parrot_arsdk/arsdk/src/ARSDKBuildUtils/out/arsdk-native/build/libARController/obj/Sources/ARCONTROLLER_StreamQueue.c.o
                0x00000000000639a0                ARCONTROLLER_StreamQueue_PopWithTimeout
 *fill*         0x0000000000063a5e        0x2 
 .text.ARCONTROLLER_StreamQueue_LocalTryPop
                0x0000000000063a60       0x49 /home/jose/catkin_ws/build/parrot_arsdk/arsdk/src/ARSDKBuildUtils/out/arsdk-native/build/libARController/obj/Sources/ARCONTROLLER_StreamQueue.c.o
                0x0000000000063a60                ARCONTROLLER_StreamQueue_LocalTryPop
 *fill*         0x0000000000063aa9        0x7 
 .text.ARCONTROLLER_StreamQueue_TryPop
                0x0000000000063ab0       0x67 /home/jose/catkin_ws/build/parrot_arsdk/arsdk/src/ARSDKBuildUtils/out/arsdk-native/build/libARController/obj/Sources/ARCONTROLLER_StreamQueue.c.o
                0x0000000000063ab0                ARCONTROLLER_StreamQueue_TryPop
 *fill*         0x0000000000063b17        0x9 
 .text.ARCONTROLLER_StreamQueue_LocalFlush
                0x0000000000063b20       0xcf /home/jose/catkin_ws/build/parrot_arsdk/arsdk/src/ARSDKBuildUtils/out/arsdk-native/build/libARController/obj/Sources/ARCONTROLLER_StreamQueue.c.o
                0x0000000000063b20                ARCONTROLLER_StreamQueue_LocalFlush
 *fill*         0x0000000000063bef        0x1 
 .text.ARCONTROLLER_StreamQueue_Push
                0x0000000000063bf0       0xda /home/jose/catkin_ws/build/parrot_arsdk/arsdk/src/ARSDKBuildUtils/out/arsdk-native/build/libARController/obj/Sources/ARCONTROLLER_StreamQueue.c.o
                0x0000000000063bf0                ARCONTROLLER_StreamQueue_Push
 *fill*         0x0000000000063cca        0x6 
 .text.ARCONTROLLER_StreamQueue_Flush
                0x0000000000063cd0       0x16 /home/jose/catkin_ws/build/parrot_arsdk/arsdk/src/ARSDKBuildUtils/out/arsdk-native/build/libARController/obj/Sources/ARCONTROLLER_StreamQueue.c.o
                0x0000000000063cd0                ARCONTROLLER_StreamQueue_Flush
 *fill*         0x0000000000063ce6        0xa 
 .text.ARCONTROLLER_StreamQueue_Delete
                0x0000000000063cf0       0x49 /home/jose/catkin_ws/build/parrot_arsdk/arsdk/src/ARSDKBuildUtils/out/arsdk-native/build/libARController/obj/Sources/ARCONTROLLER_StreamQueue.c.o
                0x0000000000063cf0                ARCONTROLLER_StreamQueue_Delete
 *fill*         0x0000000000063d39        0x7 
 .text.ARCONTROLLER_Stream1_FrameCompleteCallback
                0x0000000000063d40      0x26f /home/jose/catkin_ws/build/parrot_arsdk/arsdk/src/ARSDKBuildUtils/out/arsdk-native/build/libARController/obj/Sources/ARCONTROLLER_Stream1.c.o
                0x0000000000063d40                ARCONTROLLER_Stream1_FrameCompleteCallback
 *fill*         0x0000000000063faf        0x1 
 .text.ARCONTROLLER_Stream1_Stop
                0x0000000000063fb0       0xb0 /home/jose/catkin_ws/build/parrot_arsdk/arsdk/src/ARSDKBuildUtils/out/arsdk-native/build/libARController/obj/Sources/ARCONTROLLER_Stream1.c.o
                0x0000000000063fb0                ARCONTROLLER_Stream1_Stop
 .text.ARCONTROLLER_Stream1_Delete
                0x0000000000064060       0x49 /home/jose/catkin_ws/build/parrot_arsdk/arsdk/src/ARSDKBuildUtils/out/arsdk-native/build/libARController/obj/Sources/ARCONTROLLER_Stream1.c.o
                0x0000000000064060                ARCONTROLLER_Stream1_Delete
 *fill*         0x00000000000640a9        0x7 
 .text.ARCONTROLLER_Stream1_New
                0x00000000000640b0      0x173 /home/jose/catkin_ws/build/parrot_arsdk/arsdk/src/ARSDKBuildUtils/out/arsdk-native/build/libARController/obj/Sources/ARCONTROLLER_Stream1.c.o
                0x00000000000640b0                ARCONTROLLER_Stream1_New
 *fill*         0x0000000000064223        0xd 
 .text.ARCONTROLLER_Stream1_Start
                0x0000000000064230      0x234 /home/jose/catkin_ws/build/parrot_arsdk/arsdk/src/ARSDKBuildUtils/out/arsdk-native/build/libARController/obj/Sources/ARCONTROLLER_Stream1.c.o
                0x0000000000064230                ARCONTROLLER_Stream1_Start
 *fill*         0x0000000000064464        0xc 
 .text.ARCONTROLLER_Stream1_SetCallbacks
                0x0000000000064470       0x25 /home/jose/catkin_ws/build/parrot_arsdk/arsdk/src/ARSDKBuildUtils/out/arsdk-native/build/libARController/obj/Sources/ARCONTROLLER_Stream1.c.o
                0x0000000000064470                ARCONTROLLER_Stream1_SetCallbacks
 *fill*         0x0000000000064495        0xb 
 .text.ARCONTROLLER_Stream1_IsRunning
                0x00000000000644a0       0x29 /home/jose/catkin_ws/build/parrot_arsdk/arsdk/src/ARSDKBuildUtils/out/arsdk-native/build/libARController/obj/Sources/ARCONTROLLER_Stream1.c.o
                0x00000000000644a0                ARCONTROLLER_Stream1_IsRunning
 *fill*         0x00000000000644c9        0x7 
 .text.ARCONTROLLER_Stream1_SetMP4Compliant
                0x00000000000644d0       0x26 /home/jose/catkin_ws/build/parrot_arsdk/arsdk/src/ARSDKBuildUtils/out/arsdk-native/build/libARController/obj/Sources/ARCONTROLLER_Stream1.c.o
                0x00000000000644d0                ARCONTROLLER_Stream1_SetMP4Compliant
 *fill*         0x00000000000644f6        0xa 
 .text.ARCONTROLLER_Stream1_GetFrame
                0x0000000000064500       0x77 /home/jose/catkin_ws/build/parrot_arsdk/arsdk/src/ARSDKBuildUtils/out/arsdk-native/build/libARController/obj/Sources/ARCONTROLLER_Stream1.c.o
                0x0000000000064500                ARCONTROLLER_Stream1_GetFrame
 *fill*         0x0000000000064577        0x9 
 .text.ARCONTROLLER_Stream1_TryGetFrame
                0x0000000000064580       0x77 /home/jose/catkin_ws/build/parrot_arsdk/arsdk/src/ARSDKBuildUtils/out/arsdk-native/build/libARController/obj/Sources/ARCONTROLLER_Stream1.c.o
                0x0000000000064580                ARCONTROLLER_Stream1_TryGetFrame
 *fill*         0x00000000000645f7        0x9 
 .text.ARCONTROLLER_Stream1_GetFrameWithTimeout
                0x0000000000064600       0x77 /home/jose/catkin_ws/build/parrot_arsdk/arsdk/src/ARSDKBuildUtils/out/arsdk-native/build/libARController/obj/Sources/ARCONTROLLER_Stream1.c.o
                0x0000000000064600                ARCONTROLLER_Stream1_GetFrameWithTimeout
 *fill*         0x0000000000064677        0x9 
 .text.ARCONTROLLER_Stream1_IdToIndex
                0x0000000000064680       0x36 /home/jose/catkin_ws/build/parrot_arsdk/arsdk/src/ARSDKBuildUtils/out/arsdk-native/build/libARController/obj/Sources/ARCONTROLLER_Stream1.c.o
                0x0000000000064680                ARCONTROLLER_Stream1_IdToIndex
 *fill*         0x00000000000646b6        0xa 
 .text.ARCONTROLLER_Stream1_InitStream1Buffers
                0x00000000000646c0      0x10e /home/jose/catkin_ws/build/parrot_arsdk/arsdk/src/ARSDKBuildUtils/out/arsdk-native/build/libARController/obj/Sources/ARCONTROLLER_Stream1.c.o
                0x00000000000646c0                ARCONTROLLER_Stream1_InitStream1Buffers
 *fill*         0x00000000000647ce        0x2 
 .text.ARCONTROLLER_Stream1_OnReceiveJson
                0x00000000000647d0      0x12c /home/jose/catkin_ws/build/parrot_arsdk/arsdk/src/ARSDKBuildUtils/out/arsdk-native/build/libARController/obj/Sources/ARCONTROLLER_Stream1.c.o
                0x00000000000647d0                ARCONTROLLER_Stream1_OnReceiveJson
 *fill*         0x00000000000648fc        0x4 
 .text.ARCONTROLLER_Stream1_GetSpsPpsFromIFrame
                0x0000000000064900      0x138 /home/jose/catkin_ws/build/parrot_arsdk/arsdk/src/ARSDKBuildUtils/out/arsdk-native/build/libARController/obj/Sources/ARCONTROLLER_Stream1.c.o
                0x0000000000064900                ARCONTROLLER_Stream1_GetSpsPpsFromIFrame
 *fill*         0x0000000000064a38        0x8 
 .text.ARCONTROLLER_Stream1_ReaderThreadRun
                0x0000000000064a40      0x3d0 /home/jose/catkin_ws/build/parrot_arsdk/arsdk/src/ARSDKBuildUtils/out/arsdk-native/build/libARController/obj/Sources/ARCONTROLLER_Stream1.c.o
                0x0000000000064a40                ARCONTROLLER_Stream1_ReaderThreadRun
 .text.ARCONTROLLER_Stream2_SpsPpsCallback
                0x0000000000064e10       0x63 /home/jose/catkin_ws/build/parrot_arsdk/arsdk/src/ARSDKBuildUtils/out/arsdk-native/build/libARController/obj/Sources/ARCONTROLLER_Stream2.c.o
 *fill*         0x0000000000064e73        0xd 
 .text.ARCONTROLLER_Stream2_AuReadyCallback
                0x0000000000064e80      0x13a /home/jose/catkin_ws/build/parrot_arsdk/arsdk/src/ARSDKBuildUtils/out/arsdk-native/build/libARController/obj/Sources/ARCONTROLLER_Stream2.c.o
 *fill*         0x0000000000064fba        0x6 
 .text.ARCONTROLLER_Stream2_StopStream
                0x0000000000064fc0       0x6e /home/jose/catkin_ws/build/parrot_arsdk/arsdk/src/ARSDKBuildUtils/out/arsdk-native/build/libARController/obj/Sources/ARCONTROLLER_Stream2.c.o
 *fill*         0x000000000006502e        0x2 
 .text.ARCONTROLLER_Stream2_Open_Socket
                0x0000000000065030      0x2e8 /home/jose/catkin_ws/build/parrot_arsdk/arsdk/src/ARSDKBuildUtils/out/arsdk-native/build/libARController/obj/Sources/ARCONTROLLER_Stream2.c.o
 *fill*         0x0000000000065318        0x8 
 .text.ARCONTROLLER_Stream2_StartStream
                0x0000000000065320      0x2b2 /home/jose/catkin_ws/build/parrot_arsdk/arsdk/src/ARSDKBuildUtils/out/arsdk-native/build/libARController/obj/Sources/ARCONTROLLER_Stream2.c.o
 *fill*         0x00000000000655d2        0xe 
 .text.ARCONTROLLER_Stream2_RestartRun
                0x00000000000655e0       0x2b /home/jose/catkin_ws/build/parrot_arsdk/arsdk/src/ARSDKBuildUtils/out/arsdk-native/build/libARController/obj/Sources/ARCONTROLLER_Stream2.c.o
 *fill*         0x000000000006560b        0x5 
 .text.ARCONTROLLER_Stream2_GetAuBufferCallback
                0x0000000000065610       0xab /home/jose/catkin_ws/build/parrot_arsdk/arsdk/src/ARSDKBuildUtils/out/arsdk-native/build/libARController/obj/Sources/ARCONTROLLER_Stream2.c.o
 *fill*         0x00000000000656bb        0x5 
 .text.ARCONTROLLER_Stream2_Stop
                0x00000000000656c0       0x2c /home/jose/catkin_ws/build/parrot_arsdk/arsdk/src/ARSDKBuildUtils/out/arsdk-native/build/libARController/obj/Sources/ARCONTROLLER_Stream2.c.o
                0x00000000000656c0                ARCONTROLLER_Stream2_Stop
 *fill*         0x00000000000656ec        0x4 
 .text.ARCONTROLLER_Stream2_Delete
                0x00000000000656f0       0x71 /home/jose/catkin_ws/build/parrot_arsdk/arsdk/src/ARSDKBuildUtils/out/arsdk-native/build/libARController/obj/Sources/ARCONTROLLER_Stream2.c.o
                0x00000000000656f0                ARCONTROLLER_Stream2_Delete
 *fill*         0x0000000000065761        0xf 
 .text.ARCONTROLLER_Stream2_New
                0x0000000000065770      0x1c7 /home/jose/catkin_ws/build/parrot_arsdk/arsdk/src/ARSDKBuildUtils/out/arsdk-native/build/libARController/obj/Sources/ARCONTROLLER_Stream2.c.o
                0x0000000000065770                ARCONTROLLER_Stream2_New
 *fill*         0x0000000000065937        0x9 
 .text.ARCONTROLLER_Stream2_SetCallbacks
                0x0000000000065940       0x24 /home/jose/catkin_ws/build/parrot_arsdk/arsdk/src/ARSDKBuildUtils/out/arsdk-native/build/libARController/obj/Sources/ARCONTROLLER_Stream2.c.o
                0x0000000000065940                ARCONTROLLER_Stream2_SetCallbacks
 *fill*         0x0000000000065964        0xc 
 .text.ARCONTROLLER_Stream2_IsRunning
                0x0000000000065970       0x21 /home/jose/catkin_ws/build/parrot_arsdk/arsdk/src/ARSDKBuildUtils/out/arsdk-native/build/libARController/obj/Sources/ARCONTROLLER_Stream2.c.o
                0x0000000000065970                ARCONTROLLER_Stream2_IsRunning
 *fill*         0x0000000000065991        0xf 
 .text.ARCONTROLLER_Stream2_SetMP4Compliant
                0x00000000000659a0       0x15 /home/jose/catkin_ws/build/parrot_arsdk/arsdk/src/ARSDKBuildUtils/out/arsdk-native/build/libARController/obj/Sources/ARCONTROLLER_Stream2.c.o
                0x00000000000659a0                ARCONTROLLER_Stream2_SetMP4Compliant
 *fill*         0x00000000000659b5        0xb 
 .text.ARCONTROLLER_Stream2_OnSendJson
                0x00000000000659c0       0x85 /home/jose/catkin_ws/build/parrot_arsdk/arsdk/src/ARSDKBuildUtils/out/arsdk-native/build/libARController/obj/Sources/ARCONTROLLER_Stream2.c.o
                0x00000000000659c0                ARCONTROLLER_Stream2_OnSendJson
 *fill*         0x0000000000065a45        0xb 
 .text.ARCONTROLLER_Stream2_OnReceiveJson
                0x0000000000065a50      0x10d /home/jose/catkin_ws/build/parrot_arsdk/arsdk/src/ARSDKBuildUtils/out/arsdk-native/build/libARController/obj/Sources/ARCONTROLLER_Stream2.c.o
                0x0000000000065a50                ARCONTROLLER_Stream2_OnReceiveJson
 *fill*         0x0000000000065b5d        0x3 
 .text.ARCONTROLLER_Stream2_JsonContainsStream2Param
                0x0000000000065b60       0x81 /home/jose/catkin_ws/build/parrot_arsdk/arsdk/src/ARSDKBuildUtils/out/arsdk-native/build/libARController/obj/Sources/ARCONTROLLER_Stream2.c.o
                0x0000000000065b60                ARCONTROLLER_Stream2_JsonContainsStream2Param
 *fill*         0x0000000000065be1        0xf 
 .text.ARCONTROLLER_Stream2_IsInitilized
                0x0000000000065bf0       0x16 /home/jose/catkin_ws/build/parrot_arsdk/arsdk/src/ARSDKBuildUtils/out/arsdk-native/build/libARController/obj/Sources/ARCONTROLLER_Stream2.c.o
                0x0000000000065bf0                ARCONTROLLER_Stream2_IsInitilized
 *fill*         0x0000000000065c06        0xa 
 .text.ARCONTROLLER_Stream2_Start
                0x0000000000065c10       0xb2 /home/jose/catkin_ws/build/parrot_arsdk/arsdk/src/ARSDKBuildUtils/out/arsdk-native/build/libARController/obj/Sources/ARCONTROLLER_Stream2.c.o
                0x0000000000065c10                ARCONTROLLER_Stream2_Start
 *fill*         0x0000000000065cc2        0xe 
 .text.ARCONTROLLER_StreamSender_FrameUpdateCallback
                0x0000000000065cd0       0x66 /home/jose/catkin_ws/build/parrot_arsdk/arsdk/src/ARSDKBuildUtils/out/arsdk-native/build/libARController/obj/Sources/ARCONTROLLER_StreamSender.c.o
 *fill*         0x0000000000065d36        0xa 
 .text.ARCONTROLLER_StreamSender_Stop
                0x0000000000065d40       0x7c /home/jose/catkin_ws/build/parrot_arsdk/arsdk/src/ARSDKBuildUtils/out/arsdk-native/build/libARController/obj/Sources/ARCONTROLLER_StreamSender.c.o
                0x0000000000065d40                ARCONTROLLER_StreamSender_Stop
 *fill*         0x0000000000065dbc        0x4 
 .text.ARCONTROLLER_StreamSender_Delete
                0x0000000000065dc0       0x41 /home/jose/catkin_ws/build/parrot_arsdk/arsdk/src/ARSDKBuildUtils/out/arsdk-native/build/libARController/obj/Sources/ARCONTROLLER_StreamSender.c.o
                0x0000000000065dc0                ARCONTROLLER_StreamSender_Delete
 *fill*         0x0000000000065e01        0xf 
 .text.ARCONTROLLER_StreamSender_New
                0x0000000000065e10      0x10b /home/jose/catkin_ws/build/parrot_arsdk/arsdk/src/ARSDKBuildUtils/out/arsdk-native/build/libARController/obj/Sources/ARCONTROLLER_StreamSender.c.o
                0x0000000000065e10                ARCONTROLLER_StreamSender_New
 *fill*         0x0000000000065f1b        0x5 
 .text.ARCONTROLLER_StreamSender_Start
                0x0000000000065f20      0x18e /home/jose/catkin_ws/build/parrot_arsdk/arsdk/src/ARSDKBuildUtils/out/arsdk-native/build/libARController/obj/Sources/ARCONTROLLER_StreamSender.c.o
                0x0000000000065f20                ARCONTROLLER_StreamSender_Start
 *fill*         0x00000000000660ae        0x2 
 .text.ARCONTROLLER_StreamSender_SendAudioFrame
                0x00000000000660b0      0x202 /home/jose/catkin_ws/build/parrot_arsdk/arsdk/src/ARSDKBuildUtils/out/arsdk-native/build/libARController/obj/Sources/ARCONTROLLER_StreamSender.c.o
                0x00000000000660b0                ARCONTROLLER_StreamSender_SendAudioFrame
 *fill*         0x00000000000662b2        0xe 
 .text.ARCONTROLLER_StreamSender_OnReceiveJson
                0x00000000000662c0      0x1a4 /home/jose/catkin_ws/build/parrot_arsdk/arsdk/src/ARSDKBuildUtils/out/arsdk-native/build/libARController/obj/Sources/ARCONTROLLER_StreamSender.c.o
                0x00000000000662c0                ARCONTROLLER_StreamSender_OnReceiveJson
 *fill*         0x0000000000066464        0xc 
 .text.cameraStateDefaultOrientationCb
                0x0000000000066470       0x33 /home/jose/catkin_ws/build/parrot_arsdk/arsdk/src/ARSDKBuildUtils/out/arsdk-native/build/libARController/obj/Sources/ARCONTROLLER_NAckCbs.c.o
 *fill*         0x00000000000664a3        0xd 
 .text.ARCONTROLLER_NAckCbs_ARDrone3CameraOrientationInit
                0x00000000000664b0        0x7 /home/jose/catkin_ws/build/parrot_arsdk/arsdk/src/ARSDKBuildUtils/out/arsdk-native/build/libARController/obj/Sources/ARCONTROLLER_NAckCbs.c.o
                0x00000000000664b0                ARCONTROLLER_NAckCbs_ARDrone3CameraOrientationInit
 *fill*         0x00000000000664b7        0x9 
 .text.ARCONTROLLER_NAckCbs_ARDrone3CameraOrientationDeInit
                0x00000000000664c0        0x7 /home/jose/catkin_ws/build/parrot_arsdk/arsdk/src/ARSDKBuildUtils/out/arsdk-native/build/libARController/obj/Sources/ARCONTROLLER_NAckCbs.c.o
                0x00000000000664c0                ARCONTROLLER_NAckCbs_ARDrone3CameraOrientationDeInit
 *fill*         0x00000000000664c7        0x9 
 .text.ARCONTROLLER_NAckCbs_ARDrone3CameraOrientationChanged
                0x00000000000664d0       0x61 /home/jose/catkin_ws/build/parrot_arsdk/arsdk/src/ARSDKBuildUtils/out/arsdk-native/build/libARController/obj/Sources/ARCONTROLLER_NAckCbs.c.o
                0x00000000000664d0                ARCONTROLLER_NAckCbs_ARDrone3CameraOrientationChanged
 *fill*         0x0000000000066531        0xf 
 .text.ARCONTROLLER_NAckCbs_ARDrone3CameraOrientationMustBeSent
                0x0000000000066540       0x5b /home/jose/catkin_ws/build/parrot_arsdk/arsdk/src/ARSDKBuildUtils/out/arsdk-native/build/libARController/obj/Sources/ARCONTROLLER_NAckCbs.c.o
                0x0000000000066540                ARCONTROLLER_NAckCbs_ARDrone3CameraOrientationMustBeSent
 *fill*         0x000000000006659b        0x5 
 .text.ARCONTROLLER_NAckCbs_ARDrone3CameraOrientationV2Init
                0x00000000000665a0       0x94 /home/jose/catkin_ws/build/parrot_arsdk/arsdk/src/ARSDKBuildUtils/out/arsdk-native/build/libARController/obj/Sources/ARCONTROLLER_NAckCbs.c.o
                0x00000000000665a0                ARCONTROLLER_NAckCbs_ARDrone3CameraOrientationV2Init
 *fill*         0x0000000000066634        0xc 
 .text.ARCONTROLLER_NAckCbs_ARDrone3CameraOrientationV2DeInit
                0x0000000000066640       0x9d /home/jose/catkin_ws/build/parrot_arsdk/arsdk/src/ARSDKBuildUtils/out/arsdk-native/build/libARController/obj/Sources/ARCONTROLLER_NAckCbs.c.o
                0x0000000000066640                ARCONTROLLER_NAckCbs_ARDrone3CameraOrientationV2DeInit
 *fill*         0x00000000000666dd        0x3 
 .text.ARCONTROLLER_NAckCbs_ARDrone3CameraOrientationV2Changed
                0x00000000000666e0       0x57 /home/jose/catkin_ws/build/parrot_arsdk/arsdk/src/ARSDKBuildUtils/out/arsdk-native/build/libARController/obj/Sources/ARCONTROLLER_NAckCbs.c.o
                0x00000000000666e0                ARCONTROLLER_NAckCbs_ARDrone3CameraOrientationV2Changed
 *fill*         0x0000000000066737        0x9 
 .text.ARCONTROLLER_NAckCbs_ARDrone3CameraOrientationV2MustBeSent
                0x0000000000066740       0x5b /home/jose/catkin_ws/build/parrot_arsdk/arsdk/src/ARSDKBuildUtils/out/arsdk-native/build/libARController/obj/Sources/ARCONTROLLER_NAckCbs.c.o
                0x0000000000066740                ARCONTROLLER_NAckCbs_ARDrone3CameraOrientationV2MustBeSent
 *fill*         0x000000000006679b        0x5 
 .text.ARCONTROLLER_NAckCbs_ARDrone3CameraVelocityInit
                0x00000000000667a0       0x59 /home/jose/catkin_ws/build/parrot_arsdk/arsdk/src/ARSDKBuildUtils/out/arsdk-native/build/libARController/obj/Sources/ARCONTROLLER_NAckCbs.c.o
                0x00000000000667a0                ARCONTROLLER_NAckCbs_ARDrone3CameraVelocityInit
 *fill*         0x00000000000667f9        0x7 
 .text.ARCONTROLLER_NAckCbs_ARDrone3CameraVelocityDeInit
                0x0000000000066800       0x55 /home/jose/catkin_ws/build/parrot_arsdk/arsdk/src/ARSDKBuildUtils/out/arsdk-native/build/libARController/obj/Sources/ARCONTROLLER_NAckCbs.c.o
                0x0000000000066800                ARCONTROLLER_NAckCbs_ARDrone3CameraVelocityDeInit
 *fill*         0x0000000000066855        0xb 
 .text.ARCONTROLLER_NAckCbs_ARDrone3CameraVelocityChanged
                0x0000000000066860       0x4c /home/jose/catkin_ws/build/parrot_arsdk/arsdk/src/ARSDKBuildUtils/out/arsdk-native/build/libARController/obj/Sources/ARCONTROLLER_NAckCbs.c.o
                0x0000000000066860                ARCONTROLLER_NAckCbs_ARDrone3CameraVelocityChanged
 *fill*         0x00000000000668ac        0x4 
 .text.ARCONTROLLER_NAckCbs_ARDrone3CameraVelocityMustBeSent
                0x00000000000668b0       0x54 /home/jose/catkin_ws/build/parrot_arsdk/arsdk/src/ARSDKBuildUtils/out/arsdk-native/build/libARController/obj/Sources/ARCONTROLLER_NAckCbs.c.o
                0x00000000000668b0                ARCONTROLLER_NAckCbs_ARDrone3CameraVelocityMustBeSent
 *fill*         0x0000000000066904        0xc 
 .text.ARCONTROLLER_NAckCbs_ControllerInfoGpsInit
                0x0000000000066910       0x4c /home/jose/catkin_ws/build/parrot_arsdk/arsdk/src/ARSDKBuildUtils/out/arsdk-native/build/libARController/obj/Sources/ARCONTROLLER_NAckCbs.c.o
                0x0000000000066910                ARCONTROLLER_NAckCbs_ControllerInfoGpsInit
 *fill*         0x000000000006695c        0x4 
 .text.ARCONTROLLER_NAckCbs_ControllerInfoGpsDeInit
                0x0000000000066960       0x4d /home/jose/catkin_ws/build/parrot_arsdk/arsdk/src/ARSDKBuildUtils/out/arsdk-native/build/libARController/obj/Sources/ARCONTROLLER_NAckCbs.c.o
                0x0000000000066960                ARCONTROLLER_NAckCbs_ControllerInfoGpsDeInit
 *fill*         0x00000000000669ad        0x3 
 .text.ARCONTROLLER_NAckCbs_ControllerInfoGpsChanged
                0x00000000000669b0       0x28 /home/jose/catkin_ws/build/parrot_arsdk/arsdk/src/ARSDKBuildUtils/out/arsdk-native/build/libARController/obj/Sources/ARCONTROLLER_NAckCbs.c.o
                0x00000000000669b0                ARCONTROLLER_NAckCbs_ControllerInfoGpsChanged
 *fill*         0x00000000000669d8        0x8 
 .text.ARCONTROLLER_NAckCbs_ControllerInfoGpsMustBeSent
                0x00000000000669e0       0x33 /home/jose/catkin_ws/build/parrot_arsdk/arsdk/src/ARSDKBuildUtils/out/arsdk-native/build/libARController/obj/Sources/ARCONTROLLER_NAckCbs.c.o
                0x00000000000669e0                ARCONTROLLER_NAckCbs_ControllerInfoGpsMustBeSent
 *fill*         0x0000000000066a13        0xd 
 .text.ARCONTROLLER_NAckCbs_ControllerInfoBarometerInit
                0x0000000000066a20       0x4c /home/jose/catkin_ws/build/parrot_arsdk/arsdk/src/ARSDKBuildUtils/out/arsdk-native/build/libARController/obj/Sources/ARCONTROLLER_NAckCbs.c.o
                0x0000000000066a20                ARCONTROLLER_NAckCbs_ControllerInfoBarometerInit
 *fill*         0x0000000000066a6c        0x4 
 .text.ARCONTROLLER_NAckCbs_ControllerInfoBarometerDeInit
                0x0000000000066a70       0x4d /home/jose/catkin_ws/build/parrot_arsdk/arsdk/src/ARSDKBuildUtils/out/arsdk-native/build/libARController/obj/Sources/ARCONTROLLER_NAckCbs.c.o
                0x0000000000066a70                ARCONTROLLER_NAckCbs_ControllerInfoBarometerDeInit
 *fill*         0x0000000000066abd        0x3 
 .text.ARCONTROLLER_NAckCbs_ControllerInfoBarometerChanged
                0x0000000000066ac0       0x28 /home/jose/catkin_ws/build/parrot_arsdk/arsdk/src/ARSDKBuildUtils/out/arsdk-native/build/libARController/obj/Sources/ARCONTROLLER_NAckCbs.c.o
                0x0000000000066ac0                ARCONTROLLER_NAckCbs_ControllerInfoBarometerChanged
 *fill*         0x0000000000066ae8        0x8 
 .text.ARCONTROLLER_NAckCbs_ControllerInfoBarometerMustBeSent
                0x0000000000066af0       0x33 /home/jose/catkin_ws/build/parrot_arsdk/arsdk/src/ARSDKBuildUtils/out/arsdk-native/build/libARController/obj/Sources/ARCONTROLLER_NAckCbs.c.o
                0x0000000000066af0                ARCONTROLLER_NAckCbs_ControllerInfoBarometerMustBeSent
 *fill*         0x0000000000066b23        0xd 
 .text.ARCONTROLLER_Device_ReceiveJsonCallback
                0x0000000000066b30       0x26 /home/jose/catkin_ws/build/parrot_arsdk/arsdk/src/ARSDKBuildUtils/out/arsdk-native/build/libARController/obj/gen/Sources/ARCONTROLLER_Device.c.o
                0x0000000000066b30                ARCONTROLLER_Device_ReceiveJsonCallback
 *fill*         0x0000000000066b56        0xa 
 .text.ARCONTROLLER_Device_PompLoopThread
                0x0000000000066b60       0x53 /home/jose/catkin_ws/build/parrot_arsdk/arsdk/src/ARSDKBuildUtils/out/arsdk-native/build/libARController/obj/gen/Sources/ARCONTROLLER_Device.c.o
 *fill*         0x0000000000066bb3        0xd 
 .text.ARCONTROLLER_Device_SendJsonCallback
                0x0000000000066bc0       0x66 /home/jose/catkin_ws/build/parrot_arsdk/arsdk/src/ARSDKBuildUtils/out/arsdk-native/build/libARController/obj/gen/Sources/ARCONTROLLER_Device.c.o
                0x0000000000066bc0                ARCONTROLLER_Device_SendJsonCallback
 *fill*         0x0000000000066c26        0xa 
 .text.ARCONTROLLER_Device_ControllerLooperThread
                0x0000000000066c30      0x433 /home/jose/catkin_ws/build/parrot_arsdk/arsdk/src/ARSDKBuildUtils/out/arsdk-native/build/libARController/obj/gen/Sources/ARCONTROLLER_Device.c.o
                0x0000000000066c30                ARCONTROLLER_Device_ControllerLooperThread
 *fill*         0x0000000000067063        0xd 
 .text.ARCONTROLLER_Device_RegisterCallbacks
                0x0000000000067070     0x2c7a /home/jose/catkin_ws/build/parrot_arsdk/arsdk/src/ARSDKBuildUtils/out/arsdk-native/build/libARController/obj/gen/Sources/ARCONTROLLER_Device.c.o
                0x0000000000067070                ARCONTROLLER_Device_RegisterCallbacks
 *fill*         0x0000000000069cea        0x6 
 .text.ARCONTROLLER_Device_UnregisterCallbacks
                0x0000000000069cf0     0x1fed /home/jose/catkin_ws/build/parrot_arsdk/arsdk/src/ARSDKBuildUtils/out/arsdk-native/build/libARController/obj/gen/Sources/ARCONTROLLER_Device.c.o
                0x0000000000069cf0                ARCONTROLLER_Device_UnregisterCallbacks
 *fill*         0x000000000006bcdd        0x3 
 .text.ARCONTROLLER_Device_SetVideoStreamCallbacks
                0x000000000006bce0       0xa0 /home/jose/catkin_ws/build/parrot_arsdk/arsdk/src/ARSDKBuildUtils/out/arsdk-native/build/libARController/obj/gen/Sources/ARCONTROLLER_Device.c.o
                0x000000000006bce0                ARCONTROLLER_Device_SetVideoStreamCallbacks
 .text.ARCONTROLLER_Device_SetVideoStreamMP4Compliant
                0x000000000006bd80       0x68 /home/jose/catkin_ws/build/parrot_arsdk/arsdk/src/ARSDKBuildUtils/out/arsdk-native/build/libARController/obj/gen/Sources/ARCONTROLLER_Device.c.o
                0x000000000006bd80                ARCONTROLLER_Device_SetVideoStreamMP4Compliant
 *fill*         0x000000000006bde8        0x8 
 .text.ARCONTROLLER_Device_SetAudioStreamCallbacks
                0x000000000006bdf0       0xa0 /home/jose/catkin_ws/build/parrot_arsdk/arsdk/src/ARSDKBuildUtils/out/arsdk-native/build/libARController/obj/gen/Sources/ARCONTROLLER_Device.c.o
                0x000000000006bdf0                ARCONTROLLER_Device_SetAudioStreamCallbacks
 .text.ARCONTROLLER_Device_AddCommandReceivedCallback
                0x000000000006be90       0x77 /home/jose/catkin_ws/build/parrot_arsdk/arsdk/src/ARSDKBuildUtils/out/arsdk-native/build/libARController/obj/gen/Sources/ARCONTROLLER_Device.c.o
                0x000000000006be90                ARCONTROLLER_Device_AddCommandReceivedCallback
 *fill*         0x000000000006bf07        0x9 
 .text.ARCONTROLLER_Device_RemoveCommandReceivedCallback
                0x000000000006bf10       0x77 /home/jose/catkin_ws/build/parrot_arsdk/arsdk/src/ARSDKBuildUtils/out/arsdk-native/build/libARController/obj/gen/Sources/ARCONTROLLER_Device.c.o
                0x000000000006bf10                ARCONTROLLER_Device_RemoveCommandReceivedCallback
 *fill*         0x000000000006bf87        0x9 
 .text.ARCONTROLLER_Device_GetCommandElements
                0x000000000006bf90      0x3be /home/jose/catkin_ws/build/parrot_arsdk/arsdk/src/ARSDKBuildUtils/out/arsdk-native/build/libARController/obj/gen/Sources/ARCONTROLLER_Device.c.o
                0x000000000006bf90                ARCONTROLLER_Device_GetCommandElements
 *fill*         0x000000000006c34e        0x2 
 .text.ARCONTROLLER_Device_SendStreamFrame
                0x000000000006c350       0x94 /home/jose/catkin_ws/build/parrot_arsdk/arsdk/src/ARSDKBuildUtils/out/arsdk-native/build/libARController/obj/gen/Sources/ARCONTROLLER_Device.c.o
                0x000000000006c350                ARCONTROLLER_Device_SendStreamFrame
 *fill*         0x000000000006c3e4        0xc 
 .text.ARCONTROLLER_Device_GetState
                0x000000000006c3f0       0x6d /home/jose/catkin_ws/build/parrot_arsdk/arsdk/src/ARSDKBuildUtils/out/arsdk-native/build/libARController/obj/gen/Sources/ARCONTROLLER_Device.c.o
                0x000000000006c3f0                ARCONTROLLER_Device_GetState
 *fill*         0x000000000006c45d        0x3 
 .text.ARCONTROLLER_Device_GetExtensionState
                0x000000000006c460       0x6d /home/jose/catkin_ws/build/parrot_arsdk/arsdk/src/ARSDKBuildUtils/out/arsdk-native/build/libARController/obj/gen/Sources/ARCONTROLLER_Device.c.o
                0x000000000006c460                ARCONTROLLER_Device_GetExtensionState
 *fill*         0x000000000006c4cd        0x3 
 .text.ARCONTROLLER_Device_GetExtensionName
                0x000000000006c4d0       0xa8 /home/jose/catkin_ws/build/parrot_arsdk/arsdk/src/ARSDKBuildUtils/out/arsdk-native/build/libARController/obj/gen/Sources/ARCONTROLLER_Device.c.o
                0x000000000006c4d0                ARCONTROLLER_Device_GetExtensionName
 *fill*         0x000000000006c578        0x8 
 .text.ARCONTROLLER_Device_GetExtensionProduct
                0x000000000006c580       0x6d /home/jose/catkin_ws/build/parrot_arsdk/arsdk/src/ARSDKBuildUtils/out/arsdk-native/build/libARController/obj/gen/Sources/ARCONTROLLER_Device.c.o
                0x000000000006c580                ARCONTROLLER_Device_GetExtensionProduct
 *fill*         0x000000000006c5ed        0x3 
 .text.ARCONTROLLER_Device_HasOutputVideoStream
                0x000000000006c5f0       0x68 /home/jose/catkin_ws/build/parrot_arsdk/arsdk/src/ARSDKBuildUtils/out/arsdk-native/build/libARController/obj/gen/Sources/ARCONTROLLER_Device.c.o
                0x000000000006c5f0                ARCONTROLLER_Device_HasOutputVideoStream
 *fill*         0x000000000006c658        0x8 
 .text.ARCONTROLLER_Device_HasOutputAudioStream
                0x000000000006c660       0x57 /home/jose/catkin_ws/build/parrot_arsdk/arsdk/src/ARSDKBuildUtils/out/arsdk-native/build/libARController/obj/gen/Sources/ARCONTROLLER_Device.c.o
                0x000000000006c660                ARCONTROLLER_Device_HasOutputAudioStream
 *fill*         0x000000000006c6b7        0x9 
 .text.ARCONTROLLER_Device_HasInputAudioStream
                0x000000000006c6c0       0x57 /home/jose/catkin_ws/build/parrot_arsdk/arsdk/src/ARSDKBuildUtils/out/arsdk-native/build/libARController/obj/gen/Sources/ARCONTROLLER_Device.c.o
                0x000000000006c6c0                ARCONTROLLER_Device_HasInputAudioStream
 *fill*         0x000000000006c717        0x9 
 .text.ARCONTROLLER_Device_StartVideoStream
                0x000000000006c720      0x2fa /home/jose/catkin_ws/build/parrot_arsdk/arsdk/src/ARSDKBuildUtils/out/arsdk-native/build/libARController/obj/gen/Sources/ARCONTROLLER_Device.c.o
                0x000000000006c720                ARCONTROLLER_Device_StartVideoStream
 *fill*         0x000000000006ca1a        0x6 
 .text.ARCONTROLLER_Device_StopVideoStream
                0x000000000006ca20      0x139 /home/jose/catkin_ws/build/parrot_arsdk/arsdk/src/ARSDKBuildUtils/out/arsdk-native/build/libARController/obj/gen/Sources/ARCONTROLLER_Device.c.o
                0x000000000006ca20                ARCONTROLLER_Device_StopVideoStream
 *fill*         0x000000000006cb59        0x7 
 .text.ARCONTROLLER_Device_StopNetwork
                0x000000000006cb60      0x67b /home/jose/catkin_ws/build/parrot_arsdk/arsdk/src/ARSDKBuildUtils/out/arsdk-native/build/libARController/obj/gen/Sources/ARCONTROLLER_Device.c.o
                0x000000000006cb60                ARCONTROLLER_Device_StopNetwork
 *fill*         0x000000000006d1db        0x5 
 .text.ARCONTROLLER_Device_SetNetworkControllerToFeatures
                0x000000000006d1e0      0x92d /home/jose/catkin_ws/build/parrot_arsdk/arsdk/src/ARSDKBuildUtils/out/arsdk-native/build/libARController/obj/gen/Sources/ARCONTROLLER_Device.c.o
                0x000000000006d1e0                ARCONTROLLER_Device_SetNetworkControllerToFeatures
 *fill*         0x000000000006db0d        0x3 
 .text.ARCONTROLLER_Device_StartNetwork
                0x000000000006db10      0x7a2 /home/jose/catkin_ws/build/parrot_arsdk/arsdk/src/ARSDKBuildUtils/out/arsdk-native/build/libARController/obj/gen/Sources/ARCONTROLLER_Device.c.o
                0x000000000006db10                ARCONTROLLER_Device_StartNetwork
 *fill*         0x000000000006e2b2        0xe 
 .text.ARCONTROLLER_Device_StartControllerLooperThread
                0x000000000006e2c0       0x73 /home/jose/catkin_ws/build/parrot_arsdk/arsdk/src/ARSDKBuildUtils/out/arsdk-native/build/libARController/obj/gen/Sources/ARCONTROLLER_Device.c.o
                0x000000000006e2c0                ARCONTROLLER_Device_StartControllerLooperThread
 *fill*         0x000000000006e333        0xd 
 .text.ARCONTROLLER_Device_StopControllerLooperThread
                0x000000000006e340       0x70 /home/jose/catkin_ws/build/parrot_arsdk/arsdk/src/ARSDKBuildUtils/out/arsdk-native/build/libARController/obj/gen/Sources/ARCONTROLLER_Device.c.o
                0x000000000006e340                ARCONTROLLER_Device_StopControllerLooperThread
 .text.ARCONTROLLER_Device_SetInitialDate
                0x000000000006e3b0      0x15a /home/jose/catkin_ws/build/parrot_arsdk/arsdk/src/ARSDKBuildUtils/out/arsdk-native/build/libARController/obj/gen/Sources/ARCONTROLLER_Device.c.o
                0x000000000006e3b0                ARCONTROLLER_Device_SetInitialDate
 *fill*         0x000000000006e50a        0x6 
 .text.ARCONTROLLER_Device_GetInitialSettings
                0x000000000006e510       0x75 /home/jose/catkin_ws/build/parrot_arsdk/arsdk/src/ARSDKBuildUtils/out/arsdk-native/build/libARController/obj/gen/Sources/ARCONTROLLER_Device.c.o
                0x000000000006e510                ARCONTROLLER_Device_GetInitialSettings
 *fill*         0x000000000006e585        0xb 
 .text.ARCONTROLLER_Device_GetInitialStates
                0x000000000006e590       0x75 /home/jose/catkin_ws/build/parrot_arsdk/arsdk/src/ARSDKBuildUtils/out/arsdk-native/build/libARController/obj/gen/Sources/ARCONTROLLER_Device.c.o
                0x000000000006e590                ARCONTROLLER_Device_GetInitialStates
 *fill*         0x000000000006e605        0xb 
 .text.ARCONTROLLER_Device_OnStart
                0x000000000006e610       0xa9 /home/jose/catkin_ws/build/parrot_arsdk/arsdk/src/ARSDKBuildUtils/out/arsdk-native/build/libARController/obj/gen/Sources/ARCONTROLLER_Device.c.o
                0x000000000006e610                ARCONTROLLER_Device_OnStart
 *fill*         0x000000000006e6b9        0x7 
 .text.ARCONTROLLER_Device_OnAllStatesEnd
                0x000000000006e6c0       0x29 /home/jose/catkin_ws/build/parrot_arsdk/arsdk/src/ARSDKBuildUtils/out/arsdk-native/build/libARController/obj/gen/Sources/ARCONTROLLER_Device.c.o
                0x000000000006e6c0                ARCONTROLLER_Device_OnAllStatesEnd
 *fill*         0x000000000006e6e9        0x7 
 .text.ARCONTROLLER_Device_OnAllSettingsEnd
                0x000000000006e6f0        0x9 /home/jose/catkin_ws/build/parrot_arsdk/arsdk/src/ARSDKBuildUtils/out/arsdk-native/build/libARController/obj/gen/Sources/ARCONTROLLER_Device.c.o
                0x000000000006e6f0                ARCONTROLLER_Device_OnAllSettingsEnd
 *fill*         0x000000000006e6f9        0x7 
 .text.ARCONTROLLER_Device_OnARDrone3VideoEnableChanged
                0x000000000006e700      0x6b1 /home/jose/catkin_ws/build/parrot_arsdk/arsdk/src/ARSDKBuildUtils/out/arsdk-native/build/libARController/obj/gen/Sources/ARCONTROLLER_Device.c.o
                0x000000000006e700                ARCONTROLLER_Device_OnARDrone3VideoEnableChanged
 *fill*         0x000000000006edb1        0xf 
 .text.ARCONTROLLER_Device_OnJumpingSumoVideoEnableChanged
                0x000000000006edc0      0x6b1 /home/jose/catkin_ws/build/parrot_arsdk/arsdk/src/ARSDKBuildUtils/out/arsdk-native/build/libARController/obj/gen/Sources/ARCONTROLLER_Device.c.o
                0x000000000006edc0                ARCONTROLLER_Device_OnJumpingSumoVideoEnableChanged
 *fill*         0x000000000006f471        0xf 
 .text.ARCONTROLLER_Device_OnPowerUpVideoEnableChanged
                0x000000000006f480      0x6b1 /home/jose/catkin_ws/build/parrot_arsdk/arsdk/src/ARSDKBuildUtils/out/arsdk-native/build/libARController/obj/gen/Sources/ARCONTROLLER_Device.c.o
                0x000000000006f480                ARCONTROLLER_Device_OnPowerUpVideoEnableChanged
 *fill*         0x000000000006fb31        0xf 
 .text.ARCONTROLLER_Device_OnAudioStreamStateChanged
                0x000000000006fb40      0x66e /home/jose/catkin_ws/build/parrot_arsdk/arsdk/src/ARSDKBuildUtils/out/arsdk-native/build/libARController/obj/gen/Sources/ARCONTROLLER_Device.c.o
                0x000000000006fb40                ARCONTROLLER_Device_OnAudioStreamStateChanged
 *fill*         0x00000000000701ae        0x2 
 .text.ARCONTROLLER_Device_AddCallbackInList
                0x00000000000701b0       0x75 /home/jose/catkin_ws/build/parrot_arsdk/arsdk/src/ARSDKBuildUtils/out/arsdk-native/build/libARController/obj/gen/Sources/ARCONTROLLER_Device.c.o
                0x00000000000701b0                ARCONTROLLER_Device_AddCallbackInList
 *fill*         0x0000000000070225        0xb 
 .text.ARCONTROLLER_Device_AddStateChangedCallback
                0x0000000000070230       0x77 /home/jose/catkin_ws/build/parrot_arsdk/arsdk/src/ARSDKBuildUtils/out/arsdk-native/build/libARController/obj/gen/Sources/ARCONTROLLER_Device.c.o
                0x0000000000070230                ARCONTROLLER_Device_AddStateChangedCallback
 *fill*         0x00000000000702a7        0x9 
 .text.ARCONTROLLER_Device_AddExtensionCallbackInList
                0x00000000000702b0       0x75 /home/jose/catkin_ws/build/parrot_arsdk/arsdk/src/ARSDKBuildUtils/out/arsdk-native/build/libARController/obj/gen/Sources/ARCONTROLLER_Device.c.o
                0x00000000000702b0                ARCONTROLLER_Device_AddExtensionCallbackInList
 *fill*         0x0000000000070325        0xb 
 .text.ARCONTROLLER_Device_AddExtensionStateChangedCallback
                0x0000000000070330       0x77 /home/jose/catkin_ws/build/parrot_arsdk/arsdk/src/ARSDKBuildUtils/out/arsdk-native/build/libARController/obj/gen/Sources/ARCONTROLLER_Device.c.o
                0x0000000000070330                ARCONTROLLER_Device_AddExtensionStateChangedCallback
 *fill*         0x00000000000703a7        0x9 
 .text.ARCONTROLLER_Device_RemoveCallbackFromList
                0x00000000000703b0       0x9a /home/jose/catkin_ws/build/parrot_arsdk/arsdk/src/ARSDKBuildUtils/out/arsdk-native/build/libARController/obj/gen/Sources/ARCONTROLLER_Device.c.o
                0x00000000000703b0                ARCONTROLLER_Device_RemoveCallbackFromList
 *fill*         0x000000000007044a        0x6 
 .text.ARCONTROLLER_Device_RemoveStateChangedCallback
                0x0000000000070450       0x77 /home/jose/catkin_ws/build/parrot_arsdk/arsdk/src/ARSDKBuildUtils/out/arsdk-native/build/libARController/obj/gen/Sources/ARCONTROLLER_Device.c.o
                0x0000000000070450                ARCONTROLLER_Device_RemoveStateChangedCallback
 *fill*         0x00000000000704c7        0x9 
 .text.ARCONTROLLER_Device_RemoveExtensionCallbackFromList
                0x00000000000704d0       0x9a /home/jose/catkin_ws/build/parrot_arsdk/arsdk/src/ARSDKBuildUtils/out/arsdk-native/build/libARController/obj/gen/Sources/ARCONTROLLER_Device.c.o
                0x00000000000704d0                ARCONTROLLER_Device_RemoveExtensionCallbackFromList
 *fill*         0x000000000007056a        0x6 
 .text.ARCONTROLLER_Device_DeleteCallbackList
                0x0000000000070570       0x79 /home/jose/catkin_ws/build/parrot_arsdk/arsdk/src/ARSDKBuildUtils/out/arsdk-native/build/libARController/obj/gen/Sources/ARCONTROLLER_Device.c.o
                0x0000000000070570                ARCONTROLLER_Device_DeleteCallbackList
 *fill*         0x00000000000705e9        0x7 
 .text.ARCONTROLLER_Device_DeleteExtensionCallbackList
                0x00000000000705f0       0x79 /home/jose/catkin_ws/build/parrot_arsdk/arsdk/src/ARSDKBuildUtils/out/arsdk-native/build/libARController/obj/gen/Sources/ARCONTROLLER_Device.c.o
                0x00000000000705f0                ARCONTROLLER_Device_DeleteExtensionCallbackList
 *fill*         0x0000000000070669        0x7 
 .text.ARCONTROLLER_Device_DeleteExtension
                0x0000000000070670      0x2f0 /home/jose/catkin_ws/build/parrot_arsdk/arsdk/src/ARSDKBuildUtils/out/arsdk-native/build/libARController/obj/gen/Sources/ARCONTROLLER_Device.c.o
                0x0000000000070670                ARCONTROLLER_Device_DeleteExtension
 .text.ARCONTROLLER_Device_Delete
                0x0000000000070960      0x37b /home/jose/catkin_ws/build/parrot_arsdk/arsdk/src/ARSDKBuildUtils/out/arsdk-native/build/libARController/obj/gen/Sources/ARCONTROLLER_Device.c.o
                0x0000000000070960                ARCONTROLLER_Device_Delete
 *fill*         0x0000000000070cdb        0x5 
 .text.ARCONTROLLER_Device_New
                0x0000000000070ce0      0x99f /home/jose/catkin_ws/build/parrot_arsdk/arsdk/src/ARSDKBuildUtils/out/arsdk-native/build/libARController/obj/gen/Sources/ARCONTROLLER_Device.c.o
                0x0000000000070ce0                ARCONTROLLER_Device_New
 *fill*         0x000000000007167f        0x1 
 .text.ARCONTROLLER_Device_NotifyAllCallbackInList
                0x0000000000071680       0x3c /home/jose/catkin_ws/build/parrot_arsdk/arsdk/src/ARSDKBuildUtils/out/arsdk-native/build/libARController/obj/gen/Sources/ARCONTROLLER_Device.c.o
                0x0000000000071680                ARCONTROLLER_Device_NotifyAllCallbackInList
 *fill*         0x00000000000716bc        0x4 
 .text.ARCONTROLLER_Device_NotifyAllExtensionCallbackInList
                0x00000000000716c0       0x4e /home/jose/catkin_ws/build/parrot_arsdk/arsdk/src/ARSDKBuildUtils/out/arsdk-native/build/libARController/obj/gen/Sources/ARCONTROLLER_Device.c.o
                0x00000000000716c0                ARCONTROLLER_Device_NotifyAllExtensionCallbackInList
 *fill*         0x000000000007170e        0x2 
 .text.ARCONTROLLER_Device_SetState
                0x0000000000071710       0x5c /home/jose/catkin_ws/build/parrot_arsdk/arsdk/src/ARSDKBuildUtils/out/arsdk-native/build/libARController/obj/gen/Sources/ARCONTROLLER_Device.c.o
                0x0000000000071710                ARCONTROLLER_Device_SetState
 *fill*         0x000000000007176c        0x4 
 .text.ARCONTROLLER_Device_Start
                0x0000000000071770       0xe6 /home/jose/catkin_ws/build/parrot_arsdk/arsdk/src/ARSDKBuildUtils/out/arsdk-native/build/libARController/obj/gen/Sources/ARCONTROLLER_Device.c.o
                0x0000000000071770                ARCONTROLLER_Device_Start
 *fill*         0x0000000000071856        0xa 
 .text.ARCONTROLLER_Device_Stop
                0x0000000000071860      0x16c /home/jose/catkin_ws/build/parrot_arsdk/arsdk/src/ARSDKBuildUtils/out/arsdk-native/build/libARController/obj/gen/Sources/ARCONTROLLER_Device.c.o
                0x0000000000071860                ARCONTROLLER_Device_Stop
 *fill*         0x00000000000719cc        0x4 
 .text.ARCONTROLLER_Device_OnDisconnectCallback
                0x00000000000719d0       0x21 /home/jose/catkin_ws/build/parrot_arsdk/arsdk/src/ARSDKBuildUtils/out/arsdk-native/build/libARController/obj/gen/Sources/ARCONTROLLER_Device.c.o
                0x00000000000719d0                ARCONTROLLER_Device_OnDisconnectCallback
 *fill*         0x00000000000719f1        0xf 
 .text.ARCONTROLLER_Device_StopRun
                0x0000000000071a00      0x13f /home/jose/catkin_ws/build/parrot_arsdk/arsdk/src/ARSDKBuildUtils/out/arsdk-native/build/libARController/obj/gen/Sources/ARCONTROLLER_Device.c.o
                0x0000000000071a00                ARCONTROLLER_Device_StopRun
 *fill*         0x0000000000071b3f        0x1 
 .text.ARCONTROLLER_Device_StartRun
                0x0000000000071b40      0x1db /home/jose/catkin_ws/build/parrot_arsdk/arsdk/src/ARSDKBuildUtils/out/arsdk-native/build/libARController/obj/gen/Sources/ARCONTROLLER_Device.c.o
                0x0000000000071b40                ARCONTROLLER_Device_StartRun
 *fill*         0x0000000000071d1b        0x5 
 .text.ARCONTROLLER_Device_SetExtensionState
                0x0000000000071d20       0x67 /home/jose/catkin_ws/build/parrot_arsdk/arsdk/src/ARSDKBuildUtils/out/arsdk-native/build/libARController/obj/gen/Sources/ARCONTROLLER_Device.c.o
                0x0000000000071d20                ARCONTROLLER_Device_SetExtensionState
 *fill*         0x0000000000071d87        0x9 
 .text.ARCONTROLLER_Device_ExtensionStopRun
                0x0000000000071d90      0x796 /home/jose/catkin_ws/build/parrot_arsdk/arsdk/src/ARSDKBuildUtils/out/arsdk-native/build/libARController/obj/gen/Sources/ARCONTROLLER_Device.c.o
                0x0000000000071d90                ARCONTROLLER_Device_ExtensionStopRun
 *fill*         0x0000000000072526        0xa 
 .text.ARCONTROLLER_Device_OnSkyControllerConnectionChangedReceived
                0x0000000000072530      0xb2c /home/jose/catkin_ws/build/parrot_arsdk/arsdk/src/ARSDKBuildUtils/out/arsdk-native/build/libARController/obj/gen/Sources/ARCONTROLLER_Device.c.o
                0x0000000000072530                ARCONTROLLER_Device_OnSkyControllerConnectionChangedReceived
 *fill*         0x000000000007305c        0x4 
 .text.ARCONTROLLER_Device_DictionaryChangedCallback
                0x0000000000073060      0x131 /home/jose/catkin_ws/build/parrot_arsdk/arsdk/src/ARSDKBuildUtils/out/arsdk-native/build/libARController/obj/gen/Sources/ARCONTROLLER_Device.c.o
                0x0000000000073060                ARCONTROLLER_Device_DictionaryChangedCallback
 *fill*         0x0000000000073191        0xf 
 .text.ARCONTROLLER_Device_ExtensionStartRun
                0x00000000000731a0     0x295f /home/jose/catkin_ws/build/parrot_arsdk/arsdk/src/ARSDKBuildUtils/out/arsdk-native/build/libARController/obj/gen/Sources/ARCONTROLLER_Device.c.o
                0x00000000000731a0                ARCONTROLLER_Device_ExtensionStartRun
 *fill*         0x0000000000075aff        0x1 
 .text.ARCONTROLLER_DICTIONARY_Key_GetFeatureFromCommandKey
                0x0000000000075b00      0x127 /home/jose/catkin_ws/build/parrot_arsdk/arsdk/src/ARSDKBuildUtils/out/arsdk-native/build/libARController/obj/gen/Sources/ARCONTROLLER_DICTIONARY_Key.c.o
                0x0000000000075b00                ARCONTROLLER_DICTIONARY_Key_GetFeatureFromCommandKey
 *fill*         0x0000000000075c27        0x9 
 .text.ARCONTROLLER_Error_ToString
                0x0000000000075c30      0x290 /home/jose/catkin_ws/build/parrot_arsdk/arsdk/src/ARSDKBuildUtils/out/arsdk-native/build/libARController/obj/gen/Sources/ARCONTROLLER_Error.c.o
                0x0000000000075c30                ARCONTROLLER_Error_ToString
 .text.ARCONTROLLER_FEATURE_ARDrone3_SetPilotingPCMD
                0x0000000000075ec0       0x46 /home/jose/catkin_ws/build/parrot_arsdk/arsdk/src/ARSDKBuildUtils/out/arsdk-native/build/libARController/obj/gen/Sources/ARCONTROLLER_Feature.c.o
                0x0000000000075ec0                ARCONTROLLER_FEATURE_ARDrone3_SetPilotingPCMD
 *fill*         0x0000000000075f06        0xa 
 .text.ARCONTROLLER_FEATURE_ARDrone3_SetPilotingPCMDFlag
                0x0000000000075f10       0x2e /home/jose/catkin_ws/build/parrot_arsdk/arsdk/src/ARSDKBuildUtils/out/arsdk-native/build/libARController/obj/gen/Sources/ARCONTROLLER_Feature.c.o
                0x0000000000075f10                ARCONTROLLER_FEATURE_ARDrone3_SetPilotingPCMDFlag
 *fill*         0x0000000000075f3e        0x2 
 .text.ARCONTROLLER_FEATURE_ARDrone3_SetPilotingPCMDRoll
                0x0000000000075f40       0x2e /home/jose/catkin_ws/build/parrot_arsdk/arsdk/src/ARSDKBuildUtils/out/arsdk-native/build/libARController/obj/gen/Sources/ARCONTROLLER_Feature.c.o
                0x0000000000075f40                ARCONTROLLER_FEATURE_ARDrone3_SetPilotingPCMDRoll
 *fill*         0x0000000000075f6e        0x2 
 .text.ARCONTROLLER_FEATURE_ARDrone3_SetPilotingPCMDPitch
                0x0000000000075f70       0x2e /home/jose/catkin_ws/build/parrot_arsdk/arsdk/src/ARSDKBuildUtils/out/arsdk-native/build/libARController/obj/gen/Sources/ARCONTROLLER_Feature.c.o
                0x0000000000075f70                ARCONTROLLER_FEATURE_ARDrone3_SetPilotingPCMDPitch
 *fill*         0x0000000000075f9e        0x2 
 .text.ARCONTROLLER_FEATURE_ARDrone3_SetPilotingPCMDYaw
                0x0000000000075fa0       0x2e /home/jose/catkin_ws/build/parrot_arsdk/arsdk/src/ARSDKBuildUtils/out/arsdk-native/build/libARController/obj/gen/Sources/ARCONTROLLER_Feature.c.o
                0x0000000000075fa0                ARCONTROLLER_FEATURE_ARDrone3_SetPilotingPCMDYaw
 *fill*         0x0000000000075fce        0x2 
 .text.ARCONTROLLER_FEATURE_ARDrone3_SetPilotingPCMDGaz
                0x0000000000075fd0       0x2e /home/jose/catkin_ws/build/parrot_arsdk/arsdk/src/ARSDKBuildUtils/out/arsdk-native/build/libARController/obj/gen/Sources/ARCONTROLLER_Feature.c.o
                0x0000000000075fd0                ARCONTROLLER_FEATURE_ARDrone3_SetPilotingPCMDGaz
 *fill*         0x0000000000075ffe        0x2 
 .text.ARCONTROLLER_FEATURE_ARDrone3_SetPilotingPCMDTimestampAndSeqNum
                0x0000000000076000       0x2e /home/jose/catkin_ws/build/parrot_arsdk/arsdk/src/ARSDKBuildUtils/out/arsdk-native/build/libARController/obj/gen/Sources/ARCONTROLLER_Feature.c.o
                0x0000000000076000                ARCONTROLLER_FEATURE_ARDrone3_SetPilotingPCMDTimestampAndSeqNum
 *fill*         0x000000000007602e        0x2 
 .text.ARCONTROLLER_FEATURE_JumpingSumo_SetPilotingPCMD
                0x0000000000076030       0x36 /home/jose/catkin_ws/build/parrot_arsdk/arsdk/src/ARSDKBuildUtils/out/arsdk-native/build/libARController/obj/gen/Sources/ARCONTROLLER_Feature.c.o
                0x0000000000076030                ARCONTROLLER_FEATURE_JumpingSumo_SetPilotingPCMD
 *fill*         0x0000000000076066        0xa 
 .text.ARCONTROLLER_FEATURE_JumpingSumo_SetPilotingPCMDFlag
                0x0000000000076070       0x2e /home/jose/catkin_ws/build/parrot_arsdk/arsdk/src/ARSDKBuildUtils/out/arsdk-native/build/libARController/obj/gen/Sources/ARCONTROLLER_Feature.c.o
                0x0000000000076070                ARCONTROLLER_FEATURE_JumpingSumo_SetPilotingPCMDFlag
 *fill*         0x000000000007609e        0x2 
 .text.ARCONTROLLER_FEATURE_JumpingSumo_SetPilotingPCMDSpeed
                0x00000000000760a0       0x2e /home/jose/catkin_ws/build/parrot_arsdk/arsdk/src/ARSDKBuildUtils/out/arsdk-native/build/libARController/obj/gen/Sources/ARCONTROLLER_Feature.c.o
                0x00000000000760a0                ARCONTROLLER_FEATURE_JumpingSumo_SetPilotingPCMDSpeed
 *fill*         0x00000000000760ce        0x2 
 .text.ARCONTROLLER_FEATURE_JumpingSumo_SetPilotingPCMDTurn
                0x00000000000760d0       0x2e /home/jose/catkin_ws/build/parrot_arsdk/arsdk/src/ARSDKBuildUtils/out/arsdk-native/build/libARController/obj/gen/Sources/ARCONTROLLER_Feature.c.o
                0x00000000000760d0                ARCONTROLLER_FEATURE_JumpingSumo_SetPilotingPCMDTurn
 *fill*         0x00000000000760fe        0x2 
 .text.ARCONTROLLER_FEATURE_MiniDrone_SetPilotingPCMD
                0x0000000000076100       0x46 /home/jose/catkin_ws/build/parrot_arsdk/arsdk/src/ARSDKBuildUtils/out/arsdk-native/build/libARController/obj/gen/Sources/ARCONTROLLER_Feature.c.o
                0x0000000000076100                ARCONTROLLER_FEATURE_MiniDrone_SetPilotingPCMD
 *fill*         0x0000000000076146        0xa 
 .text.ARCONTROLLER_FEATURE_MiniDrone_SetPilotingPCMDFlag
                0x0000000000076150       0x2e /home/jose/catkin_ws/build/parrot_arsdk/arsdk/src/ARSDKBuildUtils/out/arsdk-native/build/libARController/obj/gen/Sources/ARCONTROLLER_Feature.c.o
                0x0000000000076150                ARCONTROLLER_FEATURE_MiniDrone_SetPilotingPCMDFlag
 *fill*         0x000000000007617e        0x2 
 .text.ARCONTROLLER_FEATURE_MiniDrone_SetPilotingPCMDRoll
                0x0000000000076180       0x2e /home/jose/catkin_ws/build/parrot_arsdk/arsdk/src/ARSDKBuildUtils/out/arsdk-native/build/libARController/obj/gen/Sources/ARCONTROLLER_Feature.c.o
                0x0000000000076180                ARCONTROLLER_FEATURE_MiniDrone_SetPilotingPCMDRoll
 *fill*         0x00000000000761ae        0x2 
 .text.ARCONTROLLER_FEATURE_MiniDrone_SetPilotingPCMDPitch
                0x00000000000761b0       0x2e /home/jose/catkin_ws/build/parrot_arsdk/arsdk/src/ARSDKBuildUtils/out/arsdk-native/build/libARController/obj/gen/Sources/ARCONTROLLER_Feature.c.o
                0x00000000000761b0                ARCONTROLLER_FEATURE_MiniDrone_SetPilotingPCMDPitch
 *fill*         0x00000000000761de        0x2 
 .text.ARCONTROLLER_FEATURE_MiniDrone_SetPilotingPCMDYaw
                0x00000000000761e0       0x2e /home/jose/catkin_ws/build/parrot_arsdk/arsdk/src/ARSDKBuildUtils/out/arsdk-native/build/libARController/obj/gen/Sources/ARCONTROLLER_Feature.c.o
                0x00000000000761e0                ARCONTROLLER_FEATURE_MiniDrone_SetPilotingPCMDYaw
 *fill*         0x000000000007620e        0x2 
 .text.ARCONTROLLER_FEATURE_MiniDrone_SetPilotingPCMDGaz
                0x0000000000076210       0x2e /home/jose/catkin_ws/build/parrot_arsdk/arsdk/src/ARSDKBuildUtils/out/arsdk-native/build/libARController/obj/gen/Sources/ARCONTROLLER_Feature.c.o
                0x0000000000076210                ARCONTROLLER_FEATURE_MiniDrone_SetPilotingPCMDGaz
 *fill*         0x000000000007623e        0x2 
 .text.ARCONTROLLER_FEATURE_MiniDrone_SetPilotingPCMDTimestamp
                0x0000000000076240       0x2e /home/jose/catkin_ws/build/parrot_arsdk/arsdk/src/ARSDKBuildUtils/out/arsdk-native/build/libARController/obj/gen/Sources/ARCONTROLLER_Feature.c.o
                0x0000000000076240                ARCONTROLLER_FEATURE_MiniDrone_SetPilotingPCMDTimestamp
 *fill*         0x000000000007626e        0x2 
 .text.ARCONTROLLER_FEATURE_Powerup_SetPilotingPCMD
                0x0000000000076270       0x36 /home/jose/catkin_ws/build/parrot_arsdk/arsdk/src/ARSDKBuildUtils/out/arsdk-native/build/libARController/obj/gen/Sources/ARCONTROLLER_Feature.c.o
                0x0000000000076270                ARCONTROLLER_FEATURE_Powerup_SetPilotingPCMD
 *fill*         0x00000000000762a6        0xa 
 .text.ARCONTROLLER_FEATURE_Powerup_SetPilotingPCMDFlag
                0x00000000000762b0       0x2e /home/jose/catkin_ws/build/parrot_arsdk/arsdk/src/ARSDKBuildUtils/out/arsdk-native/build/libARController/obj/gen/Sources/ARCONTROLLER_Feature.c.o
                0x00000000000762b0                ARCONTROLLER_FEATURE_Powerup_SetPilotingPCMDFlag
 *fill*         0x00000000000762de        0x2 
 .text.ARCONTROLLER_FEATURE_Powerup_SetPilotingPCMDThrottle
                0x00000000000762e0       0x2e /home/jose/catkin_ws/build/parrot_arsdk/arsdk/src/ARSDKBuildUtils/out/arsdk-native/build/libARController/obj/gen/Sources/ARCONTROLLER_Feature.c.o
                0x00000000000762e0                ARCONTROLLER_FEATURE_Powerup_SetPilotingPCMDThrottle
 *fill*         0x000000000007630e        0x2 
 .text.ARCONTROLLER_FEATURE_Powerup_SetPilotingPCMDRoll
                0x0000000000076310       0x2e /home/jose/catkin_ws/build/parrot_arsdk/arsdk/src/ARSDKBuildUtils/out/arsdk-native/build/libARController/obj/gen/Sources/ARCONTROLLER_Feature.c.o
                0x0000000000076310                ARCONTROLLER_FEATURE_Powerup_SetPilotingPCMDRoll
 *fill*         0x000000000007633e        0x2 
 .text.ARCONTROLLER_FEATURE_Generic_SendDefault
                0x0000000000076340       0xa4 /home/jose/catkin_ws/build/parrot_arsdk/arsdk/src/ARSDKBuildUtils/out/arsdk-native/build/libARController/obj/gen/Sources/ARCONTROLLER_Feature.c.o
                0x0000000000076340                ARCONTROLLER_FEATURE_Generic_SendDefault
 *fill*         0x00000000000763e4        0xc 
 .text.ARCONTROLLER_FEATURE_Generic_SendSetDroneSettings
                0x00000000000763f0       0xb4 /home/jose/catkin_ws/build/parrot_arsdk/arsdk/src/ARSDKBuildUtils/out/arsdk-native/build/libARController/obj/gen/Sources/ARCONTROLLER_Feature.c.o
                0x00000000000763f0                ARCONTROLLER_FEATURE_Generic_SendSetDroneSettings
 *fill*         0x00000000000764a4        0xc 
 .text.ARCONTROLLER_FEATURE_Generic_DroneSettingsChangedCallback
                0x00000000000764b0       0x16 /home/jose/catkin_ws/build/parrot_arsdk/arsdk/src/ARSDKBuildUtils/out/arsdk-native/build/libARController/obj/gen/Sources/ARCONTROLLER_Feature.c.o
                0x00000000000764b0                ARCONTROLLER_FEATURE_Generic_DroneSettingsChangedCallback
 *fill*         0x00000000000764c6        0xa 
 .text.ARCONTROLLER_FEATURE_Animation_SendCancel
                0x00000000000764d0       0xa4 /home/jose/catkin_ws/build/parrot_arsdk/arsdk/src/ARSDKBuildUtils/out/arsdk-native/build/libARController/obj/gen/Sources/ARCONTROLLER_Feature.c.o
                0x00000000000764d0                ARCONTROLLER_FEATURE_Animation_SendCancel
 *fill*         0x0000000000076574        0xc 
 .text.ARCONTROLLER_FEATURE_Animation_SendStartFlip
                0x0000000000076580       0xac /home/jose/catkin_ws/build/parrot_arsdk/arsdk/src/ARSDKBuildUtils/out/arsdk-native/build/libARController/obj/gen/Sources/ARCONTROLLER_Feature.c.o
                0x0000000000076580                ARCONTROLLER_FEATURE_Animation_SendStartFlip
 *fill*         0x000000000007662c        0x4 
 .text.ARCONTROLLER_FEATURE_Animation_SendStartHorizontalPanorama
                0x0000000000076630       0xac /home/jose/catkin_ws/build/parrot_arsdk/arsdk/src/ARSDKBuildUtils/out/arsdk-native/build/libARController/obj/gen/Sources/ARCONTROLLER_Feature.c.o
                0x0000000000076630                ARCONTROLLER_FEATURE_Animation_SendStartHorizontalPanorama
 *fill*         0x00000000000766dc        0x4 
 .text.ARCONTROLLER_FEATURE_Animation_SendStartDronie
                0x00000000000766e0       0xac /home/jose/catkin_ws/build/parrot_arsdk/arsdk/src/ARSDKBuildUtils/out/arsdk-native/build/libARController/obj/gen/Sources/ARCONTROLLER_Feature.c.o
                0x00000000000766e0                ARCONTROLLER_FEATURE_Animation_SendStartDronie
 *fill*         0x000000000007678c        0x4 
 .text.ARCONTROLLER_FEATURE_Animation_SendStartHorizontalReveal
                0x0000000000076790       0xac /home/jose/catkin_ws/build/parrot_arsdk/arsdk/src/ARSDKBuildUtils/out/arsdk-native/build/libARController/obj/gen/Sources/ARCONTROLLER_Feature.c.o
                0x0000000000076790                ARCONTROLLER_FEATURE_Animation_SendStartHorizontalReveal
 *fill*         0x000000000007683c        0x4 
 .text.ARCONTROLLER_FEATURE_Animation_SendStartVerticalReveal
                0x0000000000076840       0xac /home/jose/catkin_ws/build/parrot_arsdk/arsdk/src/ARSDKBuildUtils/out/arsdk-native/build/libARController/obj/gen/Sources/ARCONTROLLER_Feature.c.o
                0x0000000000076840                ARCONTROLLER_FEATURE_Animation_SendStartVerticalReveal
 *fill*         0x00000000000768ec        0x4 
 .text.ARCONTROLLER_FEATURE_Animation_SendStartSpiral
                0x00000000000768f0       0xac /home/jose/catkin_ws/build/parrot_arsdk/arsdk/src/ARSDKBuildUtils/out/arsdk-native/build/libARController/obj/gen/Sources/ARCONTROLLER_Feature.c.o
                0x00000000000768f0                ARCONTROLLER_FEATURE_Animation_SendStartSpiral
 *fill*         0x000000000007699c        0x4 
 .text.ARCONTROLLER_FEATURE_Animation_SendStartParabola
                0x00000000000769a0       0xac /home/jose/catkin_ws/build/parrot_arsdk/arsdk/src/ARSDKBuildUtils/out/arsdk-native/build/libARController/obj/gen/Sources/ARCONTROLLER_Feature.c.o
                0x00000000000769a0                ARCONTROLLER_FEATURE_Animation_SendStartParabola
 *fill*         0x0000000000076a4c        0x4 
 .text.ARCONTROLLER_FEATURE_Animation_SendStartCandle
                0x0000000000076a50       0xac /home/jose/catkin_ws/build/parrot_arsdk/arsdk/src/ARSDKBuildUtils/out/arsdk-native/build/libARController/obj/gen/Sources/ARCONTROLLER_Feature.c.o
                0x0000000000076a50                ARCONTROLLER_FEATURE_Animation_SendStartCandle
 *fill*         0x0000000000076afc        0x4 
 .text.ARCONTROLLER_FEATURE_Animation_SendStartDollySlide
                0x0000000000076b00       0xac /home/jose/catkin_ws/build/parrot_arsdk/arsdk/src/ARSDKBuildUtils/out/arsdk-native/build/libARController/obj/gen/Sources/ARCONTROLLER_Feature.c.o
                0x0000000000076b00                ARCONTROLLER_FEATURE_Animation_SendStartDollySlide
 *fill*         0x0000000000076bac        0x4 
 .text.ARCONTROLLER_FEATURE_ARDrone3_SendPilotingFlatTrim
                0x0000000000076bb0       0xac /home/jose/catkin_ws/build/parrot_arsdk/arsdk/src/ARSDKBuildUtils/out/arsdk-native/build/libARController/obj/gen/Sources/ARCONTROLLER_Feature.c.o
                0x0000000000076bb0                ARCONTROLLER_FEATURE_ARDrone3_SendPilotingFlatTrim
 *fill*         0x0000000000076c5c        0x4 
 .text.ARCONTROLLER_FEATURE_ARDrone3_SendPilotingTakeOff
                0x0000000000076c60       0xac /home/jose/catkin_ws/build/parrot_arsdk/arsdk/src/ARSDKBuildUtils/out/arsdk-native/build/libARController/obj/gen/Sources/ARCONTROLLER_Feature.c.o
                0x0000000000076c60                ARCONTROLLER_FEATURE_ARDrone3_SendPilotingTakeOff
 *fill*         0x0000000000076d0c        0x4 
 .text.ARCONTROLLER_FEATURE_ARDrone3_SendPilotingPCMD
                0x0000000000076d10       0xd4 /home/jose/catkin_ws/build/parrot_arsdk/arsdk/src/ARSDKBuildUtils/out/arsdk-native/build/libARController/obj/gen/Sources/ARCONTROLLER_Feature.c.o
                0x0000000000076d10                ARCONTROLLER_FEATURE_ARDrone3_SendPilotingPCMD
 *fill*         0x0000000000076de4        0xc 
 .text.ARCONTROLLER_FEATURE_ARDrone3_SendPilotingLanding
                0x0000000000076df0       0xac /home/jose/catkin_ws/build/parrot_arsdk/arsdk/src/ARSDKBuildUtils/out/arsdk-native/build/libARController/obj/gen/Sources/ARCONTROLLER_Feature.c.o
                0x0000000000076df0                ARCONTROLLER_FEATURE_ARDrone3_SendPilotingLanding
 *fill*         0x0000000000076e9c        0x4 
 .text.ARCONTROLLER_FEATURE_ARDrone3_SendPilotingEmergency
                0x0000000000076ea0       0xac /home/jose/catkin_ws/build/parrot_arsdk/arsdk/src/ARSDKBuildUtils/out/arsdk-native/build/libARController/obj/gen/Sources/ARCONTROLLER_Feature.c.o
                0x0000000000076ea0                ARCONTROLLER_FEATURE_ARDrone3_SendPilotingEmergency
 *fill*         0x0000000000076f4c        0x4 
 .text.ARCONTROLLER_FEATURE_ARDrone3_SendPilotingNavigateHome
                0x0000000000076f50       0xac /home/jose/catkin_ws/build/parrot_arsdk/arsdk/src/ARSDKBuildUtils/out/arsdk-native/build/libARController/obj/gen/Sources/ARCONTROLLER_Feature.c.o
                0x0000000000076f50                ARCONTROLLER_FEATURE_ARDrone3_SendPilotingNavigateHome
 *fill*         0x0000000000076ffc        0x4 
 .text.ARCONTROLLER_FEATURE_ARDrone3_SendPilotingAutoTakeOffMode
                0x0000000000077000       0xac /home/jose/catkin_ws/build/parrot_arsdk/arsdk/src/ARSDKBuildUtils/out/arsdk-native/build/libARController/obj/gen/Sources/ARCONTROLLER_Feature.c.o
                0x0000000000077000                ARCONTROLLER_FEATURE_ARDrone3_SendPilotingAutoTakeOffMode
 *fill*         0x00000000000770ac        0x4 
 .text.ARCONTROLLER_FEATURE_ARDrone3_SendPilotingMoveBy
                0x00000000000770b0       0xac /home/jose/catkin_ws/build/parrot_arsdk/arsdk/src/ARSDKBuildUtils/out/arsdk-native/build/libARController/obj/gen/Sources/ARCONTROLLER_Feature.c.o
                0x00000000000770b0                ARCONTROLLER_FEATURE_ARDrone3_SendPilotingMoveBy
 *fill*         0x000000000007715c        0x4 
 .text.ARCONTROLLER_FEATURE_ARDrone3_SendPilotingUserTakeOff
                0x0000000000077160       0xac /home/jose/catkin_ws/build/parrot_arsdk/arsdk/src/ARSDKBuildUtils/out/arsdk-native/build/libARController/obj/gen/Sources/ARCONTROLLER_Feature.c.o
                0x0000000000077160                ARCONTROLLER_FEATURE_ARDrone3_SendPilotingUserTakeOff
 *fill*         0x000000000007720c        0x4 
 .text.ARCONTROLLER_FEATURE_ARDrone3_SendPilotingCircle
                0x0000000000077210       0xac /home/jose/catkin_ws/build/parrot_arsdk/arsdk/src/ARSDKBuildUtils/out/arsdk-native/build/libARController/obj/gen/Sources/ARCONTROLLER_Feature.c.o
                0x0000000000077210                ARCONTROLLER_FEATURE_ARDrone3_SendPilotingCircle
 *fill*         0x00000000000772bc        0x4 
 .text.ARCONTROLLER_FEATURE_ARDrone3_SendPilotingMoveTo
                0x00000000000772c0       0xac /home/jose/catkin_ws/build/parrot_arsdk/arsdk/src/ARSDKBuildUtils/out/arsdk-native/build/libARController/obj/gen/Sources/ARCONTROLLER_Feature.c.o
                0x00000000000772c0                ARCONTROLLER_FEATURE_ARDrone3_SendPilotingMoveTo
 *fill*         0x000000000007736c        0x4 
 .text.ARCONTROLLER_FEATURE_ARDrone3_SendPilotingCancelMoveTo
                0x0000000000077370       0xac /home/jose/catkin_ws/build/parrot_arsdk/arsdk/src/ARSDKBuildUtils/out/arsdk-native/build/libARController/obj/gen/Sources/ARCONTROLLER_Feature.c.o
                0x0000000000077370                ARCONTROLLER_FEATURE_ARDrone3_SendPilotingCancelMoveTo
 *fill*         0x000000000007741c        0x4 
 .text.ARCONTROLLER_FEATURE_ARDrone3_SendPilotingStartPilotedPOI
                0x0000000000077420       0xac /home/jose/catkin_ws/build/parrot_arsdk/arsdk/src/ARSDKBuildUtils/out/arsdk-native/build/libARController/obj/gen/Sources/ARCONTROLLER_Feature.c.o
                0x0000000000077420                ARCONTROLLER_FEATURE_ARDrone3_SendPilotingStartPilotedPOI
 *fill*         0x00000000000774cc        0x4 
 .text.ARCONTROLLER_FEATURE_ARDrone3_SendPilotingStopPilotedPOI
                0x00000000000774d0       0xac /home/jose/catkin_ws/build/parrot_arsdk/arsdk/src/ARSDKBuildUtils/out/arsdk-native/build/libARController/obj/gen/Sources/ARCONTROLLER_Feature.c.o
                0x00000000000774d0                ARCONTROLLER_FEATURE_ARDrone3_SendPilotingStopPilotedPOI
 *fill*         0x000000000007757c        0x4 
 .text.ARCONTROLLER_FEATURE_ARDrone3_SendAnimationsFlip
                0x0000000000077580       0xac /home/jose/catkin_ws/build/parrot_arsdk/arsdk/src/ARSDKBuildUtils/out/arsdk-native/build/libARController/obj/gen/Sources/ARCONTROLLER_Feature.c.o
                0x0000000000077580                ARCONTROLLER_FEATURE_ARDrone3_SendAnimationsFlip
 *fill*         0x000000000007762c        0x4 
 .text.ARCONTROLLER_FEATURE_ARDrone3_SendCameraOrientation
                0x0000000000077630       0xac /home/jose/catkin_ws/build/parrot_arsdk/arsdk/src/ARSDKBuildUtils/out/arsdk-native/build/libARController/obj/gen/Sources/ARCONTROLLER_Feature.c.o
                0x0000000000077630                ARCONTROLLER_FEATURE_ARDrone3_SendCameraOrientation
 *fill*         0x00000000000776dc        0x4 
 .text.ARCONTROLLER_FEATURE_ARDrone3_SetCameraOrientation
                0x00000000000776e0       0x3e /home/jose/catkin_ws/build/parrot_arsdk/arsdk/src/ARSDKBuildUtils/out/arsdk-native/build/libARController/obj/gen/Sources/ARCONTROLLER_Feature.c.o
                0x00000000000776e0                ARCONTROLLER_FEATURE_ARDrone3_SetCameraOrientation
 *fill*         0x000000000007771e        0x2 
 .text.ARCONTROLLER_FEATURE_ARDrone3_SetCameraOrientationTilt
                0x0000000000077720       0x3e /home/jose/catkin_ws/build/parrot_arsdk/arsdk/src/ARSDKBuildUtils/out/arsdk-native/build/libARController/obj/gen/Sources/ARCONTROLLER_Feature.c.o
                0x0000000000077720                ARCONTROLLER_FEATURE_ARDrone3_SetCameraOrientationTilt
 *fill*         0x000000000007775e        0x2 
 .text.ARCONTROLLER_FEATURE_ARDrone3_SetCameraOrientationPan
                0x0000000000077760       0x3e /home/jose/catkin_ws/build/parrot_arsdk/arsdk/src/ARSDKBuildUtils/out/arsdk-native/build/libARController/obj/gen/Sources/ARCONTROLLER_Feature.c.o
                0x0000000000077760                ARCONTROLLER_FEATURE_ARDrone3_SetCameraOrientationPan
 *fill*         0x000000000007779e        0x2 
 .text.ARCONTROLLER_FEATURE_ARDrone3_SendCameraOrientationV2
                0x00000000000777a0       0xa4 /home/jose/catkin_ws/build/parrot_arsdk/arsdk/src/ARSDKBuildUtils/out/arsdk-native/build/libARController/obj/gen/Sources/ARCONTROLLER_Feature.c.o
                0x00000000000777a0                ARCONTROLLER_FEATURE_ARDrone3_SendCameraOrientationV2
 *fill*         0x0000000000077844        0xc 
 .text.ARCONTROLLER_FEATURE_ARDrone3_SetCameraOrientationV2
                0x0000000000077850       0x46 /home/jose/catkin_ws/build/parrot_arsdk/arsdk/src/ARSDKBuildUtils/out/arsdk-native/build/libARController/obj/gen/Sources/ARCONTROLLER_Feature.c.o
                0x0000000000077850                ARCONTROLLER_FEATURE_ARDrone3_SetCameraOrientationV2
 *fill*         0x0000000000077896        0xa 
 .text.ARCONTROLLER_FEATURE_ARDrone3_SetCameraOrientationV2Tilt
                0x00000000000778a0       0x3e /home/jose/catkin_ws/build/parrot_arsdk/arsdk/src/ARSDKBuildUtils/out/arsdk-native/build/libARController/obj/gen/Sources/ARCONTROLLER_Feature.c.o
                0x00000000000778a0                ARCONTROLLER_FEATURE_ARDrone3_SetCameraOrientationV2Tilt
 *fill*         0x00000000000778de        0x2 
 .text.ARCONTROLLER_FEATURE_ARDrone3_SetCameraOrientationV2Pan
                0x00000000000778e0       0x3e /home/jose/catkin_ws/build/parrot_arsdk/arsdk/src/ARSDKBuildUtils/out/arsdk-native/build/libARController/obj/gen/Sources/ARCONTROLLER_Feature.c.o
                0x00000000000778e0                ARCONTROLLER_FEATURE_ARDrone3_SetCameraOrientationV2Pan
 *fill*         0x000000000007791e        0x2 
 .text.ARCONTROLLER_FEATURE_ARDrone3_SendCameraVelocity
                0x0000000000077920       0xa4 /home/jose/catkin_ws/build/parrot_arsdk/arsdk/src/ARSDKBuildUtils/out/arsdk-native/build/libARController/obj/gen/Sources/ARCONTROLLER_Feature.c.o
                0x0000000000077920                ARCONTROLLER_FEATURE_ARDrone3_SendCameraVelocity
 *fill*         0x00000000000779c4        0xc 
 .text.ARCONTROLLER_FEATURE_ARDrone3_SetCameraVelocity
                0x00000000000779d0       0x46 /home/jose/catkin_ws/build/parrot_arsdk/arsdk/src/ARSDKBuildUtils/out/arsdk-native/build/libARController/obj/gen/Sources/ARCONTROLLER_Feature.c.o
                0x00000000000779d0                ARCONTROLLER_FEATURE_ARDrone3_SetCameraVelocity
 *fill*         0x0000000000077a16        0xa 
 .text.ARCONTROLLER_FEATURE_ARDrone3_SetCameraVelocityTilt
                0x0000000000077a20       0x3e /home/jose/catkin_ws/build/parrot_arsdk/arsdk/src/ARSDKBuildUtils/out/arsdk-native/build/libARController/obj/gen/Sources/ARCONTROLLER_Feature.c.o
                0x0000000000077a20                ARCONTROLLER_FEATURE_ARDrone3_SetCameraVelocityTilt
 *fill*         0x0000000000077a5e        0x2 
 .text.ARCONTROLLER_FEATURE_ARDrone3_SetCameraVelocityPan
                0x0000000000077a60       0x3e /home/jose/catkin_ws/build/parrot_arsdk/arsdk/src/ARSDKBuildUtils/out/arsdk-native/build/libARController/obj/gen/Sources/ARCONTROLLER_Feature.c.o
                0x0000000000077a60                ARCONTROLLER_FEATURE_ARDrone3_SetCameraVelocityPan
 *fill*         0x0000000000077a9e        0x2 
 .text.ARCONTROLLER_FEATURE_ARDrone3_SendMediaRecordPicture
                0x0000000000077aa0       0xac /home/jose/catkin_ws/build/parrot_arsdk/arsdk/src/ARSDKBuildUtils/out/arsdk-native/build/libARController/obj/gen/Sources/ARCONTROLLER_Feature.c.o
                0x0000000000077aa0                ARCONTROLLER_FEATURE_ARDrone3_SendMediaRecordPicture
 *fill*         0x0000000000077b4c        0x4 
 .text.ARCONTROLLER_FEATURE_ARDrone3_SendMediaRecordVideo
                0x0000000000077b50       0xb4 /home/jose/catkin_ws/build/parrot_arsdk/arsdk/src/ARSDKBuildUtils/out/arsdk-native/build/libARController/obj/gen/Sources/ARCONTROLLER_Feature.c.o
                0x0000000000077b50                ARCONTROLLER_FEATURE_ARDrone3_SendMediaRecordVideo
 *fill*         0x0000000000077c04        0xc 
 .text.ARCONTROLLER_FEATURE_ARDrone3_SendMediaRecordPictureV2
                0x0000000000077c10       0xac /home/jose/catkin_ws/build/parrot_arsdk/arsdk/src/ARSDKBuildUtils/out/arsdk-native/build/libARController/obj/gen/Sources/ARCONTROLLER_Feature.c.o
                0x0000000000077c10                ARCONTROLLER_FEATURE_ARDrone3_SendMediaRecordPictureV2
 *fill*         0x0000000000077cbc        0x4 
 .text.ARCONTROLLER_FEATURE_ARDrone3_SendMediaRecordVideoV2
                0x0000000000077cc0       0xac /home/jose/catkin_ws/build/parrot_arsdk/arsdk/src/ARSDKBuildUtils/out/arsdk-native/build/libARController/obj/gen/Sources/ARCONTROLLER_Feature.c.o
                0x0000000000077cc0                ARCONTROLLER_FEATURE_ARDrone3_SendMediaRecordVideoV2
 *fill*         0x0000000000077d6c        0x4 
 .text.ARCONTROLLER_FEATURE_ARDrone3_SendNetworkWifiScan
                0x0000000000077d70       0xac /home/jose/catkin_ws/build/parrot_arsdk/arsdk/src/ARSDKBuildUtils/out/arsdk-native/build/libARController/obj/gen/Sources/ARCONTROLLER_Feature.c.o
                0x0000000000077d70                ARCONTROLLER_FEATURE_ARDrone3_SendNetworkWifiScan
 *fill*         0x0000000000077e1c        0x4 
 .text.ARCONTROLLER_FEATURE_ARDrone3_SendNetworkWifiAuthChannel
                0x0000000000077e20       0xac /home/jose/catkin_ws/build/parrot_arsdk/arsdk/src/ARSDKBuildUtils/out/arsdk-native/build/libARController/obj/gen/Sources/ARCONTROLLER_Feature.c.o
                0x0000000000077e20                ARCONTROLLER_FEATURE_ARDrone3_SendNetworkWifiAuthChannel
 *fill*         0x0000000000077ecc        0x4 
 .text.ARCONTROLLER_FEATURE_ARDrone3_SendPilotingSettingsMaxAltitude
                0x0000000000077ed0       0xac /home/jose/catkin_ws/build/parrot_arsdk/arsdk/src/ARSDKBuildUtils/out/arsdk-native/build/libARController/obj/gen/Sources/ARCONTROLLER_Feature.c.o
                0x0000000000077ed0                ARCONTROLLER_FEATURE_ARDrone3_SendPilotingSettingsMaxAltitude
 *fill*         0x0000000000077f7c        0x4 
 .text.ARCONTROLLER_FEATURE_ARDrone3_SendPilotingSettingsMaxTilt
                0x0000000000077f80       0xac /home/jose/catkin_ws/build/parrot_arsdk/arsdk/src/ARSDKBuildUtils/out/arsdk-native/build/libARController/obj/gen/Sources/ARCONTROLLER_Feature.c.o
                0x0000000000077f80                ARCONTROLLER_FEATURE_ARDrone3_SendPilotingSettingsMaxTilt
 *fill*         0x000000000007802c        0x4 
 .text.ARCONTROLLER_FEATURE_ARDrone3_SendPilotingSettingsAbsolutControl
                0x0000000000078030       0xac /home/jose/catkin_ws/build/parrot_arsdk/arsdk/src/ARSDKBuildUtils/out/arsdk-native/build/libARController/obj/gen/Sources/ARCONTROLLER_Feature.c.o
                0x0000000000078030                ARCONTROLLER_FEATURE_ARDrone3_SendPilotingSettingsAbsolutControl
 *fill*         0x00000000000780dc        0x4 
 .text.ARCONTROLLER_FEATURE_ARDrone3_SendPilotingSettingsMaxDistance
                0x00000000000780e0       0xac /home/jose/catkin_ws/build/parrot_arsdk/arsdk/src/ARSDKBuildUtils/out/arsdk-native/build/libARController/obj/gen/Sources/ARCONTROLLER_Feature.c.o
                0x00000000000780e0                ARCONTROLLER_FEATURE_ARDrone3_SendPilotingSettingsMaxDistance
 *fill*         0x000000000007818c        0x4 
 .text.ARCONTROLLER_FEATURE_ARDrone3_SendPilotingSettingsNoFlyOverMaxDistance
                0x0000000000078190       0xac /home/jose/catkin_ws/build/parrot_arsdk/arsdk/src/ARSDKBuildUtils/out/arsdk-native/build/libARController/obj/gen/Sources/ARCONTROLLER_Feature.c.o
                0x0000000000078190                ARCONTROLLER_FEATURE_ARDrone3_SendPilotingSettingsNoFlyOverMaxDistance
 *fill*         0x000000000007823c        0x4 
 .text.ARCONTROLLER_FEATURE_ARDrone3_SendPilotingSettingsSetAutonomousFlightMaxHorizontalSpeed
                0x0000000000078240       0xac /home/jose/catkin_ws/build/parrot_arsdk/arsdk/src/ARSDKBuildUtils/out/arsdk-native/build/libARController/obj/gen/Sources/ARCONTROLLER_Feature.c.o
                0x0000000000078240                ARCONTROLLER_FEATURE_ARDrone3_SendPilotingSettingsSetAutonomousFlightMaxHorizontalSpeed
 *fill*         0x00000000000782ec        0x4 
 .text.ARCONTROLLER_FEATURE_ARDrone3_SendPilotingSettingsSetAutonomousFlightMaxVerticalSpeed
                0x00000000000782f0       0xac /home/jose/catkin_ws/build/parrot_arsdk/arsdk/src/ARSDKBuildUtils/out/arsdk-native/build/libARController/obj/gen/Sources/ARCONTROLLER_Feature.c.o
                0x00000000000782f0                ARCONTROLLER_FEATURE_ARDrone3_SendPilotingSettingsSetAutonomousFlightMaxVerticalSpeed
 *fill*         0x000000000007839c        0x4 
 .text.ARCONTROLLER_FEATURE_ARDrone3_SendPilotingSettingsSetAutonomousFlightMaxHorizontalAcceleration
                0x00000000000783a0       0xac /home/jose/catkin_ws/build/parrot_arsdk/arsdk/src/ARSDKBuildUtils/out/arsdk-native/build/libARController/obj/gen/Sources/ARCONTROLLER_Feature.c.o
                0x00000000000783a0                ARCONTROLLER_FEATURE_ARDrone3_SendPilotingSettingsSetAutonomousFlightMaxHorizontalAcceleration
 *fill*         0x000000000007844c        0x4 
 .text.ARCONTROLLER_FEATURE_ARDrone3_SendPilotingSettingsSetAutonomousFlightMaxVerticalAcceleration
                0x0000000000078450       0xac /home/jose/catkin_ws/build/parrot_arsdk/arsdk/src/ARSDKBuildUtils/out/arsdk-native/build/libARController/obj/gen/Sources/ARCONTROLLER_Feature.c.o
                0x0000000000078450                ARCONTROLLER_FEATURE_ARDrone3_SendPilotingSettingsSetAutonomousFlightMaxVerticalAcceleration
 *fill*         0x00000000000784fc        0x4 
 .text.ARCONTROLLER_FEATURE_ARDrone3_SendPilotingSettingsSetAutonomousFlightMaxRotationSpeed
                0x0000000000078500       0xac /home/jose/catkin_ws/build/parrot_arsdk/arsdk/src/ARSDKBuildUtils/out/arsdk-native/build/libARController/obj/gen/Sources/ARCONTROLLER_Feature.c.o
                0x0000000000078500                ARCONTROLLER_FEATURE_ARDrone3_SendPilotingSettingsSetAutonomousFlightMaxRotationSpeed
 *fill*         0x00000000000785ac        0x4 
 .text.ARCONTROLLER_FEATURE_ARDrone3_SendPilotingSettingsBankedTurn
                0x00000000000785b0       0xac /home/jose/catkin_ws/build/parrot_arsdk/arsdk/src/ARSDKBuildUtils/out/arsdk-native/build/libARController/obj/gen/Sources/ARCONTROLLER_Feature.c.o
                0x00000000000785b0                ARCONTROLLER_FEATURE_ARDrone3_SendPilotingSettingsBankedTurn
 *fill*         0x000000000007865c        0x4 
 .text.ARCONTROLLER_FEATURE_ARDrone3_SendPilotingSettingsMinAltitude
                0x0000000000078660       0xac /home/jose/catkin_ws/build/parrot_arsdk/arsdk/src/ARSDKBuildUtils/out/arsdk-native/build/libARController/obj/gen/Sources/ARCONTROLLER_Feature.c.o
                0x0000000000078660                ARCONTROLLER_FEATURE_ARDrone3_SendPilotingSettingsMinAltitude
 *fill*         0x000000000007870c        0x4 
 .text.ARCONTROLLER_FEATURE_ARDrone3_SendPilotingSettingsCirclingDirection
                0x0000000000078710       0xac /home/jose/catkin_ws/build/parrot_arsdk/arsdk/src/ARSDKBuildUtils/out/arsdk-native/build/libARController/obj/gen/Sources/ARCONTROLLER_Feature.c.o
                0x0000000000078710                ARCONTROLLER_FEATURE_ARDrone3_SendPilotingSettingsCirclingDirection
 *fill*         0x00000000000787bc        0x4 
 .text.ARCONTROLLER_FEATURE_ARDrone3_SendPilotingSettingsCirclingRadius
                0x00000000000787c0       0xac /home/jose/catkin_ws/build/parrot_arsdk/arsdk/src/ARSDKBuildUtils/out/arsdk-native/build/libARController/obj/gen/Sources/ARCONTROLLER_Feature.c.o
                0x00000000000787c0                ARCONTROLLER_FEATURE_ARDrone3_SendPilotingSettingsCirclingRadius
 *fill*         0x000000000007886c        0x4 
 .text.ARCONTROLLER_FEATURE_ARDrone3_SendPilotingSettingsCirclingAltitude
                0x0000000000078870       0xac /home/jose/catkin_ws/build/parrot_arsdk/arsdk/src/ARSDKBuildUtils/out/arsdk-native/build/libARController/obj/gen/Sources/ARCONTROLLER_Feature.c.o
                0x0000000000078870                ARCONTROLLER_FEATURE_ARDrone3_SendPilotingSettingsCirclingAltitude
 *fill*         0x000000000007891c        0x4 
 .text.ARCONTROLLER_FEATURE_ARDrone3_SendPilotingSettingsPitchMode
                0x0000000000078920       0xac /home/jose/catkin_ws/build/parrot_arsdk/arsdk/src/ARSDKBuildUtils/out/arsdk-native/build/libARController/obj/gen/Sources/ARCONTROLLER_Feature.c.o
                0x0000000000078920                ARCONTROLLER_FEATURE_ARDrone3_SendPilotingSettingsPitchMode
 *fill*         0x00000000000789cc        0x4 
 .text.ARCONTROLLER_FEATURE_ARDrone3_SendPilotingSettingsSetMotionDetectionMode
                0x00000000000789d0       0xac /home/jose/catkin_ws/build/parrot_arsdk/arsdk/src/ARSDKBuildUtils/out/arsdk-native/build/libARController/obj/gen/Sources/ARCONTROLLER_Feature.c.o
                0x00000000000789d0                ARCONTROLLER_FEATURE_ARDrone3_SendPilotingSettingsSetMotionDetectionMode
 *fill*         0x0000000000078a7c        0x4 
 .text.ARCONTROLLER_FEATURE_ARDrone3_SendSpeedSettingsMaxVerticalSpeed
                0x0000000000078a80       0xac /home/jose/catkin_ws/build/parrot_arsdk/arsdk/src/ARSDKBuildUtils/out/arsdk-native/build/libARController/obj/gen/Sources/ARCONTROLLER_Feature.c.o
                0x0000000000078a80                ARCONTROLLER_FEATURE_ARDrone3_SendSpeedSettingsMaxVerticalSpeed
 *fill*         0x0000000000078b2c        0x4 
 .text.ARCONTROLLER_FEATURE_ARDrone3_SendSpeedSettingsMaxRotationSpeed
                0x0000000000078b30       0xac /home/jose/catkin_ws/build/parrot_arsdk/arsdk/src/ARSDKBuildUtils/out/arsdk-native/build/libARController/obj/gen/Sources/ARCONTROLLER_Feature.c.o
                0x0000000000078b30                ARCONTROLLER_FEATURE_ARDrone3_SendSpeedSettingsMaxRotationSpeed
 *fill*         0x0000000000078bdc        0x4 
 .text.ARCONTROLLER_FEATURE_ARDrone3_SendSpeedSettingsHullProtection
                0x0000000000078be0       0xac /home/jose/catkin_ws/build/parrot_arsdk/arsdk/src/ARSDKBuildUtils/out/arsdk-native/build/libARController/obj/gen/Sources/ARCONTROLLER_Feature.c.o
                0x0000000000078be0                ARCONTROLLER_FEATURE_ARDrone3_SendSpeedSettingsHullProtection
 *fill*         0x0000000000078c8c        0x4 
 .text.ARCONTROLLER_FEATURE_ARDrone3_SendSpeedSettingsOutdoor
                0x0000000000078c90       0xac /home/jose/catkin_ws/build/parrot_arsdk/arsdk/src/ARSDKBuildUtils/out/arsdk-native/build/libARController/obj/gen/Sources/ARCONTROLLER_Feature.c.o
                0x0000000000078c90                ARCONTROLLER_FEATURE_ARDrone3_SendSpeedSettingsOutdoor
 *fill*         0x0000000000078d3c        0x4 
 .text.ARCONTROLLER_FEATURE_ARDrone3_SendSpeedSettingsMaxPitchRollRotationSpeed
                0x0000000000078d40       0xac /home/jose/catkin_ws/build/parrot_arsdk/arsdk/src/ARSDKBuildUtils/out/arsdk-native/build/libARController/obj/gen/Sources/ARCONTROLLER_Feature.c.o
                0x0000000000078d40                ARCONTROLLER_FEATURE_ARDrone3_SendSpeedSettingsMaxPitchRollRotationSpeed
 *fill*         0x0000000000078dec        0x4 
 .text.ARCONTROLLER_FEATURE_ARDrone3_SendNetworkSettingsWifiSelection
                0x0000000000078df0       0xb4 /home/jose/catkin_ws/build/parrot_arsdk/arsdk/src/ARSDKBuildUtils/out/arsdk-native/build/libARController/obj/gen/Sources/ARCONTROLLER_Feature.c.o
                0x0000000000078df0                ARCONTROLLER_FEATURE_ARDrone3_SendNetworkSettingsWifiSelection
 *fill*         0x0000000000078ea4        0xc 
 .text.ARCONTROLLER_FEATURE_ARDrone3_SendNetworkSettingsWifiSecurity
                0x0000000000078eb0       0xac /home/jose/catkin_ws/build/parrot_arsdk/arsdk/src/ARSDKBuildUtils/out/arsdk-native/build/libARController/obj/gen/Sources/ARCONTROLLER_Feature.c.o
                0x0000000000078eb0                ARCONTROLLER_FEATURE_ARDrone3_SendNetworkSettingsWifiSecurity
 *fill*         0x0000000000078f5c        0x4 
 .text.ARCONTROLLER_FEATURE_ARDrone3_SendPictureSettingsPictureFormatSelection
                0x0000000000078f60       0xac /home/jose/catkin_ws/build/parrot_arsdk/arsdk/src/ARSDKBuildUtils/out/arsdk-native/build/libARController/obj/gen/Sources/ARCONTROLLER_Feature.c.o
                0x0000000000078f60                ARCONTROLLER_FEATURE_ARDrone3_SendPictureSettingsPictureFormatSelection
 *fill*         0x000000000007900c        0x4 
 .text.ARCONTROLLER_FEATURE_ARDrone3_SendPictureSettingsAutoWhiteBalanceSelection
                0x0000000000079010       0xac /home/jose/catkin_ws/build/parrot_arsdk/arsdk/src/ARSDKBuildUtils/out/arsdk-native/build/libARController/obj/gen/Sources/ARCONTROLLER_Feature.c.o
                0x0000000000079010                ARCONTROLLER_FEATURE_ARDrone3_SendPictureSettingsAutoWhiteBalanceSelection
 *fill*         0x00000000000790bc        0x4 
 .text.ARCONTROLLER_FEATURE_ARDrone3_SendPictureSettingsExpositionSelection
                0x00000000000790c0       0xac /home/jose/catkin_ws/build/parrot_arsdk/arsdk/src/ARSDKBuildUtils/out/arsdk-native/build/libARController/obj/gen/Sources/ARCONTROLLER_Feature.c.o
                0x00000000000790c0                ARCONTROLLER_FEATURE_ARDrone3_SendPictureSettingsExpositionSelection
 *fill*         0x000000000007916c        0x4 
 .text.ARCONTROLLER_FEATURE_ARDrone3_SendPictureSettingsSaturationSelection
                0x0000000000079170       0xac /home/jose/catkin_ws/build/parrot_arsdk/arsdk/src/ARSDKBuildUtils/out/arsdk-native/build/libARController/obj/gen/Sources/ARCONTROLLER_Feature.c.o
                0x0000000000079170                ARCONTROLLER_FEATURE_ARDrone3_SendPictureSettingsSaturationSelection
 *fill*         0x000000000007921c        0x4 
 .text.ARCONTROLLER_FEATURE_ARDrone3_SendPictureSettingsTimelapseSelection
                0x0000000000079220       0xac /home/jose/catkin_ws/build/parrot_arsdk/arsdk/src/ARSDKBuildUtils/out/arsdk-native/build/libARController/obj/gen/Sources/ARCONTROLLER_Feature.c.o
                0x0000000000079220                ARCONTROLLER_FEATURE_ARDrone3_SendPictureSettingsTimelapseSelection
 *fill*         0x00000000000792cc        0x4 
 .text.ARCONTROLLER_FEATURE_ARDrone3_SendPictureSettingsVideoAutorecordSelection
                0x00000000000792d0       0xb4 /home/jose/catkin_ws/build/parrot_arsdk/arsdk/src/ARSDKBuildUtils/out/arsdk-native/build/libARController/obj/gen/Sources/ARCONTROLLER_Feature.c.o
                0x00000000000792d0                ARCONTROLLER_FEATURE_ARDrone3_SendPictureSettingsVideoAutorecordSelection
 *fill*         0x0000000000079384        0xc 
 .text.ARCONTROLLER_FEATURE_ARDrone3_SendPictureSettingsVideoStabilizationMode
                0x0000000000079390       0xac /home/jose/catkin_ws/build/parrot_arsdk/arsdk/src/ARSDKBuildUtils/out/arsdk-native/build/libARController/obj/gen/Sources/ARCONTROLLER_Feature.c.o
                0x0000000000079390                ARCONTROLLER_FEATURE_ARDrone3_SendPictureSettingsVideoStabilizationMode
 *fill*         0x000000000007943c        0x4 
 .text.ARCONTROLLER_FEATURE_ARDrone3_SendPictureSettingsVideoRecordingMode
                0x0000000000079440       0xac /home/jose/catkin_ws/build/parrot_arsdk/arsdk/src/ARSDKBuildUtils/out/arsdk-native/build/libARController/obj/gen/Sources/ARCONTROLLER_Feature.c.o
                0x0000000000079440                ARCONTROLLER_FEATURE_ARDrone3_SendPictureSettingsVideoRecordingMode
 *fill*         0x00000000000794ec        0x4 
 .text.ARCONTROLLER_FEATURE_ARDrone3_SendPictureSettingsVideoFramerate
                0x00000000000794f0       0xac /home/jose/catkin_ws/build/parrot_arsdk/arsdk/src/ARSDKBuildUtils/out/arsdk-native/build/libARController/obj/gen/Sources/ARCONTROLLER_Feature.c.o
                0x00000000000794f0                ARCONTROLLER_FEATURE_ARDrone3_SendPictureSettingsVideoFramerate
 *fill*         0x000000000007959c        0x4 
 .text.ARCONTROLLER_FEATURE_ARDrone3_SendPictureSettingsVideoResolutions
                0x00000000000795a0       0xac /home/jose/catkin_ws/build/parrot_arsdk/arsdk/src/ARSDKBuildUtils/out/arsdk-native/build/libARController/obj/gen/Sources/ARCONTROLLER_Feature.c.o
                0x00000000000795a0                ARCONTROLLER_FEATURE_ARDrone3_SendPictureSettingsVideoResolutions
 *fill*         0x000000000007964c        0x4 
 .text.ARCONTROLLER_FEATURE_ARDrone3_SendMediaStreamingVideoEnable
                0x0000000000079650       0xac /home/jose/catkin_ws/build/parrot_arsdk/arsdk/src/ARSDKBuildUtils/out/arsdk-native/build/libARController/obj/gen/Sources/ARCONTROLLER_Feature.c.o
                0x0000000000079650                ARCONTROLLER_FEATURE_ARDrone3_SendMediaStreamingVideoEnable
 *fill*         0x00000000000796fc        0x4 
 .text.ARCONTROLLER_FEATURE_ARDrone3_SendMediaStreamingVideoStreamMode
                0x0000000000079700       0xac /home/jose/catkin_ws/build/parrot_arsdk/arsdk/src/ARSDKBuildUtils/out/arsdk-native/build/libARController/obj/gen/Sources/ARCONTROLLER_Feature.c.o
                0x0000000000079700                ARCONTROLLER_FEATURE_ARDrone3_SendMediaStreamingVideoStreamMode
 *fill*         0x00000000000797ac        0x4 
 .text.ARCONTROLLER_FEATURE_ARDrone3_SendGPSSettingsSetHome
                0x00000000000797b0       0xac /home/jose/catkin_ws/build/parrot_arsdk/arsdk/src/ARSDKBuildUtils/out/arsdk-native/build/libARController/obj/gen/Sources/ARCONTROLLER_Feature.c.o
                0x00000000000797b0                ARCONTROLLER_FEATURE_ARDrone3_SendGPSSettingsSetHome
 *fill*         0x000000000007985c        0x4 
 .text.ARCONTROLLER_FEATURE_ARDrone3_SendGPSSettingsResetHome
                0x0000000000079860       0xac /home/jose/catkin_ws/build/parrot_arsdk/arsdk/src/ARSDKBuildUtils/out/arsdk-native/build/libARController/obj/gen/Sources/ARCONTROLLER_Feature.c.o
                0x0000000000079860                ARCONTROLLER_FEATURE_ARDrone3_SendGPSSettingsResetHome
 *fill*         0x000000000007990c        0x4 
 .text.ARCONTROLLER_FEATURE_ARDrone3_SendGPSSettingsSendControllerGPS
                0x0000000000079910       0xac /home/jose/catkin_ws/build/parrot_arsdk/arsdk/src/ARSDKBuildUtils/out/arsdk-native/build/libARController/obj/gen/Sources/ARCONTROLLER_Feature.c.o
                0x0000000000079910                ARCONTROLLER_FEATURE_ARDrone3_SendGPSSettingsSendControllerGPS
 *fill*         0x00000000000799bc        0x4 
 .text.ARCONTROLLER_FEATURE_ARDrone3_SendGPSSettingsHomeType
                0x00000000000799c0       0xac /home/jose/catkin_ws/build/parrot_arsdk/arsdk/src/ARSDKBuildUtils/out/arsdk-native/build/libARController/obj/gen/Sources/ARCONTROLLER_Feature.c.o
                0x00000000000799c0                ARCONTROLLER_FEATURE_ARDrone3_SendGPSSettingsHomeType
 *fill*         0x0000000000079a6c        0x4 
 .text.ARCONTROLLER_FEATURE_ARDrone3_SendGPSSettingsReturnHomeDelay
                0x0000000000079a70       0xac /home/jose/catkin_ws/build/parrot_arsdk/arsdk/src/ARSDKBuildUtils/out/arsdk-native/build/libARController/obj/gen/Sources/ARCONTROLLER_Feature.c.o
                0x0000000000079a70                ARCONTROLLER_FEATURE_ARDrone3_SendGPSSettingsReturnHomeDelay
 *fill*         0x0000000000079b1c        0x4 
 .text.ARCONTROLLER_FEATURE_ARDrone3_SendAntiflickeringElectricFrequency
                0x0000000000079b20       0xac /home/jose/catkin_ws/build/parrot_arsdk/arsdk/src/ARSDKBuildUtils/out/arsdk-native/build/libARController/obj/gen/Sources/ARCONTROLLER_Feature.c.o
                0x0000000000079b20                ARCONTROLLER_FEATURE_ARDrone3_SendAntiflickeringElectricFrequency
 *fill*         0x0000000000079bcc        0x4 
 .text.ARCONTROLLER_FEATURE_ARDrone3_SendAntiflickeringSetMode
                0x0000000000079bd0       0xac /home/jose/catkin_ws/build/parrot_arsdk/arsdk/src/ARSDKBuildUtils/out/arsdk-native/build/libARController/obj/gen/Sources/ARCONTROLLER_Feature.c.o
                0x0000000000079bd0                ARCONTROLLER_FEATURE_ARDrone3_SendAntiflickeringSetMode
 *fill*         0x0000000000079c7c        0x4 
 .text.ARCONTROLLER_FEATURE_ARDrone3_SendSoundStartAlertSound
                0x0000000000079c80       0xac /home/jose/catkin_ws/build/parrot_arsdk/arsdk/src/ARSDKBuildUtils/out/arsdk-native/build/libARController/obj/gen/Sources/ARCONTROLLER_Feature.c.o
                0x0000000000079c80                ARCONTROLLER_FEATURE_ARDrone3_SendSoundStartAlertSound
 *fill*         0x0000000000079d2c        0x4 
 .text.ARCONTROLLER_FEATURE_ARDrone3_SendSoundStopAlertSound
                0x0000000000079d30       0xac /home/jose/catkin_ws/build/parrot_arsdk/arsdk/src/ARSDKBuildUtils/out/arsdk-native/build/libARController/obj/gen/Sources/ARCONTROLLER_Feature.c.o
                0x0000000000079d30                ARCONTROLLER_FEATURE_ARDrone3_SendSoundStopAlertSound
 *fill*         0x0000000000079ddc        0x4 
 .text.ARCONTROLLER_FEATURE_Common_SendNetworkDisconnect
                0x0000000000079de0       0xac /home/jose/catkin_ws/build/parrot_arsdk/arsdk/src/ARSDKBuildUtils/out/arsdk-native/build/libARController/obj/gen/Sources/ARCONTROLLER_Feature.c.o
                0x0000000000079de0                ARCONTROLLER_FEATURE_Common_SendNetworkDisconnect
 *fill*         0x0000000000079e8c        0x4 
 .text.ARCONTROLLER_FEATURE_Common_SendSettingsAllSettings
                0x0000000000079e90       0xac /home/jose/catkin_ws/build/parrot_arsdk/arsdk/src/ARSDKBuildUtils/out/arsdk-native/build/libARController/obj/gen/Sources/ARCONTROLLER_Feature.c.o
                0x0000000000079e90                ARCONTROLLER_FEATURE_Common_SendSettingsAllSettings
 *fill*         0x0000000000079f3c        0x4 
 .text.ARCONTROLLER_FEATURE_Common_SendSettingsReset
                0x0000000000079f40       0xac /home/jose/catkin_ws/build/parrot_arsdk/arsdk/src/ARSDKBuildUtils/out/arsdk-native/build/libARController/obj/gen/Sources/ARCONTROLLER_Feature.c.o
                0x0000000000079f40                ARCONTROLLER_FEATURE_Common_SendSettingsReset
 *fill*         0x0000000000079fec        0x4 
 .text.ARCONTROLLER_FEATURE_Common_SendSettingsProductName
                0x0000000000079ff0       0xac /home/jose/catkin_ws/build/parrot_arsdk/arsdk/src/ARSDKBuildUtils/out/arsdk-native/build/libARController/obj/gen/Sources/ARCONTROLLER_Feature.c.o
                0x0000000000079ff0                ARCONTROLLER_FEATURE_Common_SendSettingsProductName
 *fill*         0x000000000007a09c        0x4 
 .text.ARCONTROLLER_FEATURE_Common_SendSettingsCountry
                0x000000000007a0a0       0xac /home/jose/catkin_ws/build/parrot_arsdk/arsdk/src/ARSDKBuildUtils/out/arsdk-native/build/libARController/obj/gen/Sources/ARCONTROLLER_Feature.c.o
                0x000000000007a0a0                ARCONTROLLER_FEATURE_Common_SendSettingsCountry
 *fill*         0x000000000007a14c        0x4 
 .text.ARCONTROLLER_FEATURE_Common_SendSettingsAutoCountry
                0x000000000007a150       0xac /home/jose/catkin_ws/build/parrot_arsdk/arsdk/src/ARSDKBuildUtils/out/arsdk-native/build/libARController/obj/gen/Sources/ARCONTROLLER_Feature.c.o
                0x000000000007a150                ARCONTROLLER_FEATURE_Common_SendSettingsAutoCountry
 *fill*         0x000000000007a1fc        0x4 
 .text.ARCONTROLLER_FEATURE_Common_SendCommonAllStates
                0x000000000007a200       0xac /home/jose/catkin_ws/build/parrot_arsdk/arsdk/src/ARSDKBuildUtils/out/arsdk-native/build/libARController/obj/gen/Sources/ARCONTROLLER_Feature.c.o
                0x000000000007a200                ARCONTROLLER_FEATURE_Common_SendCommonAllStates
 *fill*         0x000000000007a2ac        0x4 
 .text.ARCONTROLLER_FEATURE_Common_SendCommonCurrentDate
                0x000000000007a2b0       0xac /home/jose/catkin_ws/build/parrot_arsdk/arsdk/src/ARSDKBuildUtils/out/arsdk-native/build/libARController/obj/gen/Sources/ARCONTROLLER_Feature.c.o
                0x000000000007a2b0                ARCONTROLLER_FEATURE_Common_SendCommonCurrentDate
 *fill*         0x000000000007a35c        0x4 
 .text.ARCONTROLLER_FEATURE_Common_SendCommonCurrentTime
                0x000000000007a360       0xac /home/jose/catkin_ws/build/parrot_arsdk/arsdk/src/ARSDKBuildUtils/out/arsdk-native/build/libARController/obj/gen/Sources/ARCONTROLLER_Feature.c.o
                0x000000000007a360                ARCONTROLLER_FEATURE_Common_SendCommonCurrentTime
 *fill*         0x000000000007a40c        0x4 
 .text.ARCONTROLLER_FEATURE_Common_SendCommonReboot
                0x000000000007a410       0xac /home/jose/catkin_ws/build/parrot_arsdk/arsdk/src/ARSDKBuildUtils/out/arsdk-native/build/libARController/obj/gen/Sources/ARCONTROLLER_Feature.c.o
                0x000000000007a410                ARCONTROLLER_FEATURE_Common_SendCommonReboot
 *fill*         0x000000000007a4bc        0x4 
 .text.ARCONTROLLER_FEATURE_Common_SendOverHeatSwitchOff
                0x000000000007a4c0       0xac /home/jose/catkin_ws/build/parrot_arsdk/arsdk/src/ARSDKBuildUtils/out/arsdk-native/build/libARController/obj/gen/Sources/ARCONTROLLER_Feature.c.o
                0x000000000007a4c0                ARCONTROLLER_FEATURE_Common_SendOverHeatSwitchOff
 *fill*         0x000000000007a56c        0x4 
 .text.ARCONTROLLER_FEATURE_Common_SendOverHeatVentilate
                0x000000000007a570       0xac /home/jose/catkin_ws/build/parrot_arsdk/arsdk/src/ARSDKBuildUtils/out/arsdk-native/build/libARController/obj/gen/Sources/ARCONTROLLER_Feature.c.o
                0x000000000007a570                ARCONTROLLER_FEATURE_Common_SendOverHeatVentilate
 *fill*         0x000000000007a61c        0x4 
 .text.ARCONTROLLER_FEATURE_Common_SendControllerIsPiloting
                0x000000000007a620       0xac /home/jose/catkin_ws/build/parrot_arsdk/arsdk/src/ARSDKBuildUtils/out/arsdk-native/build/libARController/obj/gen/Sources/ARCONTROLLER_Feature.c.o
                0x000000000007a620                ARCONTROLLER_FEATURE_Common_SendControllerIsPiloting
 *fill*         0x000000000007a6cc        0x4 
 .text.ARCONTROLLER_FEATURE_Common_SendWifiSettingsOutdoorSetting
                0x000000000007a6d0       0xac /home/jose/catkin_ws/build/parrot_arsdk/arsdk/src/ARSDKBuildUtils/out/arsdk-native/build/libARController/obj/gen/Sources/ARCONTROLLER_Feature.c.o
                0x000000000007a6d0                ARCONTROLLER_FEATURE_Common_SendWifiSettingsOutdoorSetting
 *fill*         0x000000000007a77c        0x4 
 .text.ARCONTROLLER_FEATURE_Common_SendMavlinkStart
                0x000000000007a780       0xac /home/jose/catkin_ws/build/parrot_arsdk/arsdk/src/ARSDKBuildUtils/out/arsdk-native/build/libARController/obj/gen/Sources/ARCONTROLLER_Feature.c.o
                0x000000000007a780                ARCONTROLLER_FEATURE_Common_SendMavlinkStart
 *fill*         0x000000000007a82c        0x4 
 .text.ARCONTROLLER_FEATURE_Common_SendMavlinkPause
                0x000000000007a830       0xac /home/jose/catkin_ws/build/parrot_arsdk/arsdk/src/ARSDKBuildUtils/out/arsdk-native/build/libARController/obj/gen/Sources/ARCONTROLLER_Feature.c.o
                0x000000000007a830                ARCONTROLLER_FEATURE_Common_SendMavlinkPause
 *fill*         0x000000000007a8dc        0x4 
 .text.ARCONTROLLER_FEATURE_Common_SendMavlinkStop
                0x000000000007a8e0       0xac /home/jose/catkin_ws/build/parrot_arsdk/arsdk/src/ARSDKBuildUtils/out/arsdk-native/build/libARController/obj/gen/Sources/ARCONTROLLER_Feature.c.o
                0x000000000007a8e0                ARCONTROLLER_FEATURE_Common_SendMavlinkStop
 *fill*         0x000000000007a98c        0x4 
 .text.ARCONTROLLER_FEATURE_Common_SendFlightPlanSettingsReturnHomeOnDisconnect
                0x000000000007a990       0xac /home/jose/catkin_ws/build/parrot_arsdk/arsdk/src/ARSDKBuildUtils/out/arsdk-native/build/libARController/obj/gen/Sources/ARCONTROLLER_Feature.c.o
                0x000000000007a990                ARCONTROLLER_FEATURE_Common_SendFlightPlanSettingsReturnHomeOnDisconnect
 *fill*         0x000000000007aa3c        0x4 
 .text.ARCONTROLLER_FEATURE_Common_SendCalibrationMagnetoCalibration
                0x000000000007aa40       0xac /home/jose/catkin_ws/build/parrot_arsdk/arsdk/src/ARSDKBuildUtils/out/arsdk-native/build/libARController/obj/gen/Sources/ARCONTROLLER_Feature.c.o
                0x000000000007aa40                ARCONTROLLER_FEATURE_Common_SendCalibrationMagnetoCalibration
 *fill*         0x000000000007aaec        0x4 
 .text.ARCONTROLLER_FEATURE_Common_SendCalibrationPitotCalibration
                0x000000000007aaf0       0xac /home/jose/catkin_ws/build/parrot_arsdk/arsdk/src/ARSDKBuildUtils/out/arsdk-native/build/libARController/obj/gen/Sources/ARCONTROLLER_Feature.c.o
                0x000000000007aaf0                ARCONTROLLER_FEATURE_Common_SendCalibrationPitotCalibration
 *fill*         0x000000000007ab9c        0x4 
 .text.ARCONTROLLER_FEATURE_Common_SendGPSControllerPositionForRun
                0x000000000007aba0       0xac /home/jose/catkin_ws/build/parrot_arsdk/arsdk/src/ARSDKBuildUtils/out/arsdk-native/build/libARController/obj/gen/Sources/ARCONTROLLER_Feature.c.o
                0x000000000007aba0                ARCONTROLLER_FEATURE_Common_SendGPSControllerPositionForRun
 *fill*         0x000000000007ac4c        0x4 
 .text.ARCONTROLLER_FEATURE_Common_SendAudioControllerReadyForStreaming
                0x000000000007ac50       0xac /home/jose/catkin_ws/build/parrot_arsdk/arsdk/src/ARSDKBuildUtils/out/arsdk-native/build/libARController/obj/gen/Sources/ARCONTROLLER_Feature.c.o
                0x000000000007ac50                ARCONTROLLER_FEATURE_Common_SendAudioControllerReadyForStreaming
 *fill*         0x000000000007acfc        0x4 
 .text.ARCONTROLLER_FEATURE_Common_SendHeadlightsIntensity
                0x000000000007ad00       0xb4 /home/jose/catkin_ws/build/parrot_arsdk/arsdk/src/ARSDKBuildUtils/out/arsdk-native/build/libARController/obj/gen/Sources/ARCONTROLLER_Feature.c.o
                0x000000000007ad00                ARCONTROLLER_FEATURE_Common_SendHeadlightsIntensity
 *fill*         0x000000000007adb4        0xc 
 .text.ARCONTROLLER_FEATURE_Common_SendAnimationsStartAnimation
                0x000000000007adc0       0xac /home/jose/catkin_ws/build/parrot_arsdk/arsdk/src/ARSDKBuildUtils/out/arsdk-native/build/libARController/obj/gen/Sources/ARCONTROLLER_Feature.c.o
                0x000000000007adc0                ARCONTROLLER_FEATURE_Common_SendAnimationsStartAnimation
 *fill*         0x000000000007ae6c        0x4 
 .text.ARCONTROLLER_FEATURE_Common_SendAnimationsStopAnimation
                0x000000000007ae70       0xac /home/jose/catkin_ws/build/parrot_arsdk/arsdk/src/ARSDKBuildUtils/out/arsdk-native/build/libARController/obj/gen/Sources/ARCONTROLLER_Feature.c.o
                0x000000000007ae70                ARCONTROLLER_FEATURE_Common_SendAnimationsStopAnimation
 *fill*         0x000000000007af1c        0x4 
 .text.ARCONTROLLER_FEATURE_Common_SendAnimationsStopAllAnimations
                0x000000000007af20       0xac /home/jose/catkin_ws/build/parrot_arsdk/arsdk/src/ARSDKBuildUtils/out/arsdk-native/build/libARController/obj/gen/Sources/ARCONTROLLER_Feature.c.o
                0x000000000007af20                ARCONTROLLER_FEATURE_Common_SendAnimationsStopAllAnimations
 *fill*         0x000000000007afcc        0x4 
 .text.ARCONTROLLER_FEATURE_Common_SendAccessoryConfig
                0x000000000007afd0       0xac /home/jose/catkin_ws/build/parrot_arsdk/arsdk/src/ARSDKBuildUtils/out/arsdk-native/build/libARController/obj/gen/Sources/ARCONTROLLER_Feature.c.o
                0x000000000007afd0                ARCONTROLLER_FEATURE_Common_SendAccessoryConfig
 *fill*         0x000000000007b07c        0x4 
 .text.ARCONTROLLER_FEATURE_Common_SendChargerSetMaxChargeRate
                0x000000000007b080       0xac /home/jose/catkin_ws/build/parrot_arsdk/arsdk/src/ARSDKBuildUtils/out/arsdk-native/build/libARController/obj/gen/Sources/ARCONTROLLER_Feature.c.o
                0x000000000007b080                ARCONTROLLER_FEATURE_Common_SendChargerSetMaxChargeRate
 *fill*         0x000000000007b12c        0x4 
 .text.ARCONTROLLER_FEATURE_Common_SendFactoryReset
                0x000000000007b130       0xac /home/jose/catkin_ws/build/parrot_arsdk/arsdk/src/ARSDKBuildUtils/out/arsdk-native/build/libARController/obj/gen/Sources/ARCONTROLLER_Feature.c.o
                0x000000000007b130                ARCONTROLLER_FEATURE_Common_SendFactoryReset
 *fill*         0x000000000007b1dc        0x4 
 .text.ARCONTROLLER_FEATURE_ControllerInfo_SendGps
                0x000000000007b1e0       0xac /home/jose/catkin_ws/build/parrot_arsdk/arsdk/src/ARSDKBuildUtils/out/arsdk-native/build/libARController/obj/gen/Sources/ARCONTROLLER_Feature.c.o
                0x000000000007b1e0                ARCONTROLLER_FEATURE_ControllerInfo_SendGps
 *fill*         0x000000000007b28c        0x4 
 .text.ARCONTROLLER_FEATURE_ControllerInfo_SetGps
                0x000000000007b290       0x66 /home/jose/catkin_ws/build/parrot_arsdk/arsdk/src/ARSDKBuildUtils/out/arsdk-native/build/libARController/obj/gen/Sources/ARCONTROLLER_Feature.c.o
                0x000000000007b290                ARCONTROLLER_FEATURE_ControllerInfo_SetGps
 *fill*         0x000000000007b2f6        0xa 
 .text.ARCONTROLLER_FEATURE_ControllerInfo_SetGpsLatitude
                0x000000000007b300       0x36 /home/jose/catkin_ws/build/parrot_arsdk/arsdk/src/ARSDKBuildUtils/out/arsdk-native/build/libARController/obj/gen/Sources/ARCONTROLLER_Feature.c.o
                0x000000000007b300                ARCONTROLLER_FEATURE_ControllerInfo_SetGpsLatitude
 *fill*         0x000000000007b336        0xa 
 .text.ARCONTROLLER_FEATURE_ControllerInfo_SetGpsLongitude
                0x000000000007b340       0x36 /home/jose/catkin_ws/build/parrot_arsdk/arsdk/src/ARSDKBuildUtils/out/arsdk-native/build/libARController/obj/gen/Sources/ARCONTROLLER_Feature.c.o
                0x000000000007b340                ARCONTROLLER_FEATURE_ControllerInfo_SetGpsLongitude
 *fill*         0x000000000007b376        0xa 
 .text.ARCONTROLLER_FEATURE_ControllerInfo_SetGpsAltitude
                0x000000000007b380       0x36 /home/jose/catkin_ws/build/parrot_arsdk/arsdk/src/ARSDKBuildUtils/out/arsdk-native/build/libARController/obj/gen/Sources/ARCONTROLLER_Feature.c.o
                0x000000000007b380                ARCONTROLLER_FEATURE_ControllerInfo_SetGpsAltitude
 *fill*         0x000000000007b3b6        0xa 
 .text.ARCONTROLLER_FEATURE_ControllerInfo_SetGpsHorizontalAccuracy
                0x000000000007b3c0       0x36 /home/jose/catkin_ws/build/parrot_arsdk/arsdk/src/ARSDKBuildUtils/out/arsdk-native/build/libARController/obj/gen/Sources/ARCONTROLLER_Feature.c.o
                0x000000000007b3c0                ARCONTROLLER_FEATURE_ControllerInfo_SetGpsHorizontalAccuracy
 *fill*         0x000000000007b3f6        0xa 
 .text.ARCONTROLLER_FEATURE_ControllerInfo_SetGpsVerticalAccuracy
                0x000000000007b400       0x36 /home/jose/catkin_ws/build/parrot_arsdk/arsdk/src/ARSDKBuildUtils/out/arsdk-native/build/libARController/obj/gen/Sources/ARCONTROLLER_Feature.c.o
                0x000000000007b400                ARCONTROLLER_FEATURE_ControllerInfo_SetGpsVerticalAccuracy
 *fill*         0x000000000007b436        0xa 
 .text.ARCONTROLLER_FEATURE_ControllerInfo_SetGpsNorthSpeed
                0x000000000007b440       0x36 /home/jose/catkin_ws/build/parrot_arsdk/arsdk/src/ARSDKBuildUtils/out/arsdk-native/build/libARController/obj/gen/Sources/ARCONTROLLER_Feature.c.o
                0x000000000007b440                ARCONTROLLER_FEATURE_ControllerInfo_SetGpsNorthSpeed
 *fill*         0x000000000007b476        0xa 
 .text.ARCONTROLLER_FEATURE_ControllerInfo_SetGpsEastSpeed
                0x000000000007b480       0x36 /home/jose/catkin_ws/build/parrot_arsdk/arsdk/src/ARSDKBuildUtils/out/arsdk-native/build/libARController/obj/gen/Sources/ARCONTROLLER_Feature.c.o
                0x000000000007b480                ARCONTROLLER_FEATURE_ControllerInfo_SetGpsEastSpeed
 *fill*         0x000000000007b4b6        0xa 
 .text.ARCONTROLLER_FEATURE_ControllerInfo_SetGpsDownSpeed
                0x000000000007b4c0       0x36 /home/jose/catkin_ws/build/parrot_arsdk/arsdk/src/ARSDKBuildUtils/out/arsdk-native/build/libARController/obj/gen/Sources/ARCONTROLLER_Feature.c.o
                0x000000000007b4c0                ARCONTROLLER_FEATURE_ControllerInfo_SetGpsDownSpeed
 *fill*         0x000000000007b4f6        0xa 
 .text.ARCONTROLLER_FEATURE_ControllerInfo_SetGpsTimestamp
                0x000000000007b500       0x36 /home/jose/catkin_ws/build/parrot_arsdk/arsdk/src/ARSDKBuildUtils/out/arsdk-native/build/libARController/obj/gen/Sources/ARCONTROLLER_Feature.c.o
                0x000000000007b500                ARCONTROLLER_FEATURE_ControllerInfo_SetGpsTimestamp
 *fill*         0x000000000007b536        0xa 
 .text.ARCONTROLLER_FEATURE_ControllerInfo_SendBarometer
                0x000000000007b540       0xa4 /home/jose/catkin_ws/build/parrot_arsdk/arsdk/src/ARSDKBuildUtils/out/arsdk-native/build/libARController/obj/gen/Sources/ARCONTROLLER_Feature.c.o
                0x000000000007b540                ARCONTROLLER_FEATURE_ControllerInfo_SendBarometer
 *fill*         0x000000000007b5e4        0xc 
 .text.ARCONTROLLER_FEATURE_ControllerInfo_SetBarometer
                0x000000000007b5f0       0x3e /home/jose/catkin_ws/build/parrot_arsdk/arsdk/src/ARSDKBuildUtils/out/arsdk-native/build/libARController/obj/gen/Sources/ARCONTROLLER_Feature.c.o
                0x000000000007b5f0                ARCONTROLLER_FEATURE_ControllerInfo_SetBarometer
 *fill*         0x000000000007b62e        0x2 
 .text.ARCONTROLLER_FEATURE_ControllerInfo_SetBarometerPressure
                0x000000000007b630       0x36 /home/jose/catkin_ws/build/parrot_arsdk/arsdk/src/ARSDKBuildUtils/out/arsdk-native/build/libARController/obj/gen/Sources/ARCONTROLLER_Feature.c.o
                0x000000000007b630                ARCONTROLLER_FEATURE_ControllerInfo_SetBarometerPressure
 *fill*         0x000000000007b666        0xa 
 .text.ARCONTROLLER_FEATURE_ControllerInfo_SetBarometerTimestamp
                0x000000000007b670       0x36 /home/jose/catkin_ws/build/parrot_arsdk/arsdk/src/ARSDKBuildUtils/out/arsdk-native/build/libARController/obj/gen/Sources/ARCONTROLLER_Feature.c.o
                0x000000000007b670                ARCONTROLLER_FEATURE_ControllerInfo_SetBarometerTimestamp
 *fill*         0x000000000007b6a6        0xa 
 .text.ARCONTROLLER_FEATURE_Debug_SendGetAllSettings
                0x000000000007b6b0       0xa4 /home/jose/catkin_ws/build/parrot_arsdk/arsdk/src/ARSDKBuildUtils/out/arsdk-native/build/libARController/obj/gen/Sources/ARCONTROLLER_Feature.c.o
                0x000000000007b6b0                ARCONTROLLER_FEATURE_Debug_SendGetAllSettings
 *fill*         0x000000000007b754        0xc 
 .text.ARCONTROLLER_FEATURE_Debug_SendSetSetting
                0x000000000007b760       0xac /home/jose/catkin_ws/build/parrot_arsdk/arsdk/src/ARSDKBuildUtils/out/arsdk-native/build/libARController/obj/gen/Sources/ARCONTROLLER_Feature.c.o
                0x000000000007b760                ARCONTROLLER_FEATURE_Debug_SendSetSetting
 *fill*         0x000000000007b80c        0x4 
 .text.ARCONTROLLER_FEATURE_DroneManager_SendDiscoverDrones
                0x000000000007b810       0xa4 /home/jose/catkin_ws/build/parrot_arsdk/arsdk/src/ARSDKBuildUtils/out/arsdk-native/build/libARController/obj/gen/Sources/ARCONTROLLER_Feature.c.o
                0x000000000007b810                ARCONTROLLER_FEATURE_DroneManager_SendDiscoverDrones
 *fill*         0x000000000007b8b4        0xc 
 .text.ARCONTROLLER_FEATURE_DroneManager_SendConnect
                0x000000000007b8c0       0xac /home/jose/catkin_ws/build/parrot_arsdk/arsdk/src/ARSDKBuildUtils/out/arsdk-native/build/libARController/obj/gen/Sources/ARCONTROLLER_Feature.c.o
                0x000000000007b8c0                ARCONTROLLER_FEATURE_DroneManager_SendConnect
 *fill*         0x000000000007b96c        0x4 
 .text.ARCONTROLLER_FEATURE_DroneManager_SendForget
                0x000000000007b970       0xac /home/jose/catkin_ws/build/parrot_arsdk/arsdk/src/ARSDKBuildUtils/out/arsdk-native/build/libARController/obj/gen/Sources/ARCONTROLLER_Feature.c.o
                0x000000000007b970                ARCONTROLLER_FEATURE_DroneManager_SendForget
 *fill*         0x000000000007ba1c        0x4 
 .text.ARCONTROLLER_FEATURE_FollowMe_SendStart
                0x000000000007ba20       0xac /home/jose/catkin_ws/build/parrot_arsdk/arsdk/src/ARSDKBuildUtils/out/arsdk-native/build/libARController/obj/gen/Sources/ARCONTROLLER_Feature.c.o
                0x000000000007ba20                ARCONTROLLER_FEATURE_FollowMe_SendStart
 *fill*         0x000000000007bacc        0x4 
 .text.ARCONTROLLER_FEATURE_FollowMe_SendStop
                0x000000000007bad0       0xa4 /home/jose/catkin_ws/build/parrot_arsdk/arsdk/src/ARSDKBuildUtils/out/arsdk-native/build/libARController/obj/gen/Sources/ARCONTROLLER_Feature.c.o
                0x000000000007bad0                ARCONTROLLER_FEATURE_FollowMe_SendStop
 *fill*         0x000000000007bb74        0xc 
 .text.ARCONTROLLER_FEATURE_FollowMe_SendConfigureGeographic
                0x000000000007bb80       0xac /home/jose/catkin_ws/build/parrot_arsdk/arsdk/src/ARSDKBuildUtils/out/arsdk-native/build/libARController/obj/gen/Sources/ARCONTROLLER_Feature.c.o
                0x000000000007bb80                ARCONTROLLER_FEATURE_FollowMe_SendConfigureGeographic
 *fill*         0x000000000007bc2c        0x4 
 .text.ARCONTROLLER_FEATURE_FollowMe_SendConfigureRelative
                0x000000000007bc30       0xac /home/jose/catkin_ws/build/parrot_arsdk/arsdk/src/ARSDKBuildUtils/out/arsdk-native/build/libARController/obj/gen/Sources/ARCONTROLLER_Feature.c.o
                0x000000000007bc30                ARCONTROLLER_FEATURE_FollowMe_SendConfigureRelative
 *fill*         0x000000000007bcdc        0x4 
 .text.ARCONTROLLER_FEATURE_FollowMe_SendStopAnimation
                0x000000000007bce0       0xa4 /home/jose/catkin_ws/build/parrot_arsdk/arsdk/src/ARSDKBuildUtils/out/arsdk-native/build/libARController/obj/gen/Sources/ARCONTROLLER_Feature.c.o
                0x000000000007bce0                ARCONTROLLER_FEATURE_FollowMe_SendStopAnimation
 *fill*         0x000000000007bd84        0xc 
 .text.ARCONTROLLER_FEATURE_FollowMe_SendStartHelicoidAnim
                0x000000000007bd90       0xac /home/jose/catkin_ws/build/parrot_arsdk/arsdk/src/ARSDKBuildUtils/out/arsdk-native/build/libARController/obj/gen/Sources/ARCONTROLLER_Feature.c.o
                0x000000000007bd90                ARCONTROLLER_FEATURE_FollowMe_SendStartHelicoidAnim
 *fill*         0x000000000007be3c        0x4 
 .text.ARCONTROLLER_FEATURE_FollowMe_SendStartSwingAnim
                0x000000000007be40       0xac /home/jose/catkin_ws/build/parrot_arsdk/arsdk/src/ARSDKBuildUtils/out/arsdk-native/build/libARController/obj/gen/Sources/ARCONTROLLER_Feature.c.o
                0x000000000007be40                ARCONTROLLER_FEATURE_FollowMe_SendStartSwingAnim
 *fill*         0x000000000007beec        0x4 
 .text.ARCONTROLLER_FEATURE_FollowMe_SendStartBoomerangAnim
                0x000000000007bef0       0xac /home/jose/catkin_ws/build/parrot_arsdk/arsdk/src/ARSDKBuildUtils/out/arsdk-native/build/libARController/obj/gen/Sources/ARCONTROLLER_Feature.c.o
                0x000000000007bef0                ARCONTROLLER_FEATURE_FollowMe_SendStartBoomerangAnim
 *fill*         0x000000000007bf9c        0x4 
 .text.ARCONTROLLER_FEATURE_FollowMe_SendStartCandleAnim
                0x000000000007bfa0       0xac /home/jose/catkin_ws/build/parrot_arsdk/arsdk/src/ARSDKBuildUtils/out/arsdk-native/build/libARController/obj/gen/Sources/ARCONTROLLER_Feature.c.o
                0x000000000007bfa0                ARCONTROLLER_FEATURE_FollowMe_SendStartCandleAnim
 *fill*         0x000000000007c04c        0x4 
 .text.ARCONTROLLER_FEATURE_FollowMe_SendStartDollySlideAnim
                0x000000000007c050       0xac /home/jose/catkin_ws/build/parrot_arsdk/arsdk/src/ARSDKBuildUtils/out/arsdk-native/build/libARController/obj/gen/Sources/ARCONTROLLER_Feature.c.o
                0x000000000007c050                ARCONTROLLER_FEATURE_FollowMe_SendStartDollySlideAnim
 *fill*         0x000000000007c0fc        0x4 
 .text.ARCONTROLLER_FEATURE_FollowMe_SendTargetFramingPosition
                0x000000000007c100       0xac /home/jose/catkin_ws/build/parrot_arsdk/arsdk/src/ARSDKBuildUtils/out/arsdk-native/build/libARController/obj/gen/Sources/ARCONTROLLER_Feature.c.o
                0x000000000007c100                ARCONTROLLER_FEATURE_FollowMe_SendTargetFramingPosition
 *fill*         0x000000000007c1ac        0x4 
 .text.ARCONTROLLER_FEATURE_FollowMe_SendTargetImageDetection
                0x000000000007c1b0       0xb4 /home/jose/catkin_ws/build/parrot_arsdk/arsdk/src/ARSDKBuildUtils/out/arsdk-native/build/libARController/obj/gen/Sources/ARCONTROLLER_Feature.c.o
                0x000000000007c1b0                ARCONTROLLER_FEATURE_FollowMe_SendTargetImageDetection
 *fill*         0x000000000007c264        0xc 
 .text.ARCONTROLLER_FEATURE_JumpingSumo_SendPilotingPCMD
                0x000000000007c270       0xbc /home/jose/catkin_ws/build/parrot_arsdk/arsdk/src/ARSDKBuildUtils/out/arsdk-native/build/libARController/obj/gen/Sources/ARCONTROLLER_Feature.c.o
                0x000000000007c270                ARCONTROLLER_FEATURE_JumpingSumo_SendPilotingPCMD
 *fill*         0x000000000007c32c        0x4 
 .text.ARCONTROLLER_FEATURE_JumpingSumo_SendPilotingPosture
                0x000000000007c330       0xac /home/jose/catkin_ws/build/parrot_arsdk/arsdk/src/ARSDKBuildUtils/out/arsdk-native/build/libARController/obj/gen/Sources/ARCONTROLLER_Feature.c.o
                0x000000000007c330                ARCONTROLLER_FEATURE_JumpingSumo_SendPilotingPosture
 *fill*         0x000000000007c3dc        0x4 
 .text.ARCONTROLLER_FEATURE_JumpingSumo_SendPilotingAddCapOffset
                0x000000000007c3e0       0xac /home/jose/catkin_ws/build/parrot_arsdk/arsdk/src/ARSDKBuildUtils/out/arsdk-native/build/libARController/obj/gen/Sources/ARCONTROLLER_Feature.c.o
                0x000000000007c3e0                ARCONTROLLER_FEATURE_JumpingSumo_SendPilotingAddCapOffset
 *fill*         0x000000000007c48c        0x4 
 .text.ARCONTROLLER_FEATURE_JumpingSumo_SendAnimationsJumpStop
                0x000000000007c490       0xac /home/jose/catkin_ws/build/parrot_arsdk/arsdk/src/ARSDKBuildUtils/out/arsdk-native/build/libARController/obj/gen/Sources/ARCONTROLLER_Feature.c.o
                0x000000000007c490                ARCONTROLLER_FEATURE_JumpingSumo_SendAnimationsJumpStop
 *fill*         0x000000000007c53c        0x4 
 .text.ARCONTROLLER_FEATURE_JumpingSumo_SendAnimationsJumpCancel
                0x000000000007c540       0xac /home/jose/catkin_ws/build/parrot_arsdk/arsdk/src/ARSDKBuildUtils/out/arsdk-native/build/libARController/obj/gen/Sources/ARCONTROLLER_Feature.c.o
                0x000000000007c540                ARCONTROLLER_FEATURE_JumpingSumo_SendAnimationsJumpCancel
 *fill*         0x000000000007c5ec        0x4 
 .text.ARCONTROLLER_FEATURE_JumpingSumo_SendAnimationsJumpLoad
                0x000000000007c5f0       0xac /home/jose/catkin_ws/build/parrot_arsdk/arsdk/src/ARSDKBuildUtils/out/arsdk-native/build/libARController/obj/gen/Sources/ARCONTROLLER_Feature.c.o
                0x000000000007c5f0                ARCONTROLLER_FEATURE_JumpingSumo_SendAnimationsJumpLoad
 *fill*         0x000000000007c69c        0x4 
 .text.ARCONTROLLER_FEATURE_JumpingSumo_SendAnimationsJump
                0x000000000007c6a0       0xac /home/jose/catkin_ws/build/parrot_arsdk/arsdk/src/ARSDKBuildUtils/out/arsdk-native/build/libARController/obj/gen/Sources/ARCONTROLLER_Feature.c.o
                0x000000000007c6a0                ARCONTROLLER_FEATURE_JumpingSumo_SendAnimationsJump
 *fill*         0x000000000007c74c        0x4 
 .text.ARCONTROLLER_FEATURE_JumpingSumo_SendAnimationsSimpleAnimation
                0x000000000007c750       0xac /home/jose/catkin_ws/build/parrot_arsdk/arsdk/src/ARSDKBuildUtils/out/arsdk-native/build/libARController/obj/gen/Sources/ARCONTROLLER_Feature.c.o
                0x000000000007c750                ARCONTROLLER_FEATURE_JumpingSumo_SendAnimationsSimpleAnimation
 *fill*         0x000000000007c7fc        0x4 
 .text.ARCONTROLLER_FEATURE_JumpingSumo_SendMediaRecordPicture
                0x000000000007c800       0xac /home/jose/catkin_ws/build/parrot_arsdk/arsdk/src/ARSDKBuildUtils/out/arsdk-native/build/libARController/obj/gen/Sources/ARCONTROLLER_Feature.c.o
                0x000000000007c800                ARCONTROLLER_FEATURE_JumpingSumo_SendMediaRecordPicture
 *fill*         0x000000000007c8ac        0x4 
 .text.ARCONTROLLER_FEATURE_JumpingSumo_SendMediaRecordVideo
                0x000000000007c8b0       0xb4 /home/jose/catkin_ws/build/parrot_arsdk/arsdk/src/ARSDKBuildUtils/out/arsdk-native/build/libARController/obj/gen/Sources/ARCONTROLLER_Feature.c.o
                0x000000000007c8b0                ARCONTROLLER_FEATURE_JumpingSumo_SendMediaRecordVideo
 *fill*         0x000000000007c964        0xc 
 .text.ARCONTROLLER_FEATURE_JumpingSumo_SendMediaRecordPictureV2
                0x000000000007c970       0xac /home/jose/catkin_ws/build/parrot_arsdk/arsdk/src/ARSDKBuildUtils/out/arsdk-native/build/libARController/obj/gen/Sources/ARCONTROLLER_Feature.c.o
                0x000000000007c970                ARCONTROLLER_FEATURE_JumpingSumo_SendMediaRecordPictureV2
 *fill*         0x000000000007ca1c        0x4 
 .text.ARCONTROLLER_FEATURE_JumpingSumo_SendMediaRecordVideoV2
                0x000000000007ca20       0xac /home/jose/catkin_ws/build/parrot_arsdk/arsdk/src/ARSDKBuildUtils/out/arsdk-native/build/libARController/obj/gen/Sources/ARCONTROLLER_Feature.c.o
                0x000000000007ca20                ARCONTROLLER_FEATURE_JumpingSumo_SendMediaRecordVideoV2
 *fill*         0x000000000007cacc        0x4 
 .text.ARCONTROLLER_FEATURE_JumpingSumo_SendNetworkSettingsWifiSelection
                0x000000000007cad0       0xb4 /home/jose/catkin_ws/build/parrot_arsdk/arsdk/src/ARSDKBuildUtils/out/arsdk-native/build/libARController/obj/gen/Sources/ARCONTROLLER_Feature.c.o
                0x000000000007cad0                ARCONTROLLER_FEATURE_JumpingSumo_SendNetworkSettingsWifiSelection
 *fill*         0x000000000007cb84        0xc 
 .text.ARCONTROLLER_FEATURE_JumpingSumo_SendNetworkWifiScan
                0x000000000007cb90       0xac /home/jose/catkin_ws/build/parrot_arsdk/arsdk/src/ARSDKBuildUtils/out/arsdk-native/build/libARController/obj/gen/Sources/ARCONTROLLER_Feature.c.o
                0x000000000007cb90                ARCONTROLLER_FEATURE_JumpingSumo_SendNetworkWifiScan
 *fill*         0x000000000007cc3c        0x4 
 .text.ARCONTROLLER_FEATURE_JumpingSumo_SendNetworkWifiAuthChannel
                0x000000000007cc40       0xac /home/jose/catkin_ws/build/parrot_arsdk/arsdk/src/ARSDKBuildUtils/out/arsdk-native/build/libARController/obj/gen/Sources/ARCONTROLLER_Feature.c.o
                0x000000000007cc40                ARCONTROLLER_FEATURE_JumpingSumo_SendNetworkWifiAuthChannel
 *fill*         0x000000000007ccec        0x4 
 .text.ARCONTROLLER_FEATURE_JumpingSumo_SendAudioSettingsMasterVolume
                0x000000000007ccf0       0xac /home/jose/catkin_ws/build/parrot_arsdk/arsdk/src/ARSDKBuildUtils/out/arsdk-native/build/libARController/obj/gen/Sources/ARCONTROLLER_Feature.c.o
                0x000000000007ccf0                ARCONTROLLER_FEATURE_JumpingSumo_SendAudioSettingsMasterVolume
 *fill*         0x000000000007cd9c        0x4 
 .text.ARCONTROLLER_FEATURE_JumpingSumo_SendAudioSettingsTheme
                0x000000000007cda0       0xac /home/jose/catkin_ws/build/parrot_arsdk/arsdk/src/ARSDKBuildUtils/out/arsdk-native/build/libARController/obj/gen/Sources/ARCONTROLLER_Feature.c.o
                0x000000000007cda0                ARCONTROLLER_FEATURE_JumpingSumo_SendAudioSettingsTheme
 *fill*         0x000000000007ce4c        0x4 
 .text.ARCONTROLLER_FEATURE_JumpingSumo_SendRoadPlanAllScriptsMetadata
                0x000000000007ce50       0xac /home/jose/catkin_ws/build/parrot_arsdk/arsdk/src/ARSDKBuildUtils/out/arsdk-native/build/libARController/obj/gen/Sources/ARCONTROLLER_Feature.c.o
                0x000000000007ce50                ARCONTROLLER_FEATURE_JumpingSumo_SendRoadPlanAllScriptsMetadata
 *fill*         0x000000000007cefc        0x4 
 .text.ARCONTROLLER_FEATURE_JumpingSumo_SendRoadPlanScriptUploaded
                0x000000000007cf00       0xac /home/jose/catkin_ws/build/parrot_arsdk/arsdk/src/ARSDKBuildUtils/out/arsdk-native/build/libARController/obj/gen/Sources/ARCONTROLLER_Feature.c.o
                0x000000000007cf00                ARCONTROLLER_FEATURE_JumpingSumo_SendRoadPlanScriptUploaded
 *fill*         0x000000000007cfac        0x4 
 .text.ARCONTROLLER_FEATURE_JumpingSumo_SendRoadPlanScriptDelete
                0x000000000007cfb0       0xac /home/jose/catkin_ws/build/parrot_arsdk/arsdk/src/ARSDKBuildUtils/out/arsdk-native/build/libARController/obj/gen/Sources/ARCONTROLLER_Feature.c.o
                0x000000000007cfb0                ARCONTROLLER_FEATURE_JumpingSumo_SendRoadPlanScriptDelete
 *fill*         0x000000000007d05c        0x4 
 .text.ARCONTROLLER_FEATURE_JumpingSumo_SendRoadPlanPlayScript
                0x000000000007d060       0xac /home/jose/catkin_ws/build/parrot_arsdk/arsdk/src/ARSDKBuildUtils/out/arsdk-native/build/libARController/obj/gen/Sources/ARCONTROLLER_Feature.c.o
                0x000000000007d060                ARCONTROLLER_FEATURE_JumpingSumo_SendRoadPlanPlayScript
 *fill*         0x000000000007d10c        0x4 
 .text.ARCONTROLLER_FEATURE_JumpingSumo_SendSpeedSettingsOutdoor
                0x000000000007d110       0xac /home/jose/catkin_ws/build/parrot_arsdk/arsdk/src/ARSDKBuildUtils/out/arsdk-native/build/libARController/obj/gen/Sources/ARCONTROLLER_Feature.c.o
                0x000000000007d110                ARCONTROLLER_FEATURE_JumpingSumo_SendSpeedSettingsOutdoor
 *fill*         0x000000000007d1bc        0x4 
 .text.ARCONTROLLER_FEATURE_JumpingSumo_SendMediaStreamingVideoEnable
                0x000000000007d1c0       0xac /home/jose/catkin_ws/build/parrot_arsdk/arsdk/src/ARSDKBuildUtils/out/arsdk-native/build/libARController/obj/gen/Sources/ARCONTROLLER_Feature.c.o
                0x000000000007d1c0                ARCONTROLLER_FEATURE_JumpingSumo_SendMediaStreamingVideoEnable
 *fill*         0x000000000007d26c        0x4 
 .text.ARCONTROLLER_FEATURE_JumpingSumo_SendVideoSettingsAutorecord
                0x000000000007d270       0xac /home/jose/catkin_ws/build/parrot_arsdk/arsdk/src/ARSDKBuildUtils/out/arsdk-native/build/libARController/obj/gen/Sources/ARCONTROLLER_Feature.c.o
                0x000000000007d270                ARCONTROLLER_FEATURE_JumpingSumo_SendVideoSettingsAutorecord
 *fill*         0x000000000007d31c        0x4 
 .text.ARCONTROLLER_FEATURE_Mapper_SendGrab
                0x000000000007d320       0xac /home/jose/catkin_ws/build/parrot_arsdk/arsdk/src/ARSDKBuildUtils/out/arsdk-native/build/libARController/obj/gen/Sources/ARCONTROLLER_Feature.c.o
                0x000000000007d320                ARCONTROLLER_FEATURE_Mapper_SendGrab
 *fill*         0x000000000007d3cc        0x4 
 .text.ARCONTROLLER_FEATURE_Mapper_SendMapButtonAction
                0x000000000007d3d0       0xac /home/jose/catkin_ws/build/parrot_arsdk/arsdk/src/ARSDKBuildUtils/out/arsdk-native/build/libARController/obj/gen/Sources/ARCONTROLLER_Feature.c.o
                0x000000000007d3d0                ARCONTROLLER_FEATURE_Mapper_SendMapButtonAction
 *fill*         0x000000000007d47c        0x4 
 .text.ARCONTROLLER_FEATURE_Mapper_SendMapAxisAction
                0x000000000007d480       0xbc /home/jose/catkin_ws/build/parrot_arsdk/arsdk/src/ARSDKBuildUtils/out/arsdk-native/build/libARController/obj/gen/Sources/ARCONTROLLER_Feature.c.o
                0x000000000007d480                ARCONTROLLER_FEATURE_Mapper_SendMapAxisAction
 *fill*         0x000000000007d53c        0x4 
 .text.ARCONTROLLER_FEATURE_Mapper_SendResetMapping
                0x000000000007d540       0xac /home/jose/catkin_ws/build/parrot_arsdk/arsdk/src/ARSDKBuildUtils/out/arsdk-native/build/libARController/obj/gen/Sources/ARCONTROLLER_Feature.c.o
                0x000000000007d540                ARCONTROLLER_FEATURE_Mapper_SendResetMapping
 *fill*         0x000000000007d5ec        0x4 
 .text.ARCONTROLLER_FEATURE_Mapper_SendSetExpo
                0x000000000007d5f0       0xac /home/jose/catkin_ws/build/parrot_arsdk/arsdk/src/ARSDKBuildUtils/out/arsdk-native/build/libARController/obj/gen/Sources/ARCONTROLLER_Feature.c.o
                0x000000000007d5f0                ARCONTROLLER_FEATURE_Mapper_SendSetExpo
 *fill*         0x000000000007d69c        0x4 
 .text.ARCONTROLLER_FEATURE_Mapper_SendSetInverted
                0x000000000007d6a0       0xb4 /home/jose/catkin_ws/build/parrot_arsdk/arsdk/src/ARSDKBuildUtils/out/arsdk-native/build/libARController/obj/gen/Sources/ARCONTROLLER_Feature.c.o
                0x000000000007d6a0                ARCONTROLLER_FEATURE_Mapper_SendSetInverted
 *fill*         0x000000000007d754        0xc 
 .text.ARCONTROLLER_FEATURE_MapperMini_SendMapButtonAction
                0x000000000007d760       0xac /home/jose/catkin_ws/build/parrot_arsdk/arsdk/src/ARSDKBuildUtils/out/arsdk-native/build/libARController/obj/gen/Sources/ARCONTROLLER_Feature.c.o
                0x000000000007d760                ARCONTROLLER_FEATURE_MapperMini_SendMapButtonAction
 *fill*         0x000000000007d80c        0x4 
 .text.ARCONTROLLER_FEATURE_MapperMini_SendMapAxisAction
                0x000000000007d810       0xbc /home/jose/catkin_ws/build/parrot_arsdk/arsdk/src/ARSDKBuildUtils/out/arsdk-native/build/libARController/obj/gen/Sources/ARCONTROLLER_Feature.c.o
                0x000000000007d810                ARCONTROLLER_FEATURE_MapperMini_SendMapAxisAction
 *fill*         0x000000000007d8cc        0x4 
 .text.ARCONTROLLER_FEATURE_MapperMini_SendResetMapping
                0x000000000007d8d0       0xac /home/jose/catkin_ws/build/parrot_arsdk/arsdk/src/ARSDKBuildUtils/out/arsdk-native/build/libARController/obj/gen/Sources/ARCONTROLLER_Feature.c.o
                0x000000000007d8d0                ARCONTROLLER_FEATURE_MapperMini_SendResetMapping
 *fill*         0x000000000007d97c        0x4 
 .text.ARCONTROLLER_FEATURE_MiniDrone_SendPilotingFlatTrim
                0x000000000007d980       0xac /home/jose/catkin_ws/build/parrot_arsdk/arsdk/src/ARSDKBuildUtils/out/arsdk-native/build/libARController/obj/gen/Sources/ARCONTROLLER_Feature.c.o
                0x000000000007d980                ARCONTROLLER_FEATURE_MiniDrone_SendPilotingFlatTrim
 *fill*         0x000000000007da2c        0x4 
 .text.ARCONTROLLER_FEATURE_MiniDrone_SendPilotingTakeOff
                0x000000000007da30       0xac /home/jose/catkin_ws/build/parrot_arsdk/arsdk/src/ARSDKBuildUtils/out/arsdk-native/build/libARController/obj/gen/Sources/ARCONTROLLER_Feature.c.o
                0x000000000007da30                ARCONTROLLER_FEATURE_MiniDrone_SendPilotingTakeOff
 *fill*         0x000000000007dadc        0x4 
 .text.ARCONTROLLER_FEATURE_MiniDrone_SendPilotingPCMD
                0x000000000007dae0       0xd4 /home/jose/catkin_ws/build/parrot_arsdk/arsdk/src/ARSDKBuildUtils/out/arsdk-native/build/libARController/obj/gen/Sources/ARCONTROLLER_Feature.c.o
                0x000000000007dae0                ARCONTROLLER_FEATURE_MiniDrone_SendPilotingPCMD
 *fill*         0x000000000007dbb4        0xc 
 .text.ARCONTROLLER_FEATURE_MiniDrone_SendPilotingLanding
                0x000000000007dbc0       0xac /home/jose/catkin_ws/build/parrot_arsdk/arsdk/src/ARSDKBuildUtils/out/arsdk-native/build/libARController/obj/gen/Sources/ARCONTROLLER_Feature.c.o
                0x000000000007dbc0                ARCONTROLLER_FEATURE_MiniDrone_SendPilotingLanding
 *fill*         0x000000000007dc6c        0x4 
 .text.ARCONTROLLER_FEATURE_MiniDrone_SendPilotingEmergency
                0x000000000007dc70       0xac /home/jose/catkin_ws/build/parrot_arsdk/arsdk/src/ARSDKBuildUtils/out/arsdk-native/build/libARController/obj/gen/Sources/ARCONTROLLER_Feature.c.o
                0x000000000007dc70                ARCONTROLLER_FEATURE_MiniDrone_SendPilotingEmergency
 *fill*         0x000000000007dd1c        0x4 
 .text.ARCONTROLLER_FEATURE_MiniDrone_SendPilotingAutoTakeOffMode
                0x000000000007dd20       0xac /home/jose/catkin_ws/build/parrot_arsdk/arsdk/src/ARSDKBuildUtils/out/arsdk-native/build/libARController/obj/gen/Sources/ARCONTROLLER_Feature.c.o
                0x000000000007dd20                ARCONTROLLER_FEATURE_MiniDrone_SendPilotingAutoTakeOffMode
 *fill*         0x000000000007ddcc        0x4 
 .text.ARCONTROLLER_FEATURE_MiniDrone_SendPilotingFlyingMode
                0x000000000007ddd0       0xac /home/jose/catkin_ws/build/parrot_arsdk/arsdk/src/ARSDKBuildUtils/out/arsdk-native/build/libARController/obj/gen/Sources/ARCONTROLLER_Feature.c.o
                0x000000000007ddd0                ARCONTROLLER_FEATURE_MiniDrone_SendPilotingFlyingMode
 *fill*         0x000000000007de7c        0x4 
 .text.ARCONTROLLER_FEATURE_MiniDrone_SendPilotingPlaneGearBox
                0x000000000007de80       0xac /home/jose/catkin_ws/build/parrot_arsdk/arsdk/src/ARSDKBuildUtils/out/arsdk-native/build/libARController/obj/gen/Sources/ARCONTROLLER_Feature.c.o
                0x000000000007de80                ARCONTROLLER_FEATURE_MiniDrone_SendPilotingPlaneGearBox
 *fill*         0x000000000007df2c        0x4 
 .text.ARCONTROLLER_FEATURE_MiniDrone_SendPilotingTogglePilotingMode
                0x000000000007df30       0xac /home/jose/catkin_ws/build/parrot_arsdk/arsdk/src/ARSDKBuildUtils/out/arsdk-native/build/libARController/obj/gen/Sources/ARCONTROLLER_Feature.c.o
                0x000000000007df30                ARCONTROLLER_FEATURE_MiniDrone_SendPilotingTogglePilotingMode
 *fill*         0x000000000007dfdc        0x4 
 .text.ARCONTROLLER_FEATURE_MiniDrone_SendAnimationsFlip
                0x000000000007dfe0       0xac /home/jose/catkin_ws/build/parrot_arsdk/arsdk/src/ARSDKBuildUtils/out/arsdk-native/build/libARController/obj/gen/Sources/ARCONTROLLER_Feature.c.o
                0x000000000007dfe0                ARCONTROLLER_FEATURE_MiniDrone_SendAnimationsFlip
 *fill*         0x000000000007e08c        0x4 
 .text.ARCONTROLLER_FEATURE_MiniDrone_SendAnimationsCap
                0x000000000007e090       0xac /home/jose/catkin_ws/build/parrot_arsdk/arsdk/src/ARSDKBuildUtils/out/arsdk-native/build/libARController/obj/gen/Sources/ARCONTROLLER_Feature.c.o
                0x000000000007e090                ARCONTROLLER_FEATURE_MiniDrone_SendAnimationsCap
 *fill*         0x000000000007e13c        0x4 
 .text.ARCONTROLLER_FEATURE_MiniDrone_SendMediaRecordPicture
                0x000000000007e140       0xac /home/jose/catkin_ws/build/parrot_arsdk/arsdk/src/ARSDKBuildUtils/out/arsdk-native/build/libARController/obj/gen/Sources/ARCONTROLLER_Feature.c.o
                0x000000000007e140                ARCONTROLLER_FEATURE_MiniDrone_SendMediaRecordPicture
 *fill*         0x000000000007e1ec        0x4 
 .text.ARCONTROLLER_FEATURE_MiniDrone_SendMediaRecordPictureV2
                0x000000000007e1f0       0xac /home/jose/catkin_ws/build/parrot_arsdk/arsdk/src/ARSDKBuildUtils/out/arsdk-native/build/libARController/obj/gen/Sources/ARCONTROLLER_Feature.c.o
                0x000000000007e1f0                ARCONTROLLER_FEATURE_MiniDrone_SendMediaRecordPictureV2
 *fill*         0x000000000007e29c        0x4 
 .text.ARCONTROLLER_FEATURE_MiniDrone_SendPilotingSettingsMaxAltitude
                0x000000000007e2a0       0xac /home/jose/catkin_ws/build/parrot_arsdk/arsdk/src/ARSDKBuildUtils/out/arsdk-native/build/libARController/obj/gen/Sources/ARCONTROLLER_Feature.c.o
                0x000000000007e2a0                ARCONTROLLER_FEATURE_MiniDrone_SendPilotingSettingsMaxAltitude
 *fill*         0x000000000007e34c        0x4 
 .text.ARCONTROLLER_FEATURE_MiniDrone_SendPilotingSettingsMaxTilt
                0x000000000007e350       0xac /home/jose/catkin_ws/build/parrot_arsdk/arsdk/src/ARSDKBuildUtils/out/arsdk-native/build/libARController/obj/gen/Sources/ARCONTROLLER_Feature.c.o
                0x000000000007e350                ARCONTROLLER_FEATURE_MiniDrone_SendPilotingSettingsMaxTilt
 *fill*         0x000000000007e3fc        0x4 
 .text.ARCONTROLLER_FEATURE_MiniDrone_SendPilotingSettingsBankedTurn
                0x000000000007e400       0xac /home/jose/catkin_ws/build/parrot_arsdk/arsdk/src/ARSDKBuildUtils/out/arsdk-native/build/libARController/obj/gen/Sources/ARCONTROLLER_Feature.c.o
                0x000000000007e400                ARCONTROLLER_FEATURE_MiniDrone_SendPilotingSettingsBankedTurn
 *fill*         0x000000000007e4ac        0x4 
 .text.ARCONTROLLER_FEATURE_MiniDrone_SendPilotingSettingsMaxThrottle
                0x000000000007e4b0       0xac /home/jose/catkin_ws/build/parrot_arsdk/arsdk/src/ARSDKBuildUtils/out/arsdk-native/build/libARController/obj/gen/Sources/ARCONTROLLER_Feature.c.o
                0x000000000007e4b0                ARCONTROLLER_FEATURE_MiniDrone_SendPilotingSettingsMaxThrottle
 *fill*         0x000000000007e55c        0x4 
 .text.ARCONTROLLER_FEATURE_MiniDrone_SendPilotingSettingsPreferredPilotingMode
                0x000000000007e560       0xac /home/jose/catkin_ws/build/parrot_arsdk/arsdk/src/ARSDKBuildUtils/out/arsdk-native/build/libARController/obj/gen/Sources/ARCONTROLLER_Feature.c.o
                0x000000000007e560                ARCONTROLLER_FEATURE_MiniDrone_SendPilotingSettingsPreferredPilotingMode
 *fill*         0x000000000007e60c        0x4 
 .text.ARCONTROLLER_FEATURE_MiniDrone_SendSpeedSettingsMaxVerticalSpeed
                0x000000000007e610       0xac /home/jose/catkin_ws/build/parrot_arsdk/arsdk/src/ARSDKBuildUtils/out/arsdk-native/build/libARController/obj/gen/Sources/ARCONTROLLER_Feature.c.o
                0x000000000007e610                ARCONTROLLER_FEATURE_MiniDrone_SendSpeedSettingsMaxVerticalSpeed
 *fill*         0x000000000007e6bc        0x4 
 .text.ARCONTROLLER_FEATURE_MiniDrone_SendSpeedSettingsMaxRotationSpeed
                0x000000000007e6c0       0xac /home/jose/catkin_ws/build/parrot_arsdk/arsdk/src/ARSDKBuildUtils/out/arsdk-native/build/libARController/obj/gen/Sources/ARCONTROLLER_Feature.c.o
                0x000000000007e6c0                ARCONTROLLER_FEATURE_MiniDrone_SendSpeedSettingsMaxRotationSpeed
 *fill*         0x000000000007e76c        0x4 
 .text.ARCONTROLLER_FEATURE_MiniDrone_SendSpeedSettingsWheels
                0x000000000007e770       0xac /home/jose/catkin_ws/build/parrot_arsdk/arsdk/src/ARSDKBuildUtils/out/arsdk-native/build/libARController/obj/gen/Sources/ARCONTROLLER_Feature.c.o
                0x000000000007e770                ARCONTROLLER_FEATURE_MiniDrone_SendSpeedSettingsWheels
 *fill*         0x000000000007e81c        0x4 
 .text.ARCONTROLLER_FEATURE_MiniDrone_SendSpeedSettingsMaxHorizontalSpeed
                0x000000000007e820       0xac /home/jose/catkin_ws/build/parrot_arsdk/arsdk/src/ARSDKBuildUtils/out/arsdk-native/build/libARController/obj/gen/Sources/ARCONTROLLER_Feature.c.o
                0x000000000007e820                ARCONTROLLER_FEATURE_MiniDrone_SendSpeedSettingsMaxHorizontalSpeed
 *fill*         0x000000000007e8cc        0x4 
 .text.ARCONTROLLER_FEATURE_MiniDrone_SendSpeedSettingsMaxPlaneModeRotationSpeed
                0x000000000007e8d0       0xac /home/jose/catkin_ws/build/parrot_arsdk/arsdk/src/ARSDKBuildUtils/out/arsdk-native/build/libARController/obj/gen/Sources/ARCONTROLLER_Feature.c.o
                0x000000000007e8d0                ARCONTROLLER_FEATURE_MiniDrone_SendSpeedSettingsMaxPlaneModeRotationSpeed
 *fill*         0x000000000007e97c        0x4 
 .text.ARCONTROLLER_FEATURE_MiniDrone_SendSettingsCutOutMode
                0x000000000007e980       0xac /home/jose/catkin_ws/build/parrot_arsdk/arsdk/src/ARSDKBuildUtils/out/arsdk-native/build/libARController/obj/gen/Sources/ARCONTROLLER_Feature.c.o
                0x000000000007e980                ARCONTROLLER_FEATURE_MiniDrone_SendSettingsCutOutMode
 *fill*         0x000000000007ea2c        0x4 
 .text.ARCONTROLLER_FEATURE_MiniDrone_SendGPSControllerLatitudeForRun
                0x000000000007ea30       0xac /home/jose/catkin_ws/build/parrot_arsdk/arsdk/src/ARSDKBuildUtils/out/arsdk-native/build/libARController/obj/gen/Sources/ARCONTROLLER_Feature.c.o
                0x000000000007ea30                ARCONTROLLER_FEATURE_MiniDrone_SendGPSControllerLatitudeForRun
 *fill*         0x000000000007eadc        0x4 
 .text.ARCONTROLLER_FEATURE_MiniDrone_SendGPSControllerLongitudeForRun
                0x000000000007eae0       0xac /home/jose/catkin_ws/build/parrot_arsdk/arsdk/src/ARSDKBuildUtils/out/arsdk-native/build/libARController/obj/gen/Sources/ARCONTROLLER_Feature.c.o
                0x000000000007eae0                ARCONTROLLER_FEATURE_MiniDrone_SendGPSControllerLongitudeForRun
 *fill*         0x000000000007eb8c        0x4 
 .text.ARCONTROLLER_FEATURE_MiniDrone_SendConfigurationControllerType
                0x000000000007eb90       0xac /home/jose/catkin_ws/build/parrot_arsdk/arsdk/src/ARSDKBuildUtils/out/arsdk-native/build/libARController/obj/gen/Sources/ARCONTROLLER_Feature.c.o
                0x000000000007eb90                ARCONTROLLER_FEATURE_MiniDrone_SendConfigurationControllerType
 *fill*         0x000000000007ec3c        0x4 
 .text.ARCONTROLLER_FEATURE_MiniDrone_SendConfigurationControllerName
                0x000000000007ec40       0xac /home/jose/catkin_ws/build/parrot_arsdk/arsdk/src/ARSDKBuildUtils/out/arsdk-native/build/libARController/obj/gen/Sources/ARCONTROLLER_Feature.c.o
                0x000000000007ec40                ARCONTROLLER_FEATURE_MiniDrone_SendConfigurationControllerName
 *fill*         0x000000000007ecec        0x4 
 .text.ARCONTROLLER_FEATURE_MiniDrone_SendUsbAccessoryLightControl
                0x000000000007ecf0       0xbc /home/jose/catkin_ws/build/parrot_arsdk/arsdk/src/ARSDKBuildUtils/out/arsdk-native/build/libARController/obj/gen/Sources/ARCONTROLLER_Feature.c.o
                0x000000000007ecf0                ARCONTROLLER_FEATURE_MiniDrone_SendUsbAccessoryLightControl
 *fill*         0x000000000007edac        0x4 
 .text.ARCONTROLLER_FEATURE_MiniDrone_SendUsbAccessoryClawControl
                0x000000000007edb0       0xac /home/jose/catkin_ws/build/parrot_arsdk/arsdk/src/ARSDKBuildUtils/out/arsdk-native/build/libARController/obj/gen/Sources/ARCONTROLLER_Feature.c.o
                0x000000000007edb0                ARCONTROLLER_FEATURE_MiniDrone_SendUsbAccessoryClawControl
 *fill*         0x000000000007ee5c        0x4 
 .text.ARCONTROLLER_FEATURE_MiniDrone_SendUsbAccessoryGunControl
                0x000000000007ee60       0xac /home/jose/catkin_ws/build/parrot_arsdk/arsdk/src/ARSDKBuildUtils/out/arsdk-native/build/libARController/obj/gen/Sources/ARCONTROLLER_Feature.c.o
                0x000000000007ee60                ARCONTROLLER_FEATURE_MiniDrone_SendUsbAccessoryGunControl
 *fill*         0x000000000007ef0c        0x4 
 .text.ARCONTROLLER_FEATURE_MiniDrone_SendRemoteControllerSetPairedRemote
                0x000000000007ef10       0xbc /home/jose/catkin_ws/build/parrot_arsdk/arsdk/src/ARSDKBuildUtils/out/arsdk-native/build/libARController/obj/gen/Sources/ARCONTROLLER_Feature.c.o
                0x000000000007ef10                ARCONTROLLER_FEATURE_MiniDrone_SendRemoteControllerSetPairedRemote
 *fill*         0x000000000007efcc        0x4 
 .text.ARCONTROLLER_FEATURE_MiniDrone_SendVideoSettingsAutorecord
                0x000000000007efd0       0xac /home/jose/catkin_ws/build/parrot_arsdk/arsdk/src/ARSDKBuildUtils/out/arsdk-native/build/libARController/obj/gen/Sources/ARCONTROLLER_Feature.c.o
                0x000000000007efd0                ARCONTROLLER_FEATURE_MiniDrone_SendVideoSettingsAutorecord
 *fill*         0x000000000007f07c        0x4 
 .text.ARCONTROLLER_FEATURE_MiniDrone_SendVideoSettingsElectricFrequency
                0x000000000007f080       0xac /home/jose/catkin_ws/build/parrot_arsdk/arsdk/src/ARSDKBuildUtils/out/arsdk-native/build/libARController/obj/gen/Sources/ARCONTROLLER_Feature.c.o
                0x000000000007f080                ARCONTROLLER_FEATURE_MiniDrone_SendVideoSettingsElectricFrequency
 *fill*         0x000000000007f12c        0x4 
 .text.ARCONTROLLER_FEATURE_MiniDrone_SendVideoSettingsVideoResolution
                0x000000000007f130       0xac /home/jose/catkin_ws/build/parrot_arsdk/arsdk/src/ARSDKBuildUtils/out/arsdk-native/build/libARController/obj/gen/Sources/ARCONTROLLER_Feature.c.o
                0x000000000007f130                ARCONTROLLER_FEATURE_MiniDrone_SendVideoSettingsVideoResolution
 *fill*         0x000000000007f1dc        0x4 
 .text.ARCONTROLLER_FEATURE_MiniDrone_SendMinicamPicture
                0x000000000007f1e0       0xac /home/jose/catkin_ws/build/parrot_arsdk/arsdk/src/ARSDKBuildUtils/out/arsdk-native/build/libARController/obj/gen/Sources/ARCONTROLLER_Feature.c.o
                0x000000000007f1e0                ARCONTROLLER_FEATURE_MiniDrone_SendMinicamPicture
 *fill*         0x000000000007f28c        0x4 
 .text.ARCONTROLLER_FEATURE_MiniDrone_SendMinicamVideo
                0x000000000007f290       0xac /home/jose/catkin_ws/build/parrot_arsdk/arsdk/src/ARSDKBuildUtils/out/arsdk-native/build/libARController/obj/gen/Sources/ARCONTROLLER_Feature.c.o
                0x000000000007f290                ARCONTROLLER_FEATURE_MiniDrone_SendMinicamVideo
 *fill*         0x000000000007f33c        0x4 
 .text.ARCONTROLLER_FEATURE_MiniDrone_SendMinicamMassStorageFormat
                0x000000000007f340       0xac /home/jose/catkin_ws/build/parrot_arsdk/arsdk/src/ARSDKBuildUtils/out/arsdk-native/build/libARController/obj/gen/Sources/ARCONTROLLER_Feature.c.o
                0x000000000007f340                ARCONTROLLER_FEATURE_MiniDrone_SendMinicamMassStorageFormat
 *fill*         0x000000000007f3ec        0x4 
 .text.ARCONTROLLER_FEATURE_Powerup_SendPilotingPCMD
                0x000000000007f3f0       0xbc /home/jose/catkin_ws/build/parrot_arsdk/arsdk/src/ARSDKBuildUtils/out/arsdk-native/build/libARController/obj/gen/Sources/ARCONTROLLER_Feature.c.o
                0x000000000007f3f0                ARCONTROLLER_FEATURE_Powerup_SendPilotingPCMD
 *fill*         0x000000000007f4ac        0x4 
 .text.ARCONTROLLER_FEATURE_Powerup_SendPilotingUserTakeOff
                0x000000000007f4b0       0xac /home/jose/catkin_ws/build/parrot_arsdk/arsdk/src/ARSDKBuildUtils/out/arsdk-native/build/libARController/obj/gen/Sources/ARCONTROLLER_Feature.c.o
                0x000000000007f4b0                ARCONTROLLER_FEATURE_Powerup_SendPilotingUserTakeOff
 *fill*         0x000000000007f55c        0x4 
 .text.ARCONTROLLER_FEATURE_Powerup_SendPilotingMotorMode
                0x000000000007f560       0xac /home/jose/catkin_ws/build/parrot_arsdk/arsdk/src/ARSDKBuildUtils/out/arsdk-native/build/libARController/obj/gen/Sources/ARCONTROLLER_Feature.c.o
                0x000000000007f560                ARCONTROLLER_FEATURE_Powerup_SendPilotingMotorMode
 *fill*         0x000000000007f60c        0x4 
 .text.ARCONTROLLER_FEATURE_Powerup_SendPilotingSettingsSet
                0x000000000007f610       0xac /home/jose/catkin_ws/build/parrot_arsdk/arsdk/src/ARSDKBuildUtils/out/arsdk-native/build/libARController/obj/gen/Sources/ARCONTROLLER_Feature.c.o
                0x000000000007f610                ARCONTROLLER_FEATURE_Powerup_SendPilotingSettingsSet
 *fill*         0x000000000007f6bc        0x4 
 .text.ARCONTROLLER_FEATURE_Powerup_SendMediaRecordPictureV2
                0x000000000007f6c0       0xac /home/jose/catkin_ws/build/parrot_arsdk/arsdk/src/ARSDKBuildUtils/out/arsdk-native/build/libARController/obj/gen/Sources/ARCONTROLLER_Feature.c.o
                0x000000000007f6c0                ARCONTROLLER_FEATURE_Powerup_SendMediaRecordPictureV2
 *fill*         0x000000000007f76c        0x4 
 .text.ARCONTROLLER_FEATURE_Powerup_SendMediaRecordVideoV2
                0x000000000007f770       0xac /home/jose/catkin_ws/build/parrot_arsdk/arsdk/src/ARSDKBuildUtils/out/arsdk-native/build/libARController/obj/gen/Sources/ARCONTROLLER_Feature.c.o
                0x000000000007f770                ARCONTROLLER_FEATURE_Powerup_SendMediaRecordVideoV2
 *fill*         0x000000000007f81c        0x4 
 .text.ARCONTROLLER_FEATURE_Powerup_SendNetworkSettingsWifiSelection
                0x000000000007f820       0xb4 /home/jose/catkin_ws/build/parrot_arsdk/arsdk/src/ARSDKBuildUtils/out/arsdk-native/build/libARController/obj/gen/Sources/ARCONTROLLER_Feature.c.o
                0x000000000007f820                ARCONTROLLER_FEATURE_Powerup_SendNetworkSettingsWifiSelection
 *fill*         0x000000000007f8d4        0xc 
 .text.ARCONTROLLER_FEATURE_Powerup_SendNetworkWifiScan
                0x000000000007f8e0       0xac /home/jose/catkin_ws/build/parrot_arsdk/arsdk/src/ARSDKBuildUtils/out/arsdk-native/build/libARController/obj/gen/Sources/ARCONTROLLER_Feature.c.o
                0x000000000007f8e0                ARCONTROLLER_FEATURE_Powerup_SendNetworkWifiScan
 *fill*         0x000000000007f98c        0x4 
 .text.ARCONTROLLER_FEATURE_Powerup_SendNetworkWifiAuthChannel
                0x000000000007f990       0xac /home/jose/catkin_ws/build/parrot_arsdk/arsdk/src/ARSDKBuildUtils/out/arsdk-native/build/libARController/obj/gen/Sources/ARCONTROLLER_Feature.c.o
                0x000000000007f990                ARCONTROLLER_FEATURE_Powerup_SendNetworkWifiAuthChannel
 *fill*         0x000000000007fa3c        0x4 
 .text.ARCONTROLLER_FEATURE_Powerup_SendMediaStreamingVideoEnable
                0x000000000007fa40       0xac /home/jose/catkin_ws/build/parrot_arsdk/arsdk/src/ARSDKBuildUtils/out/arsdk-native/build/libARController/obj/gen/Sources/ARCONTROLLER_Feature.c.o
                0x000000000007fa40                ARCONTROLLER_FEATURE_Powerup_SendMediaStreamingVideoEnable
 *fill*         0x000000000007faec        0x4 
 .text.ARCONTROLLER_FEATURE_Powerup_SendVideoSettingsAutorecord
                0x000000000007faf0       0xac /home/jose/catkin_ws/build/parrot_arsdk/arsdk/src/ARSDKBuildUtils/out/arsdk-native/build/libARController/obj/gen/Sources/ARCONTROLLER_Feature.c.o
                0x000000000007faf0                ARCONTROLLER_FEATURE_Powerup_SendVideoSettingsAutorecord
 *fill*         0x000000000007fb9c        0x4 
 .text.ARCONTROLLER_FEATURE_Powerup_SendVideoSettingsVideoMode
                0x000000000007fba0       0xac /home/jose/catkin_ws/build/parrot_arsdk/arsdk/src/ARSDKBuildUtils/out/arsdk-native/build/libARController/obj/gen/Sources/ARCONTROLLER_Feature.c.o
                0x000000000007fba0                ARCONTROLLER_FEATURE_Powerup_SendVideoSettingsVideoMode
 *fill*         0x000000000007fc4c        0x4 
 .text.ARCONTROLLER_FEATURE_Powerup_SendSoundsBuzz
                0x000000000007fc50       0xac /home/jose/catkin_ws/build/parrot_arsdk/arsdk/src/ARSDKBuildUtils/out/arsdk-native/build/libARController/obj/gen/Sources/ARCONTROLLER_Feature.c.o
                0x000000000007fc50                ARCONTROLLER_FEATURE_Powerup_SendSoundsBuzz
 *fill*         0x000000000007fcfc        0x4 
 .text.ARCONTROLLER_FEATURE_Rc_SendMonitorChannels
                0x000000000007fd00       0xac /home/jose/catkin_ws/build/parrot_arsdk/arsdk/src/ARSDKBuildUtils/out/arsdk-native/build/libARController/obj/gen/Sources/ARCONTROLLER_Feature.c.o
                0x000000000007fd00                ARCONTROLLER_FEATURE_Rc_SendMonitorChannels
 *fill*         0x000000000007fdac        0x4 
 .text.ARCONTROLLER_FEATURE_Rc_SendStartCalibration
                0x000000000007fdb0       0xac /home/jose/catkin_ws/build/parrot_arsdk/arsdk/src/ARSDKBuildUtils/out/arsdk-native/build/libARController/obj/gen/Sources/ARCONTROLLER_Feature.c.o
                0x000000000007fdb0                ARCONTROLLER_FEATURE_Rc_SendStartCalibration
 *fill*         0x000000000007fe5c        0x4 
 .text.ARCONTROLLER_FEATURE_Rc_SendInvertChannel
                0x000000000007fe60       0xac /home/jose/catkin_ws/build/parrot_arsdk/arsdk/src/ARSDKBuildUtils/out/arsdk-native/build/libARController/obj/gen/Sources/ARCONTROLLER_Feature.c.o
                0x000000000007fe60                ARCONTROLLER_FEATURE_Rc_SendInvertChannel
 *fill*         0x000000000007ff0c        0x4 
 .text.ARCONTROLLER_FEATURE_Rc_SendAbortCalibration
                0x000000000007ff10       0xa4 /home/jose/catkin_ws/build/parrot_arsdk/arsdk/src/ARSDKBuildUtils/out/arsdk-native/build/libARController/obj/gen/Sources/ARCONTROLLER_Feature.c.o
                0x000000000007ff10                ARCONTROLLER_FEATURE_Rc_SendAbortCalibration
 *fill*         0x000000000007ffb4        0xc 
 .text.ARCONTROLLER_FEATURE_Rc_SendResetCalibration
                0x000000000007ffc0       0xa4 /home/jose/catkin_ws/build/parrot_arsdk/arsdk/src/ARSDKBuildUtils/out/arsdk-native/build/libARController/obj/gen/Sources/ARCONTROLLER_Feature.c.o
                0x000000000007ffc0                ARCONTROLLER_FEATURE_Rc_SendResetCalibration
 *fill*         0x0000000000080064        0xc 
 .text.ARCONTROLLER_FEATURE_Rc_SendEnableReceiver
                0x0000000000080070       0xac /home/jose/catkin_ws/build/parrot_arsdk/arsdk/src/ARSDKBuildUtils/out/arsdk-native/build/libARController/obj/gen/Sources/ARCONTROLLER_Feature.c.o
                0x0000000000080070                ARCONTROLLER_FEATURE_Rc_SendEnableReceiver
 *fill*         0x000000000008011c        0x4 
 .text.ARCONTROLLER_FEATURE_SequoiaCam_SendRadiometricCalibStart
                0x0000000000080120       0xac /home/jose/catkin_ws/build/parrot_arsdk/arsdk/src/ARSDKBuildUtils/out/arsdk-native/build/libARController/obj/gen/Sources/ARCONTROLLER_Feature.c.o
                0x0000000000080120                ARCONTROLLER_FEATURE_SequoiaCam_SendRadiometricCalibStart
 *fill*         0x00000000000801cc        0x4 
 .text.ARCONTROLLER_FEATURE_SkyController_SendWifiRequestWifiList
                0x00000000000801d0       0xac /home/jose/catkin_ws/build/parrot_arsdk/arsdk/src/ARSDKBuildUtils/out/arsdk-native/build/libARController/obj/gen/Sources/ARCONTROLLER_Feature.c.o
                0x00000000000801d0                ARCONTROLLER_FEATURE_SkyController_SendWifiRequestWifiList
 *fill*         0x000000000008027c        0x4 
 .text.ARCONTROLLER_FEATURE_SkyController_SendWifiRequestCurrentWifi
                0x0000000000080280       0xac /home/jose/catkin_ws/build/parrot_arsdk/arsdk/src/ARSDKBuildUtils/out/arsdk-native/build/libARController/obj/gen/Sources/ARCONTROLLER_Feature.c.o
                0x0000000000080280                ARCONTROLLER_FEATURE_SkyController_SendWifiRequestCurrentWifi
 *fill*         0x000000000008032c        0x4 
 .text.ARCONTROLLER_FEATURE_SkyController_SendWifiConnectToWifi
                0x0000000000080330       0xb4 /home/jose/catkin_ws/build/parrot_arsdk/arsdk/src/ARSDKBuildUtils/out/arsdk-native/build/libARController/obj/gen/Sources/ARCONTROLLER_Feature.c.o
                0x0000000000080330                ARCONTROLLER_FEATURE_SkyController_SendWifiConnectToWifi
 *fill*         0x00000000000803e4        0xc 
 .text.ARCONTROLLER_FEATURE_SkyController_SendWifiForgetWifi
                0x00000000000803f0       0xac /home/jose/catkin_ws/build/parrot_arsdk/arsdk/src/ARSDKBuildUtils/out/arsdk-native/build/libARController/obj/gen/Sources/ARCONTROLLER_Feature.c.o
                0x00000000000803f0                ARCONTROLLER_FEATURE_SkyController_SendWifiForgetWifi
 *fill*         0x000000000008049c        0x4 
 .text.ARCONTROLLER_FEATURE_SkyController_SendWifiWifiAuthChannel
                0x00000000000804a0       0xac /home/jose/catkin_ws/build/parrot_arsdk/arsdk/src/ARSDKBuildUtils/out/arsdk-native/build/libARController/obj/gen/Sources/ARCONTROLLER_Feature.c.o
                0x00000000000804a0                ARCONTROLLER_FEATURE_SkyController_SendWifiWifiAuthChannel
 *fill*         0x000000000008054c        0x4 
 .text.ARCONTROLLER_FEATURE_SkyController_SendDeviceRequestDeviceList
                0x0000000000080550       0xac /home/jose/catkin_ws/build/parrot_arsdk/arsdk/src/ARSDKBuildUtils/out/arsdk-native/build/libARController/obj/gen/Sources/ARCONTROLLER_Feature.c.o
                0x0000000000080550                ARCONTROLLER_FEATURE_SkyController_SendDeviceRequestDeviceList
 *fill*         0x00000000000805fc        0x4 
 .text.ARCONTROLLER_FEATURE_SkyController_SendDeviceRequestCurrentDevice
                0x0000000000080600       0xac /home/jose/catkin_ws/build/parrot_arsdk/arsdk/src/ARSDKBuildUtils/out/arsdk-native/build/libARController/obj/gen/Sources/ARCONTROLLER_Feature.c.o
                0x0000000000080600                ARCONTROLLER_FEATURE_SkyController_SendDeviceRequestCurrentDevice
 *fill*         0x00000000000806ac        0x4 
 .text.ARCONTROLLER_FEATURE_SkyController_SendDeviceConnectToDevice
                0x00000000000806b0       0xac /home/jose/catkin_ws/build/parrot_arsdk/arsdk/src/ARSDKBuildUtils/out/arsdk-native/build/libARController/obj/gen/Sources/ARCONTROLLER_Feature.c.o
                0x00000000000806b0                ARCONTROLLER_FEATURE_SkyController_SendDeviceConnectToDevice
 *fill*         0x000000000008075c        0x4 
 .text.ARCONTROLLER_FEATURE_SkyController_SendSettingsAllSettings
                0x0000000000080760       0xac /home/jose/catkin_ws/build/parrot_arsdk/arsdk/src/ARSDKBuildUtils/out/arsdk-native/build/libARController/obj/gen/Sources/ARCONTROLLER_Feature.c.o
                0x0000000000080760                ARCONTROLLER_FEATURE_SkyController_SendSettingsAllSettings
 *fill*         0x000000000008080c        0x4 
 .text.ARCONTROLLER_FEATURE_SkyController_SendSettingsReset
                0x0000000000080810       0xac /home/jose/catkin_ws/build/parrot_arsdk/arsdk/src/ARSDKBuildUtils/out/arsdk-native/build/libARController/obj/gen/Sources/ARCONTROLLER_Feature.c.o
                0x0000000000080810                ARCONTROLLER_FEATURE_SkyController_SendSettingsReset
 *fill*         0x00000000000808bc        0x4 
 .text.ARCONTROLLER_FEATURE_SkyController_SendCommonAllStates
                0x00000000000808c0       0xac /home/jose/catkin_ws/build/parrot_arsdk/arsdk/src/ARSDKBuildUtils/out/arsdk-native/build/libARController/obj/gen/Sources/ARCONTROLLER_Feature.c.o
                0x00000000000808c0                ARCONTROLLER_FEATURE_SkyController_SendCommonAllStates
 *fill*         0x000000000008096c        0x4 
 .text.ARCONTROLLER_FEATURE_SkyController_SendAccessPointSettingsAccessPointSSID
                0x0000000000080970       0xac /home/jose/catkin_ws/build/parrot_arsdk/arsdk/src/ARSDKBuildUtils/out/arsdk-native/build/libARController/obj/gen/Sources/ARCONTROLLER_Feature.c.o
                0x0000000000080970                ARCONTROLLER_FEATURE_SkyController_SendAccessPointSettingsAccessPointSSID
 *fill*         0x0000000000080a1c        0x4 
 .text.ARCONTROLLER_FEATURE_SkyController_SendAccessPointSettingsAccessPointChannel
                0x0000000000080a20       0xac /home/jose/catkin_ws/build/parrot_arsdk/arsdk/src/ARSDKBuildUtils/out/arsdk-native/build/libARController/obj/gen/Sources/ARCONTROLLER_Feature.c.o
                0x0000000000080a20                ARCONTROLLER_FEATURE_SkyController_SendAccessPointSettingsAccessPointChannel
 *fill*         0x0000000000080acc        0x4 
 .text.ARCONTROLLER_FEATURE_SkyController_SendAccessPointSettingsWifiSelection
                0x0000000000080ad0       0xb4 /home/jose/catkin_ws/build/parrot_arsdk/arsdk/src/ARSDKBuildUtils/out/arsdk-native/build/libARController/obj/gen/Sources/ARCONTROLLER_Feature.c.o
                0x0000000000080ad0                ARCONTROLLER_FEATURE_SkyController_SendAccessPointSettingsWifiSelection
 *fill*         0x0000000000080b84        0xc 
 .text.ARCONTROLLER_FEATURE_SkyController_SendAccessPointSettingsWifiSecurity
                0x0000000000080b90       0xac /home/jose/catkin_ws/build/parrot_arsdk/arsdk/src/ARSDKBuildUtils/out/arsdk-native/build/libARController/obj/gen/Sources/ARCONTROLLER_Feature.c.o
                0x0000000000080b90                ARCONTROLLER_FEATURE_SkyController_SendAccessPointSettingsWifiSecurity
 *fill*         0x0000000000080c3c        0x4 
 .text.ARCONTROLLER_FEATURE_SkyController_SendCameraResetOrientation
                0x0000000000080c40       0xac /home/jose/catkin_ws/build/parrot_arsdk/arsdk/src/ARSDKBuildUtils/out/arsdk-native/build/libARController/obj/gen/Sources/ARCONTROLLER_Feature.c.o
                0x0000000000080c40                ARCONTROLLER_FEATURE_SkyController_SendCameraResetOrientation
 *fill*         0x0000000000080cec        0x4 
 .text.ARCONTROLLER_FEATURE_SkyController_SendGamepadInfosGetGamepadControls
                0x0000000000080cf0       0xac /home/jose/catkin_ws/build/parrot_arsdk/arsdk/src/ARSDKBuildUtils/out/arsdk-native/build/libARController/obj/gen/Sources/ARCONTROLLER_Feature.c.o
                0x0000000000080cf0                ARCONTROLLER_FEATURE_SkyController_SendGamepadInfosGetGamepadControls
 *fill*         0x0000000000080d9c        0x4 
 .text.ARCONTROLLER_FEATURE_SkyController_SendButtonMappingsGetCurrentButtonMappings
                0x0000000000080da0       0xac /home/jose/catkin_ws/build/parrot_arsdk/arsdk/src/ARSDKBuildUtils/out/arsdk-native/build/libARController/obj/gen/Sources/ARCONTROLLER_Feature.c.o
                0x0000000000080da0                ARCONTROLLER_FEATURE_SkyController_SendButtonMappingsGetCurrentButtonMappings
 *fill*         0x0000000000080e4c        0x4 
 .text.ARCONTROLLER_FEATURE_SkyController_SendButtonMappingsGetAvailableButtonMappings
                0x0000000000080e50       0xac /home/jose/catkin_ws/build/parrot_arsdk/arsdk/src/ARSDKBuildUtils/out/arsdk-native/build/libARController/obj/gen/Sources/ARCONTROLLER_Feature.c.o
                0x0000000000080e50                ARCONTROLLER_FEATURE_SkyController_SendButtonMappingsGetAvailableButtonMappings
 *fill*         0x0000000000080efc        0x4 
 .text.ARCONTROLLER_FEATURE_SkyController_SendButtonMappingsSetButtonMapping
                0x0000000000080f00       0xac /home/jose/catkin_ws/build/parrot_arsdk/arsdk/src/ARSDKBuildUtils/out/arsdk-native/build/libARController/obj/gen/Sources/ARCONTROLLER_Feature.c.o
                0x0000000000080f00                ARCONTROLLER_FEATURE_SkyController_SendButtonMappingsSetButtonMapping
 *fill*         0x0000000000080fac        0x4 
 .text.ARCONTROLLER_FEATURE_SkyController_SendButtonMappingsDefaultButtonMapping
                0x0000000000080fb0       0xac /home/jose/catkin_ws/build/parrot_arsdk/arsdk/src/ARSDKBuildUtils/out/arsdk-native/build/libARController/obj/gen/Sources/ARCONTROLLER_Feature.c.o
                0x0000000000080fb0                ARCONTROLLER_FEATURE_SkyController_SendButtonMappingsDefaultButtonMapping
 *fill*         0x000000000008105c        0x4 
 .text.ARCONTROLLER_FEATURE_SkyController_SendAxisMappingsGetCurrentAxisMappings
                0x0000000000081060       0xac /home/jose/catkin_ws/build/parrot_arsdk/arsdk/src/ARSDKBuildUtils/out/arsdk-native/build/libARController/obj/gen/Sources/ARCONTROLLER_Feature.c.o
                0x0000000000081060                ARCONTROLLER_FEATURE_SkyController_SendAxisMappingsGetCurrentAxisMappings
 *fill*         0x000000000008110c        0x4 
 .text.ARCONTROLLER_FEATURE_SkyController_SendAxisMappingsGetAvailableAxisMappings
                0x0000000000081110       0xac /home/jose/catkin_ws/build/parrot_arsdk/arsdk/src/ARSDKBuildUtils/out/arsdk-native/build/libARController/obj/gen/Sources/ARCONTROLLER_Feature.c.o
                0x0000000000081110                ARCONTROLLER_FEATURE_SkyController_SendAxisMappingsGetAvailableAxisMappings
 *fill*         0x00000000000811bc        0x4 
 .text.ARCONTROLLER_FEATURE_SkyController_SendAxisMappingsSetAxisMapping
                0x00000000000811c0       0xac /home/jose/catkin_ws/build/parrot_arsdk/arsdk/src/ARSDKBuildUtils/out/arsdk-native/build/libARController/obj/gen/Sources/ARCONTROLLER_Feature.c.o
                0x00000000000811c0                ARCONTROLLER_FEATURE_SkyController_SendAxisMappingsSetAxisMapping
 *fill*         0x000000000008126c        0x4 
 .text.ARCONTROLLER_FEATURE_SkyController_SendAxisMappingsDefaultAxisMapping
                0x0000000000081270       0xac /home/jose/catkin_ws/build/parrot_arsdk/arsdk/src/ARSDKBuildUtils/out/arsdk-native/build/libARController/obj/gen/Sources/ARCONTROLLER_Feature.c.o
                0x0000000000081270                ARCONTROLLER_FEATURE_SkyController_SendAxisMappingsDefaultAxisMapping
 *fill*         0x000000000008131c        0x4 
 .text.ARCONTROLLER_FEATURE_SkyController_SendAxisFiltersGetCurrentAxisFilters
                0x0000000000081320       0xac /home/jose/catkin_ws/build/parrot_arsdk/arsdk/src/ARSDKBuildUtils/out/arsdk-native/build/libARController/obj/gen/Sources/ARCONTROLLER_Feature.c.o
                0x0000000000081320                ARCONTROLLER_FEATURE_SkyController_SendAxisFiltersGetCurrentAxisFilters
 *fill*         0x00000000000813cc        0x4 
 .text.ARCONTROLLER_FEATURE_SkyController_SendAxisFiltersGetPresetAxisFilters
                0x00000000000813d0       0xac /home/jose/catkin_ws/build/parrot_arsdk/arsdk/src/ARSDKBuildUtils/out/arsdk-native/build/libARController/obj/gen/Sources/ARCONTROLLER_Feature.c.o
                0x00000000000813d0                ARCONTROLLER_FEATURE_SkyController_SendAxisFiltersGetPresetAxisFilters
 *fill*         0x000000000008147c        0x4 
 .text.ARCONTROLLER_FEATURE_SkyController_SendAxisFiltersSetAxisFilter
                0x0000000000081480       0xac /home/jose/catkin_ws/build/parrot_arsdk/arsdk/src/ARSDKBuildUtils/out/arsdk-native/build/libARController/obj/gen/Sources/ARCONTROLLER_Feature.c.o
                0x0000000000081480                ARCONTROLLER_FEATURE_SkyController_SendAxisFiltersSetAxisFilter
 *fill*         0x000000000008152c        0x4 
 .text.ARCONTROLLER_FEATURE_SkyController_SendAxisFiltersDefaultAxisFilters
                0x0000000000081530       0xac /home/jose/catkin_ws/build/parrot_arsdk/arsdk/src/ARSDKBuildUtils/out/arsdk-native/build/libARController/obj/gen/Sources/ARCONTROLLER_Feature.c.o
                0x0000000000081530                ARCONTROLLER_FEATURE_SkyController_SendAxisFiltersDefaultAxisFilters
 *fill*         0x00000000000815dc        0x4 
 .text.ARCONTROLLER_FEATURE_SkyController_SendCoPilotingSetPilotingSource
                0x00000000000815e0       0xac /home/jose/catkin_ws/build/parrot_arsdk/arsdk/src/ARSDKBuildUtils/out/arsdk-native/build/libARController/obj/gen/Sources/ARCONTROLLER_Feature.c.o
                0x00000000000815e0                ARCONTROLLER_FEATURE_SkyController_SendCoPilotingSetPilotingSource
 *fill*         0x000000000008168c        0x4 
 .text.ARCONTROLLER_FEATURE_SkyController_SendCalibrationEnableMagnetoCalibrationQualityUpdates
                0x0000000000081690       0xac /home/jose/catkin_ws/build/parrot_arsdk/arsdk/src/ARSDKBuildUtils/out/arsdk-native/build/libARController/obj/gen/Sources/ARCONTROLLER_Feature.c.o
                0x0000000000081690                ARCONTROLLER_FEATURE_SkyController_SendCalibrationEnableMagnetoCalibrationQualityUpdates
 *fill*         0x000000000008173c        0x4 
 .text.ARCONTROLLER_FEATURE_SkyController_SendCalibrationStartCalibration
                0x0000000000081740       0xac /home/jose/catkin_ws/build/parrot_arsdk/arsdk/src/ARSDKBuildUtils/out/arsdk-native/build/libARController/obj/gen/Sources/ARCONTROLLER_Feature.c.o
                0x0000000000081740                ARCONTROLLER_FEATURE_SkyController_SendCalibrationStartCalibration
 *fill*         0x00000000000817ec        0x4 
 .text.ARCONTROLLER_FEATURE_SkyController_SendCalibrationAbortCalibration
                0x00000000000817f0       0xac /home/jose/catkin_ws/build/parrot_arsdk/arsdk/src/ARSDKBuildUtils/out/arsdk-native/build/libARController/obj/gen/Sources/ARCONTROLLER_Feature.c.o
                0x00000000000817f0                ARCONTROLLER_FEATURE_SkyController_SendCalibrationAbortCalibration
 *fill*         0x000000000008189c        0x4 
 .text.ARCONTROLLER_FEATURE_SkyController_SendFactoryReset
                0x00000000000818a0       0xac /home/jose/catkin_ws/build/parrot_arsdk/arsdk/src/ARSDKBuildUtils/out/arsdk-native/build/libARController/obj/gen/Sources/ARCONTROLLER_Feature.c.o
                0x00000000000818a0                ARCONTROLLER_FEATURE_SkyController_SendFactoryReset
 *fill*         0x000000000008194c        0x4 
 .text.ARCONTROLLER_FEATURE_ThermalCam_SendActivate
                0x0000000000081950       0xac /home/jose/catkin_ws/build/parrot_arsdk/arsdk/src/ARSDKBuildUtils/out/arsdk-native/build/libARController/obj/gen/Sources/ARCONTROLLER_Feature.c.o
                0x0000000000081950                ARCONTROLLER_FEATURE_ThermalCam_SendActivate
 *fill*         0x00000000000819fc        0x4 
 .text.ARCONTROLLER_FEATURE_ThermalCam_SendDeactivate
                0x0000000000081a00       0xac /home/jose/catkin_ws/build/parrot_arsdk/arsdk/src/ARSDKBuildUtils/out/arsdk-native/build/libARController/obj/gen/Sources/ARCONTROLLER_Feature.c.o
                0x0000000000081a00                ARCONTROLLER_FEATURE_ThermalCam_SendDeactivate
 *fill*         0x0000000000081aac        0x4 
 .text.ARCONTROLLER_FEATURE_ThermalCam_SendSetSensitivity
                0x0000000000081ab0       0xac /home/jose/catkin_ws/build/parrot_arsdk/arsdk/src/ARSDKBuildUtils/out/arsdk-native/build/libARController/obj/gen/Sources/ARCONTROLLER_Feature.c.o
                0x0000000000081ab0                ARCONTROLLER_FEATURE_ThermalCam_SendSetSensitivity
 *fill*         0x0000000000081b5c        0x4 
 .text.ARCONTROLLER_FEATURE_Wifi_SendScan
                0x0000000000081b60       0xac /home/jose/catkin_ws/build/parrot_arsdk/arsdk/src/ARSDKBuildUtils/out/arsdk-native/build/libARController/obj/gen/Sources/ARCONTROLLER_Feature.c.o
                0x0000000000081b60                ARCONTROLLER_FEATURE_Wifi_SendScan
 *fill*         0x0000000000081c0c        0x4 
 .text.ARCONTROLLER_FEATURE_Wifi_SendUpdateAuthorizedChannels
                0x0000000000081c10       0xa4 /home/jose/catkin_ws/build/parrot_arsdk/arsdk/src/ARSDKBuildUtils/out/arsdk-native/build/libARController/obj/gen/Sources/ARCONTROLLER_Feature.c.o
                0x0000000000081c10                ARCONTROLLER_FEATURE_Wifi_SendUpdateAuthorizedChannels
 *fill*         0x0000000000081cb4        0xc 
 .text.ARCONTROLLER_FEATURE_Wifi_SendSetApChannel
                0x0000000000081cc0       0xac /home/jose/catkin_ws/build/parrot_arsdk/arsdk/src/ARSDKBuildUtils/out/arsdk-native/build/libARController/obj/gen/Sources/ARCONTROLLER_Feature.c.o
                0x0000000000081cc0                ARCONTROLLER_FEATURE_Wifi_SendSetApChannel
 *fill*         0x0000000000081d6c        0x4 
 .text.ARCONTROLLER_FEATURE_Wifi_SendSetSecurity
                0x0000000000081d70       0xac /home/jose/catkin_ws/build/parrot_arsdk/arsdk/src/ARSDKBuildUtils/out/arsdk-native/build/libARController/obj/gen/Sources/ARCONTROLLER_Feature.c.o
                0x0000000000081d70                ARCONTROLLER_FEATURE_Wifi_SendSetSecurity
 *fill*         0x0000000000081e1c        0x4 
 .text.ARCONTROLLER_FEATURE_Wifi_SendSetCountry
                0x0000000000081e20       0xac /home/jose/catkin_ws/build/parrot_arsdk/arsdk/src/ARSDKBuildUtils/out/arsdk-native/build/libARController/obj/gen/Sources/ARCONTROLLER_Feature.c.o
                0x0000000000081e20                ARCONTROLLER_FEATURE_Wifi_SendSetCountry
 *fill*         0x0000000000081ecc        0x4 
 .text.ARCONTROLLER_FEATURE_Wifi_SendSetEnvironment
                0x0000000000081ed0       0xac /home/jose/catkin_ws/build/parrot_arsdk/arsdk/src/ARSDKBuildUtils/out/arsdk-native/build/libARController/obj/gen/Sources/ARCONTROLLER_Feature.c.o
                0x0000000000081ed0                ARCONTROLLER_FEATURE_Wifi_SendSetEnvironment
 *fill*         0x0000000000081f7c        0x4 
 .text.ARCONTROLLER_Feature_NewCommandsElement
                0x0000000000081f80       0x3f /home/jose/catkin_ws/build/parrot_arsdk/arsdk/src/ARSDKBuildUtils/out/arsdk-native/build/libARController/obj/gen/Sources/ARCONTROLLER_Feature.c.o
                0x0000000000081f80                ARCONTROLLER_Feature_NewCommandsElement
 *fill*         0x0000000000081fbf        0x1 
 .text.ARCONTROLLER_Feature_DeleteArgumentsDictionary
                0x0000000000081fc0      0x1a0 /home/jose/catkin_ws/build/parrot_arsdk/arsdk/src/ARSDKBuildUtils/out/arsdk-native/build/libARController/obj/gen/Sources/ARCONTROLLER_Feature.c.o
                0x0000000000081fc0                ARCONTROLLER_Feature_DeleteArgumentsDictionary
 .text.ARCONTROLLER_Feature_DeleteCommandsDictionary
                0x0000000000082160      0x302 /home/jose/catkin_ws/build/parrot_arsdk/arsdk/src/ARSDKBuildUtils/out/arsdk-native/build/libARController/obj/gen/Sources/ARCONTROLLER_Feature.c.o
                0x0000000000082160                ARCONTROLLER_Feature_DeleteCommandsDictionary
 *fill*         0x0000000000082462        0xe 
 .text.ARCONTROLLER_Feature_DeleteElement
                0x0000000000082470       0x51 /home/jose/catkin_ws/build/parrot_arsdk/arsdk/src/ARSDKBuildUtils/out/arsdk-native/build/libARController/obj/gen/Sources/ARCONTROLLER_Feature.c.o
                0x0000000000082470                ARCONTROLLER_Feature_DeleteElement
 *fill*         0x00000000000824c1        0xf 
 .text.ARCONTROLLER_Feature_DeleteCommandsElement
                0x00000000000824d0      0x1df /home/jose/catkin_ws/build/parrot_arsdk/arsdk/src/ARSDKBuildUtils/out/arsdk-native/build/libARController/obj/gen/Sources/ARCONTROLLER_Feature.c.o
                0x00000000000824d0                ARCONTROLLER_Feature_DeleteCommandsElement
 *fill*         0x00000000000826af        0x1 
 .text.ARCONTROLLER_Feature_AddElement
                0x00000000000826b0     0x10ae /home/jose/catkin_ws/build/parrot_arsdk/arsdk/src/ARSDKBuildUtils/out/arsdk-native/build/libARController/obj/gen/Sources/ARCONTROLLER_Feature.c.o
                0x00000000000826b0                ARCONTROLLER_Feature_AddElement
 *fill*         0x000000000008375e        0x2 
 .text.ARCONTROLLER_FEATURE_Generic_Delete
                0x0000000000083760       0x81 /home/jose/catkin_ws/build/parrot_arsdk/arsdk/src/ARSDKBuildUtils/out/arsdk-native/build/libARController/obj/gen/Sources/ARCONTROLLER_Feature.c.o
                0x0000000000083760                ARCONTROLLER_FEATURE_Generic_Delete
 *fill*         0x00000000000837e1        0xf 
 .text.ARCONTROLLER_FEATURE_Generic_New
                0x00000000000837f0       0xcb /home/jose/catkin_ws/build/parrot_arsdk/arsdk/src/ARSDKBuildUtils/out/arsdk-native/build/libARController/obj/gen/Sources/ARCONTROLLER_Feature.c.o
                0x00000000000837f0                ARCONTROLLER_FEATURE_Generic_New
 *fill*         0x00000000000838bb        0x5 
 .text.ARCONTROLLER_FEATURE_Generic_GetDictionary
                0x00000000000838c0       0x37 /home/jose/catkin_ws/build/parrot_arsdk/arsdk/src/ARSDKBuildUtils/out/arsdk-native/build/libARController/obj/gen/Sources/ARCONTROLLER_Feature.c.o
                0x00000000000838c0                ARCONTROLLER_FEATURE_Generic_GetDictionary
 *fill*         0x00000000000838f7        0x9 
 .text.ARCONTROLLER_FEATURE_Generic_AddCallback
                0x0000000000083900       0x26 /home/jose/catkin_ws/build/parrot_arsdk/arsdk/src/ARSDKBuildUtils/out/arsdk-native/build/libARController/obj/gen/Sources/ARCONTROLLER_Feature.c.o
                0x0000000000083900                ARCONTROLLER_FEATURE_Generic_AddCallback
 *fill*         0x0000000000083926        0xa 
 .text.ARCONTROLLER_FEATURE_Generic_RemoveCallback
                0x0000000000083930       0x26 /home/jose/catkin_ws/build/parrot_arsdk/arsdk/src/ARSDKBuildUtils/out/arsdk-native/build/libARController/obj/gen/Sources/ARCONTROLLER_Feature.c.o
                0x0000000000083930                ARCONTROLLER_FEATURE_Generic_RemoveCallback
 *fill*         0x0000000000083956        0xa 
 .text.ARCONTROLLER_FEATURE_Generic_RegisterARCommands
                0x0000000000083960       0x46 /home/jose/catkin_ws/build/parrot_arsdk/arsdk/src/ARSDKBuildUtils/out/arsdk-native/build/libARController/obj/gen/Sources/ARCONTROLLER_Feature.c.o
                0x0000000000083960                ARCONTROLLER_FEATURE_Generic_RegisterARCommands
 *fill*         0x00000000000839a6        0xa 
 .text.ARCONTROLLER_FEATURE_Generic_UnregisterARCommands
                0x00000000000839b0       0x46 /home/jose/catkin_ws/build/parrot_arsdk/arsdk/src/ARSDKBuildUtils/out/arsdk-native/build/libARController/obj/gen/Sources/ARCONTROLLER_Feature.c.o
                0x00000000000839b0                ARCONTROLLER_FEATURE_Generic_UnregisterARCommands
 *fill*         0x00000000000839f6        0xa 
 .text.ARCONTROLLER_FEATURE_Generic_SetNetworkController
                0x0000000000083a00       0x26 /home/jose/catkin_ws/build/parrot_arsdk/arsdk/src/ARSDKBuildUtils/out/arsdk-native/build/libARController/obj/gen/Sources/ARCONTROLLER_Feature.c.o
                0x0000000000083a00                ARCONTROLLER_FEATURE_Generic_SetNetworkController
 *fill*         0x0000000000083a26        0xa 
 .text.ARCONTROLLER_Generic_GetCommandElements
                0x0000000000083a30      0x193 /home/jose/catkin_ws/build/parrot_arsdk/arsdk/src/ARSDKBuildUtils/out/arsdk-native/build/libARController/obj/gen/Sources/ARCONTROLLER_Feature.c.o
                0x0000000000083a30                ARCONTROLLER_Generic_GetCommandElements
 *fill*         0x0000000000083bc3        0xd 
 .text.ARCONTROLLER_FEATURE_Animation_Delete
                0x0000000000083bd0       0x81 /home/jose/catkin_ws/build/parrot_arsdk/arsdk/src/ARSDKBuildUtils/out/arsdk-native/build/libARController/obj/gen/Sources/ARCONTROLLER_Feature.c.o
                0x0000000000083bd0                ARCONTROLLER_FEATURE_Animation_Delete
 *fill*         0x0000000000083c51        0xf 
 .text.ARCONTROLLER_FEATURE_Animation_New
                0x0000000000083c60      0x123 /home/jose/catkin_ws/build/parrot_arsdk/arsdk/src/ARSDKBuildUtils/out/arsdk-native/build/libARController/obj/gen/Sources/ARCONTROLLER_Feature.c.o
                0x0000000000083c60                ARCONTROLLER_FEATURE_Animation_New
 *fill*         0x0000000000083d83        0xd 
 .text.ARCONTROLLER_FEATURE_Animation_GetDictionary
                0x0000000000083d90       0x37 /home/jose/catkin_ws/build/parrot_arsdk/arsdk/src/ARSDKBuildUtils/out/arsdk-native/build/libARController/obj/gen/Sources/ARCONTROLLER_Feature.c.o
                0x0000000000083d90                ARCONTROLLER_FEATURE_Animation_GetDictionary
 *fill*         0x0000000000083dc7        0x9 
 .text.ARCONTROLLER_FEATURE_Animation_AddCallback
                0x0000000000083dd0       0x26 /home/jose/catkin_ws/build/parrot_arsdk/arsdk/src/ARSDKBuildUtils/out/arsdk-native/build/libARController/obj/gen/Sources/ARCONTROLLER_Feature.c.o
                0x0000000000083dd0                ARCONTROLLER_FEATURE_Animation_AddCallback
 *fill*         0x0000000000083df6        0xa 
 .text.ARCONTROLLER_FEATURE_Animation_RemoveCallback
                0x0000000000083e00       0x26 /home/jose/catkin_ws/build/parrot_arsdk/arsdk/src/ARSDKBuildUtils/out/arsdk-native/build/libARController/obj/gen/Sources/ARCONTROLLER_Feature.c.o
                0x0000000000083e00                ARCONTROLLER_FEATURE_Animation_RemoveCallback
 *fill*         0x0000000000083e26        0xa 
 .text.ARCONTROLLER_FEATURE_Animation_RegisterARCommands
                0x0000000000083e30      0x15d /home/jose/catkin_ws/build/parrot_arsdk/arsdk/src/ARSDKBuildUtils/out/arsdk-native/build/libARController/obj/gen/Sources/ARCONTROLLER_Feature.c.o
                0x0000000000083e30                ARCONTROLLER_FEATURE_Animation_RegisterARCommands
 *fill*         0x0000000000083f8d        0x3 
 .text.ARCONTROLLER_FEATURE_Animation_UnregisterARCommands
                0x0000000000083f90      0x115 /home/jose/catkin_ws/build/parrot_arsdk/arsdk/src/ARSDKBuildUtils/out/arsdk-native/build/libARController/obj/gen/Sources/ARCONTROLLER_Feature.c.o
                0x0000000000083f90                ARCONTROLLER_FEATURE_Animation_UnregisterARCommands
 *fill*         0x00000000000840a5        0xb 
 .text.ARCONTROLLER_Animation_NewCmdElementAvailability
                0x00000000000840b0      0x570 /home/jose/catkin_ws/build/parrot_arsdk/arsdk/src/ARSDKBuildUtils/out/arsdk-native/build/libARController/obj/gen/Sources/ARCONTROLLER_Feature.c.o
                0x00000000000840b0                ARCONTROLLER_Animation_NewCmdElementAvailability
 .text.ARCONTROLLER_FEATURE_Animation_AvailabilityCallback
                0x0000000000084620      0x54d /home/jose/catkin_ws/build/parrot_arsdk/arsdk/src/ARSDKBuildUtils/out/arsdk-native/build/libARController/obj/gen/Sources/ARCONTROLLER_Feature.c.o
                0x0000000000084620                ARCONTROLLER_FEATURE_Animation_AvailabilityCallback
 *fill*         0x0000000000084b6d        0x3 
 .text.ARCONTROLLER_Animation_NewCmdElementState
                0x0000000000084b70      0x9cc /home/jose/catkin_ws/build/parrot_arsdk/arsdk/src/ARSDKBuildUtils/out/arsdk-native/build/libARController/obj/gen/Sources/ARCONTROLLER_Feature.c.o
                0x0000000000084b70                ARCONTROLLER_Animation_NewCmdElementState
 *fill*         0x000000000008553c        0x4 
 .text.ARCONTROLLER_FEATURE_Animation_StateCallback
                0x0000000000085540      0x54d /home/jose/catkin_ws/build/parrot_arsdk/arsdk/src/ARSDKBuildUtils/out/arsdk-native/build/libARController/obj/gen/Sources/ARCONTROLLER_Feature.c.o
                0x0000000000085540                ARCONTROLLER_FEATURE_Animation_StateCallback
 *fill*         0x0000000000085a8d        0x3 
 .text.ARCONTROLLER_Animation_NewCmdElementFlipState
                0x0000000000085a90      0x9cc /home/jose/catkin_ws/build/parrot_arsdk/arsdk/src/ARSDKBuildUtils/out/arsdk-native/build/libARController/obj/gen/Sources/ARCONTROLLER_Feature.c.o
                0x0000000000085a90                ARCONTROLLER_Animation_NewCmdElementFlipState
 *fill*         0x000000000008645c        0x4 
 .text.ARCONTROLLER_FEATURE_Animation_FlipStateCallback
                0x0000000000086460      0x54d /home/jose/catkin_ws/build/parrot_arsdk/arsdk/src/ARSDKBuildUtils/out/arsdk-native/build/libARController/obj/gen/Sources/ARCONTROLLER_Feature.c.o
                0x0000000000086460                ARCONTROLLER_FEATURE_Animation_FlipStateCallback
 *fill*         0x00000000000869ad        0x3 
 .text.ARCONTROLLER_Animation_NewCmdElementHorizontalPanoramaState
                0x00000000000869b0      0xf1c /home/jose/catkin_ws/build/parrot_arsdk/arsdk/src/ARSDKBuildUtils/out/arsdk-native/build/libARController/obj/gen/Sources/ARCONTROLLER_Feature.c.o
                0x00000000000869b0                ARCONTROLLER_Animation_NewCmdElementHorizontalPanoramaState
 *fill*         0x00000000000878cc        0x4 
 .text.ARCONTROLLER_FEATURE_Animation_HorizontalPanoramaStateCallback
                0x00000000000878d0      0x58d /home/jose/catkin_ws/build/parrot_arsdk/arsdk/src/ARSDKBuildUtils/out/arsdk-native/build/libARController/obj/gen/Sources/ARCONTROLLER_Feature.c.o
                0x00000000000878d0                ARCONTROLLER_FEATURE_Animation_HorizontalPanoramaStateCallback
 *fill*         0x0000000000087e5d        0x3 
 .text.ARCONTROLLER_Animation_NewCmdElementDronieState
                0x0000000000087e60     0x1437 /home/jose/catkin_ws/build/parrot_arsdk/arsdk/src/ARSDKBuildUtils/out/arsdk-native/build/libARController/obj/gen/Sources/ARCONTROLLER_Feature.c.o
                0x0000000000087e60                ARCONTROLLER_Animation_NewCmdElementDronieState
 *fill*         0x0000000000089297        0x9 
 .text.ARCONTROLLER_FEATURE_Animation_DronieStateCallback
                0x00000000000892a0      0x59d /home/jose/catkin_ws/build/parrot_arsdk/arsdk/src/ARSDKBuildUtils/out/arsdk-native/build/libARController/obj/gen/Sources/ARCONTROLLER_Feature.c.o
                0x00000000000892a0                ARCONTROLLER_FEATURE_Animation_DronieStateCallback
 *fill*         0x000000000008983d        0x3 
 .text.ARCONTROLLER_Animation_NewCmdElementHorizontalRevealState
                0x0000000000089840     0x1437 /home/jose/catkin_ws/build/parrot_arsdk/arsdk/src/ARSDKBuildUtils/out/arsdk-native/build/libARController/obj/gen/Sources/ARCONTROLLER_Feature.c.o
                0x0000000000089840                ARCONTROLLER_Animation_NewCmdElementHorizontalRevealState
 *fill*         0x000000000008ac77        0x9 
 .text.ARCONTROLLER_FEATURE_Animation_HorizontalRevealStateCallback
                0x000000000008ac80      0x59d /home/jose/catkin_ws/build/parrot_arsdk/arsdk/src/ARSDKBuildUtils/out/arsdk-native/build/libARController/obj/gen/Sources/ARCONTROLLER_Feature.c.o
                0x000000000008ac80                ARCONTROLLER_FEATURE_Animation_HorizontalRevealStateCallback
 *fill*         0x000000000008b21d        0x3 
 .text.ARCONTROLLER_Animation_NewCmdElementVerticalRevealState
                0x000000000008b220     0x1eb7 /home/jose/catkin_ws/build/parrot_arsdk/arsdk/src/ARSDKBuildUtils/out/arsdk-native/build/libARController/obj/gen/Sources/ARCONTROLLER_Feature.c.o
                0x000000000008b220                ARCONTROLLER_Animation_NewCmdElementVerticalRevealState
 *fill*         0x000000000008d0d7        0x9 
 .text.ARCONTROLLER_FEATURE_Animation_VerticalRevealStateCallback
                0x000000000008d0e0      0x5cd /home/jose/catkin_ws/build/parrot_arsdk/arsdk/src/ARSDKBuildUtils/out/arsdk-native/build/libARController/obj/gen/Sources/ARCONTROLLER_Feature.c.o
                0x000000000008d0e0                ARCONTROLLER_FEATURE_Animation_VerticalRevealStateCallback
 *fill*         0x000000000008d6ad        0x3 
 .text.ARCONTROLLER_Animation_NewCmdElementSpiralState
                0x000000000008d6b0     0x1eb7 /home/jose/catkin_ws/build/parrot_arsdk/arsdk/src/ARSDKBuildUtils/out/arsdk-native/build/libARController/obj/gen/Sources/ARCONTROLLER_Feature.c.o
                0x000000000008d6b0                ARCONTROLLER_Animation_NewCmdElementSpiralState
 *fill*         0x000000000008f567        0x9 
 .text.ARCONTROLLER_FEATURE_Animation_SpiralStateCallback
                0x000000000008f570      0x5cd /home/jose/catkin_ws/build/parrot_arsdk/arsdk/src/ARSDKBuildUtils/out/arsdk-native/build/libARController/obj/gen/Sources/ARCONTROLLER_Feature.c.o
                0x000000000008f570                ARCONTROLLER_FEATURE_Animation_SpiralStateCallback
 *fill*         0x000000000008fb3d        0x3 
 .text.ARCONTROLLER_Animation_NewCmdElementParabolaState
                0x000000000008fb40     0x1437 /home/jose/catkin_ws/build/parrot_arsdk/arsdk/src/ARSDKBuildUtils/out/arsdk-native/build/libARController/obj/gen/Sources/ARCONTROLLER_Feature.c.o
                0x000000000008fb40                ARCONTROLLER_Animation_NewCmdElementParabolaState
 *fill*         0x0000000000090f77        0x9 
 .text.ARCONTROLLER_FEATURE_Animation_ParabolaStateCallback
                0x0000000000090f80      0x59d /home/jose/catkin_ws/build/parrot_arsdk/arsdk/src/ARSDKBuildUtils/out/arsdk-native/build/libARController/obj/gen/Sources/ARCONTROLLER_Feature.c.o
                0x0000000000090f80                ARCONTROLLER_FEATURE_Animation_ParabolaStateCallback
 *fill*         0x000000000009151d        0x3 
 .text.ARCONTROLLER_Animation_NewCmdElementCandleState
                0x0000000000091520     0x1437 /home/jose/catkin_ws/build/parrot_arsdk/arsdk/src/ARSDKBuildUtils/out/arsdk-native/build/libARController/obj/gen/Sources/ARCONTROLLER_Feature.c.o
                0x0000000000091520                ARCONTROLLER_Animation_NewCmdElementCandleState
 *fill*         0x0000000000092957        0x9 
 .text.ARCONTROLLER_FEATURE_Animation_CandleStateCallback
                0x0000000000092960      0x59d /home/jose/catkin_ws/build/parrot_arsdk/arsdk/src/ARSDKBuildUtils/out/arsdk-native/build/libARController/obj/gen/Sources/ARCONTROLLER_Feature.c.o
                0x0000000000092960                ARCONTROLLER_FEATURE_Animation_CandleStateCallback
 *fill*         0x0000000000092efd        0x3 
 .text.ARCONTROLLER_Animation_NewCmdElementDollySlideState
                0x0000000000092f00     0x1991 /home/jose/catkin_ws/build/parrot_arsdk/arsdk/src/ARSDKBuildUtils/out/arsdk-native/build/libARController/obj/gen/Sources/ARCONTROLLER_Feature.c.o
                0x0000000000092f00                ARCONTROLLER_Animation_NewCmdElementDollySlideState
 *fill*         0x0000000000094891        0xf 
 .text.ARCONTROLLER_FEATURE_Animation_DollySlideStateCallback
                0x00000000000948a0      0x5b5 /home/jose/catkin_ws/build/parrot_arsdk/arsdk/src/ARSDKBuildUtils/out/arsdk-native/build/libARController/obj/gen/Sources/ARCONTROLLER_Feature.c.o
                0x00000000000948a0                ARCONTROLLER_FEATURE_Animation_DollySlideStateCallback
 *fill*         0x0000000000094e55        0xb 
 .text.ARCONTROLLER_FEATURE_Animation_SetNetworkController
                0x0000000000094e60       0x26 /home/jose/catkin_ws/build/parrot_arsdk/arsdk/src/ARSDKBuildUtils/out/arsdk-native/build/libARController/obj/gen/Sources/ARCONTROLLER_Feature.c.o
                0x0000000000094e60                ARCONTROLLER_FEATURE_Animation_SetNetworkController
 *fill*         0x0000000000094e86        0xa 
 .text.ARCONTROLLER_Animation_GetCommandElements
                0x0000000000094e90      0x193 /home/jose/catkin_ws/build/parrot_arsdk/arsdk/src/ARSDKBuildUtils/out/arsdk-native/build/libARController/obj/gen/Sources/ARCONTROLLER_Feature.c.o
                0x0000000000094e90                ARCONTROLLER_Animation_GetCommandElements
 *fill*         0x0000000000095023        0xd 
 .text.ARCONTROLLER_FEATURE_ARDrone3_Delete
                0x0000000000095030      0x159 /home/jose/catkin_ws/build/parrot_arsdk/arsdk/src/ARSDKBuildUtils/out/arsdk-native/build/libARController/obj/gen/Sources/ARCONTROLLER_Feature.c.o
                0x0000000000095030                ARCONTROLLER_FEATURE_ARDrone3_Delete
 *fill*         0x0000000000095189        0x7 
 .text.ARCONTROLLER_FEATURE_ARDrone3_New
                0x0000000000095190      0x60b /home/jose/catkin_ws/build/parrot_arsdk/arsdk/src/ARSDKBuildUtils/out/arsdk-native/build/libARController/obj/gen/Sources/ARCONTROLLER_Feature.c.o
                0x0000000000095190                ARCONTROLLER_FEATURE_ARDrone3_New
 *fill*         0x000000000009579b        0x5 
 .text.ARCONTROLLER_FEATURE_ARDrone3_GetDictionary
                0x00000000000957a0       0x3f /home/jose/catkin_ws/build/parrot_arsdk/arsdk/src/ARSDKBuildUtils/out/arsdk-native/build/libARController/obj/gen/Sources/ARCONTROLLER_Feature.c.o
                0x00000000000957a0                ARCONTROLLER_FEATURE_ARDrone3_GetDictionary
 *fill*         0x00000000000957df        0x1 
 .text.ARCONTROLLER_FEATURE_ARDrone3_AddCallback
                0x00000000000957e0       0x26 /home/jose/catkin_ws/build/parrot_arsdk/arsdk/src/ARSDKBuildUtils/out/arsdk-native/build/libARController/obj/gen/Sources/ARCONTROLLER_Feature.c.o
                0x00000000000957e0                ARCONTROLLER_FEATURE_ARDrone3_AddCallback
 *fill*         0x0000000000095806        0xa 
 .text.ARCONTROLLER_FEATURE_ARDrone3_RemoveCallback
                0x0000000000095810       0x26 /home/jose/catkin_ws/build/parrot_arsdk/arsdk/src/ARSDKBuildUtils/out/arsdk-native/build/libARController/obj/gen/Sources/ARCONTROLLER_Feature.c.o
                0x0000000000095810                ARCONTROLLER_FEATURE_ARDrone3_RemoveCallback
 *fill*         0x0000000000095836        0xa 
 .text.ARCONTROLLER_FEATURE_ARDrone3_RegisterARCommands
                0x0000000000095840      0xaed /home/jose/catkin_ws/build/parrot_arsdk/arsdk/src/ARSDKBuildUtils/out/arsdk-native/build/libARController/obj/gen/Sources/ARCONTROLLER_Feature.c.o
                0x0000000000095840                ARCONTROLLER_FEATURE_ARDrone3_RegisterARCommands
 *fill*         0x000000000009632d        0x3 
 .text.ARCONTROLLER_FEATURE_ARDrone3_UnregisterARCommands
                0x0000000000096330      0x855 /home/jose/catkin_ws/build/parrot_arsdk/arsdk/src/ARSDKBuildUtils/out/arsdk-native/build/libARController/obj/gen/Sources/ARCONTROLLER_Feature.c.o
                0x0000000000096330                ARCONTROLLER_FEATURE_ARDrone3_UnregisterARCommands
 *fill*         0x0000000000096b85        0xb 
 .text.ARCONTROLLER_ARDrone3_SendPilotingPCMDStruct
                0x0000000000096b90      0x135 /home/jose/catkin_ws/build/parrot_arsdk/arsdk/src/ARSDKBuildUtils/out/arsdk-native/build/libARController/obj/gen/Sources/ARCONTROLLER_Feature.c.o
                0x0000000000096b90                ARCONTROLLER_ARDrone3_SendPilotingPCMDStruct
 *fill*         0x0000000000096cc5        0xb 
 .text.ARCONTROLLER_ARDrone3_SendCameraOrientationStruct
                0x0000000000096cd0      0x115 /home/jose/catkin_ws/build/parrot_arsdk/arsdk/src/ARSDKBuildUtils/out/arsdk-native/build/libARController/obj/gen/Sources/ARCONTROLLER_Feature.c.o
                0x0000000000096cd0                ARCONTROLLER_ARDrone3_SendCameraOrientationStruct
 *fill*         0x0000000000096de5        0xb 
 .text.ARCONTROLLER_ARDrone3_SendCameraOrientationV2Struct
                0x0000000000096df0      0x115 /home/jose/catkin_ws/build/parrot_arsdk/arsdk/src/ARSDKBuildUtils/out/arsdk-native/build/libARController/obj/gen/Sources/ARCONTROLLER_Feature.c.o
                0x0000000000096df0                ARCONTROLLER_ARDrone3_SendCameraOrientationV2Struct
 *fill*         0x0000000000096f05        0xb 
 .text.ARCONTROLLER_ARDrone3_SendCameraVelocityStruct
                0x0000000000096f10      0x115 /home/jose/catkin_ws/build/parrot_arsdk/arsdk/src/ARSDKBuildUtils/out/arsdk-native/build/libARController/obj/gen/Sources/ARCONTROLLER_Feature.c.o
                0x0000000000096f10                ARCONTROLLER_ARDrone3_SendCameraVelocityStruct
 *fill*         0x0000000000097025        0xb 
 .text.ARCONTROLLER_ARDrone3_NewCmdElementMediaRecordStatePictureStateChanged
                0x0000000000097030      0x9cc /home/jose/catkin_ws/build/parrot_arsdk/arsdk/src/ARSDKBuildUtils/out/arsdk-native/build/libARController/obj/gen/Sources/ARCONTROLLER_Feature.c.o
                0x0000000000097030                ARCONTROLLER_ARDrone3_NewCmdElementMediaRecordStatePictureStateChanged
 *fill*         0x00000000000979fc        0x4 
 .text.ARCONTROLLER_FEATURE_ARDrone3_MediaRecordStatePictureStateChangedCallback
                0x0000000000097a00      0x56d /home/jose/catkin_ws/build/parrot_arsdk/arsdk/src/ARSDKBuildUtils/out/arsdk-native/build/libARController/obj/gen/Sources/ARCONTROLLER_Feature.c.o
                0x0000000000097a00                ARCONTROLLER_FEATURE_ARDrone3_MediaRecordStatePictureStateChangedCallback
 *fill*         0x0000000000097f6d        0x3 
 .text.ARCONTROLLER_ARDrone3_NewCmdElementMediaRecordStateVideoStateChanged
                0x0000000000097f70      0x9cc /home/jose/catkin_ws/build/parrot_arsdk/arsdk/src/ARSDKBuildUtils/out/arsdk-native/build/libARController/obj/gen/Sources/ARCONTROLLER_Feature.c.o
                0x0000000000097f70                ARCONTROLLER_ARDrone3_NewCmdElementMediaRecordStateVideoStateChanged
 *fill*         0x000000000009893c        0x4 
 .text.ARCONTROLLER_FEATURE_ARDrone3_MediaRecordStateVideoStateChangedCallback
                0x0000000000098940      0x56d /home/jose/catkin_ws/build/parrot_arsdk/arsdk/src/ARSDKBuildUtils/out/arsdk-native/build/libARController/obj/gen/Sources/ARCONTROLLER_Feature.c.o
                0x0000000000098940                ARCONTROLLER_FEATURE_ARDrone3_MediaRecordStateVideoStateChangedCallback
 *fill*         0x0000000000098ead        0x3 
 .text.ARCONTROLLER_ARDrone3_NewCmdElementMediaRecordStatePictureStateChangedV2
                0x0000000000098eb0      0x9cc /home/jose/catkin_ws/build/parrot_arsdk/arsdk/src/ARSDKBuildUtils/out/arsdk-native/build/libARController/obj/gen/Sources/ARCONTROLLER_Feature.c.o
                0x0000000000098eb0                ARCONTROLLER_ARDrone3_NewCmdElementMediaRecordStatePictureStateChangedV2
 *fill*         0x000000000009987c        0x4 
 .text.ARCONTROLLER_FEATURE_ARDrone3_MediaRecordStatePictureStateChangedV2Callback
                0x0000000000099880      0x56d /home/jose/catkin_ws/build/parrot_arsdk/arsdk/src/ARSDKBuildUtils/out/arsdk-native/build/libARController/obj/gen/Sources/ARCONTROLLER_Feature.c.o
                0x0000000000099880                ARCONTROLLER_FEATURE_ARDrone3_MediaRecordStatePictureStateChangedV2Callback
 *fill*         0x0000000000099ded        0x3 
 .text.ARCONTROLLER_ARDrone3_NewCmdElementMediaRecordStateVideoStateChangedV2
                0x0000000000099df0      0x9cc /home/jose/catkin_ws/build/parrot_arsdk/arsdk/src/ARSDKBuildUtils/out/arsdk-native/build/libARController/obj/gen/Sources/ARCONTROLLER_Feature.c.o
                0x0000000000099df0                ARCONTROLLER_ARDrone3_NewCmdElementMediaRecordStateVideoStateChangedV2
 *fill*         0x000000000009a7bc        0x4 
 .text.ARCONTROLLER_FEATURE_ARDrone3_MediaRecordStateVideoStateChangedV2Callback
                0x000000000009a7c0      0x56d /home/jose/catkin_ws/build/parrot_arsdk/arsdk/src/ARSDKBuildUtils/out/arsdk-native/build/libARController/obj/gen/Sources/ARCONTROLLER_Feature.c.o
                0x000000000009a7c0                ARCONTROLLER_FEATURE_ARDrone3_MediaRecordStateVideoStateChangedV2Callback
 *fill*         0x000000000009ad2d        0x3 
 .text.ARCONTROLLER_ARDrone3_NewCmdElementMediaRecordStateVideoResolutionState
                0x000000000009ad30      0x9cc /home/jose/catkin_ws/build/parrot_arsdk/arsdk/src/ARSDKBuildUtils/out/arsdk-native/build/libARController/obj/gen/Sources/ARCONTROLLER_Feature.c.o
                0x000000000009ad30                ARCONTROLLER_ARDrone3_NewCmdElementMediaRecordStateVideoResolutionState
 *fill*         0x000000000009b6fc        0x4 
 .text.ARCONTROLLER_FEATURE_ARDrone3_MediaRecordStateVideoResolutionStateCallback
                0x000000000009b700      0x56d /home/jose/catkin_ws/build/parrot_arsdk/arsdk/src/ARSDKBuildUtils/out/arsdk-native/build/libARController/obj/gen/Sources/ARCONTROLLER_Feature.c.o
                0x000000000009b700                ARCONTROLLER_FEATURE_ARDrone3_MediaRecordStateVideoResolutionStateCallback
 *fill*         0x000000000009bc6d        0x3 
 .text.ARCONTROLLER_ARDrone3_NewCmdElementMediaRecordEventPictureEventChanged
                0x000000000009bc70      0x9cc /home/jose/catkin_ws/build/parrot_arsdk/arsdk/src/ARSDKBuildUtils/out/arsdk-native/build/libARController/obj/gen/Sources/ARCONTROLLER_Feature.c.o
                0x000000000009bc70                ARCONTROLLER_ARDrone3_NewCmdElementMediaRecordEventPictureEventChanged
 *fill*         0x000000000009c63c        0x4 
 .text.ARCONTROLLER_FEATURE_ARDrone3_MediaRecordEventPictureEventChangedCallback
                0x000000000009c640      0x56d /home/jose/catkin_ws/build/parrot_arsdk/arsdk/src/ARSDKBuildUtils/out/arsdk-native/build/libARController/obj/gen/Sources/ARCONTROLLER_Feature.c.o
                0x000000000009c640                ARCONTROLLER_FEATURE_ARDrone3_MediaRecordEventPictureEventChangedCallback
 *fill*         0x000000000009cbad        0x3 
 .text.ARCONTROLLER_ARDrone3_NewCmdElementMediaRecordEventVideoEventChanged
                0x000000000009cbb0      0x9cc /home/jose/catkin_ws/build/parrot_arsdk/arsdk/src/ARSDKBuildUtils/out/arsdk-native/build/libARController/obj/gen/Sources/ARCONTROLLER_Feature.c.o
                0x000000000009cbb0                ARCONTROLLER_ARDrone3_NewCmdElementMediaRecordEventVideoEventChanged
 *fill*         0x000000000009d57c        0x4 
 .text.ARCONTROLLER_FEATURE_ARDrone3_MediaRecordEventVideoEventChangedCallback
                0x000000000009d580      0x56d /home/jose/catkin_ws/build/parrot_arsdk/arsdk/src/ARSDKBuildUtils/out/arsdk-native/build/libARController/obj/gen/Sources/ARCONTROLLER_Feature.c.o
                0x000000000009d580                ARCONTROLLER_FEATURE_ARDrone3_MediaRecordEventVideoEventChangedCallback
 *fill*         0x000000000009daed        0x3 
 .text.ARCONTROLLER_ARDrone3_NewCmdElementPilotingStateFlatTrimChanged
                0x000000000009daf0       0xb3 /home/jose/catkin_ws/build/parrot_arsdk/arsdk/src/ARSDKBuildUtils/out/arsdk-native/build/libARController/obj/gen/Sources/ARCONTROLLER_Feature.c.o
                0x000000000009daf0                ARCONTROLLER_ARDrone3_NewCmdElementPilotingStateFlatTrimChanged
 *fill*         0x000000000009dba3        0xd 
 .text.ARCONTROLLER_FEATURE_ARDrone3_PilotingStateFlatTrimChangedCallback
                0x000000000009dbb0      0x55d /home/jose/catkin_ws/build/parrot_arsdk/arsdk/src/ARSDKBuildUtils/out/arsdk-native/build/libARController/obj/gen/Sources/ARCONTROLLER_Feature.c.o
                0x000000000009dbb0                ARCONTROLLER_FEATURE_ARDrone3_PilotingStateFlatTrimChangedCallback
 *fill*         0x000000000009e10d        0x3 
 .text.ARCONTROLLER_ARDrone3_NewCmdElementPilotingStateFlyingStateChanged
                0x000000000009e110      0x570 /home/jose/catkin_ws/build/parrot_arsdk/arsdk/src/ARSDKBuildUtils/out/arsdk-native/build/libARController/obj/gen/Sources/ARCONTROLLER_Feature.c.o
                0x000000000009e110                ARCONTROLLER_ARDrone3_NewCmdElementPilotingStateFlyingStateChanged
 .text.ARCONTROLLER_FEATURE_ARDrone3_PilotingStateFlyingStateChangedCallback
                0x000000000009e680      0x56d /home/jose/catkin_ws/build/parrot_arsdk/arsdk/src/ARSDKBuildUtils/out/arsdk-native/build/libARController/obj/gen/Sources/ARCONTROLLER_Feature.c.o
                0x000000000009e680                ARCONTROLLER_FEATURE_ARDrone3_PilotingStateFlyingStateChangedCallback
 *fill*         0x000000000009ebed        0x3 
 .text.ARCONTROLLER_ARDrone3_NewCmdElementPilotingStateAlertStateChanged
                0x000000000009ebf0      0x570 /home/jose/catkin_ws/build/parrot_arsdk/arsdk/src/ARSDKBuildUtils/out/arsdk-native/build/libARController/obj/gen/Sources/ARCONTROLLER_Feature.c.o
                0x000000000009ebf0                ARCONTROLLER_ARDrone3_NewCmdElementPilotingStateAlertStateChanged
 .text.ARCONTROLLER_FEATURE_ARDrone3_PilotingStateAlertStateChangedCallback
                0x000000000009f160      0x56d /home/jose/catkin_ws/build/parrot_arsdk/arsdk/src/ARSDKBuildUtils/out/arsdk-native/build/libARController/obj/gen/Sources/ARCONTROLLER_Feature.c.o
                0x000000000009f160                ARCONTROLLER_FEATURE_ARDrone3_PilotingStateAlertStateChangedCallback
 *fill*         0x000000000009f6cd        0x3 
 .text.ARCONTROLLER_ARDrone3_NewCmdElementPilotingStateNavigateHomeStateChanged
                0x000000000009f6d0      0x9cc /home/jose/catkin_ws/build/parrot_arsdk/arsdk/src/ARSDKBuildUtils/out/arsdk-native/build/libARController/obj/gen/Sources/ARCONTROLLER_Feature.c.o
                0x000000000009f6d0                ARCONTROLLER_ARDrone3_NewCmdElementPilotingStateNavigateHomeStateChanged
 *fill*         0x00000000000a009c        0x4 
 .text.ARCONTROLLER_FEATURE_ARDrone3_PilotingStateNavigateHomeStateChangedCallback
                0x00000000000a00a0      0x56d /home/jose/catkin_ws/build/parrot_arsdk/arsdk/src/ARSDKBuildUtils/out/arsdk-native/build/libARController/obj/gen/Sources/ARCONTROLLER_Feature.c.o
                0x00000000000a00a0                ARCONTROLLER_FEATURE_ARDrone3_PilotingStateNavigateHomeStateChangedCallback
 *fill*         0x00000000000a060d        0x3 
 .text.ARCONTROLLER_ARDrone3_NewCmdElementPilotingStatePositionChanged
                0x00000000000a0610      0xf2c /home/jose/catkin_ws/build/parrot_arsdk/arsdk/src/ARSDKBuildUtils/out/arsdk-native/build/libARController/obj/gen/Sources/ARCONTROLLER_Feature.c.o
                0x00000000000a0610                ARCONTROLLER_ARDrone3_NewCmdElementPilotingStatePositionChanged
 *fill*         0x00000000000a153c        0x4 
 .text.ARCONTROLLER_FEATURE_ARDrone3_PilotingStatePositionChangedCallback
                0x00000000000a1540      0x5bd /home/jose/catkin_ws/build/parrot_arsdk/arsdk/src/ARSDKBuildUtils/out/arsdk-native/build/libARController/obj/gen/Sources/ARCONTROLLER_Feature.c.o
                0x00000000000a1540                ARCONTROLLER_FEATURE_ARDrone3_PilotingStatePositionChangedCallback
 *fill*         0x00000000000a1afd        0x3 
 .text.ARCONTROLLER_ARDrone3_NewCmdElementPilotingStateSpeedChanged
                0x00000000000a1b00      0xf2c /home/jose/catkin_ws/build/parrot_arsdk/arsdk/src/ARSDKBuildUtils/out/arsdk-native/build/libARController/obj/gen/Sources/ARCONTROLLER_Feature.c.o
                0x00000000000a1b00                ARCONTROLLER_ARDrone3_NewCmdElementPilotingStateSpeedChanged
 *fill*         0x00000000000a2a2c        0x4 
 .text.ARCONTROLLER_FEATURE_ARDrone3_PilotingStateSpeedChangedCallback
                0x00000000000a2a30      0x5bd /home/jose/catkin_ws/build/parrot_arsdk/arsdk/src/ARSDKBuildUtils/out/arsdk-native/build/libARController/obj/gen/Sources/ARCONTROLLER_Feature.c.o
                0x00000000000a2a30                ARCONTROLLER_FEATURE_ARDrone3_PilotingStateSpeedChangedCallback
 *fill*         0x00000000000a2fed        0x3 
 .text.ARCONTROLLER_ARDrone3_NewCmdElementPilotingStateAttitudeChanged
                0x00000000000a2ff0      0xf2c /home/jose/catkin_ws/build/parrot_arsdk/arsdk/src/ARSDKBuildUtils/out/arsdk-native/build/libARController/obj/gen/Sources/ARCONTROLLER_Feature.c.o
                0x00000000000a2ff0                ARCONTROLLER_ARDrone3_NewCmdElementPilotingStateAttitudeChanged
 *fill*         0x00000000000a3f1c        0x4 
 .text.ARCONTROLLER_FEATURE_ARDrone3_PilotingStateAttitudeChangedCallback
                0x00000000000a3f20      0x5bd /home/jose/catkin_ws/build/parrot_arsdk/arsdk/src/ARSDKBuildUtils/out/arsdk-native/build/libARController/obj/gen/Sources/ARCONTROLLER_Feature.c.o
                0x00000000000a3f20                ARCONTROLLER_FEATURE_ARDrone3_PilotingStateAttitudeChangedCallback
 *fill*         0x00000000000a44dd        0x3 
 .text.ARCONTROLLER_ARDrone3_NewCmdElementPilotingStateAutoTakeOffModeChanged
                0x00000000000a44e0      0x570 /home/jose/catkin_ws/build/parrot_arsdk/arsdk/src/ARSDKBuildUtils/out/arsdk-native/build/libARController/obj/gen/Sources/ARCONTROLLER_Feature.c.o
                0x00000000000a44e0                ARCONTROLLER_ARDrone3_NewCmdElementPilotingStateAutoTakeOffModeChanged
 .text.ARCONTROLLER_FEATURE_ARDrone3_PilotingStateAutoTakeOffModeChangedCallback
                0x00000000000a4a50      0x56d /home/jose/catkin_ws/build/parrot_arsdk/arsdk/src/ARSDKBuildUtils/out/arsdk-native/build/libARController/obj/gen/Sources/ARCONTROLLER_Feature.c.o
                0x00000000000a4a50                ARCONTROLLER_FEATURE_ARDrone3_PilotingStateAutoTakeOffModeChangedCallback
 *fill*         0x00000000000a4fbd        0x3 
 .text.ARCONTROLLER_ARDrone3_NewCmdElementPilotingStateAltitudeChanged
                0x00000000000a4fc0      0x590 /home/jose/catkin_ws/build/parrot_arsdk/arsdk/src/ARSDKBuildUtils/out/arsdk-native/build/libARController/obj/gen/Sources/ARCONTROLLER_Feature.c.o
                0x00000000000a4fc0                ARCONTROLLER_ARDrone3_NewCmdElementPilotingStateAltitudeChanged
 .text.ARCONTROLLER_FEATURE_ARDrone3_PilotingStateAltitudeChangedCallback
                0x00000000000a5550      0x57d /home/jose/catkin_ws/build/parrot_arsdk/arsdk/src/ARSDKBuildUtils/out/arsdk-native/build/libARController/obj/gen/Sources/ARCONTROLLER_Feature.c.o
                0x00000000000a5550                ARCONTROLLER_FEATURE_ARDrone3_PilotingStateAltitudeChangedCallback
 *fill*         0x00000000000a5acd        0x3 
 .text.ARCONTROLLER_ARDrone3_NewCmdElementPilotingStateGpsLocationChanged
                0x00000000000a5ad0     0x1e53 /home/jose/catkin_ws/build/parrot_arsdk/arsdk/src/ARSDKBuildUtils/out/arsdk-native/build/libARController/obj/gen/Sources/ARCONTROLLER_Feature.c.o
                0x00000000000a5ad0                ARCONTROLLER_ARDrone3_NewCmdElementPilotingStateGpsLocationChanged
 *fill*         0x00000000000a7923        0xd 
 .text.ARCONTROLLER_FEATURE_ARDrone3_PilotingStateGpsLocationChangedCallback
                0x00000000000a7930      0x5cd /home/jose/catkin_ws/build/parrot_arsdk/arsdk/src/ARSDKBuildUtils/out/arsdk-native/build/libARController/obj/gen/Sources/ARCONTROLLER_Feature.c.o
                0x00000000000a7930                ARCONTROLLER_FEATURE_ARDrone3_PilotingStateGpsLocationChangedCallback
 *fill*         0x00000000000a7efd        0x3 
 .text.ARCONTROLLER_ARDrone3_NewCmdElementPilotingStateLandingStateChanged
                0x00000000000a7f00      0x570 /home/jose/catkin_ws/build/parrot_arsdk/arsdk/src/ARSDKBuildUtils/out/arsdk-native/build/libARController/obj/gen/Sources/ARCONTROLLER_Feature.c.o
                0x00000000000a7f00                ARCONTROLLER_ARDrone3_NewCmdElementPilotingStateLandingStateChanged
 .text.ARCONTROLLER_FEATURE_ARDrone3_PilotingStateLandingStateChangedCallback
                0x00000000000a8470      0x56d /home/jose/catkin_ws/build/parrot_arsdk/arsdk/src/ARSDKBuildUtils/out/arsdk-native/build/libARController/obj/gen/Sources/ARCONTROLLER_Feature.c.o
                0x00000000000a8470                ARCONTROLLER_FEATURE_ARDrone3_PilotingStateLandingStateChangedCallback
 *fill*         0x00000000000a89dd        0x3 
 .text.ARCONTROLLER_ARDrone3_NewCmdElementPilotingStateAirSpeedChanged
                0x00000000000a89e0      0x590 /home/jose/catkin_ws/build/parrot_arsdk/arsdk/src/ARSDKBuildUtils/out/arsdk-native/build/libARController/obj/gen/Sources/ARCONTROLLER_Feature.c.o
                0x00000000000a89e0                ARCONTROLLER_ARDrone3_NewCmdElementPilotingStateAirSpeedChanged
 .text.ARCONTROLLER_FEATURE_ARDrone3_PilotingStateAirSpeedChangedCallback
                0x00000000000a8f70      0x57d /home/jose/catkin_ws/build/parrot_arsdk/arsdk/src/ARSDKBuildUtils/out/arsdk-native/build/libARController/obj/gen/Sources/ARCONTROLLER_Feature.c.o
                0x00000000000a8f70                ARCONTROLLER_FEATURE_ARDrone3_PilotingStateAirSpeedChangedCallback
 *fill*         0x00000000000a94ed        0x3 
 .text.ARCONTROLLER_ARDrone3_NewCmdElementPilotingStateMoveToChanged
                0x00000000000a94f0     0x1e7d /home/jose/catkin_ws/build/parrot_arsdk/arsdk/src/ARSDKBuildUtils/out/arsdk-native/build/libARController/obj/gen/Sources/ARCONTROLLER_Feature.c.o
                0x00000000000a94f0                ARCONTROLLER_ARDrone3_NewCmdElementPilotingStateMoveToChanged
 *fill*         0x00000000000ab36d        0x3 
 .text.ARCONTROLLER_FEATURE_ARDrone3_PilotingStateMoveToChangedCallback
                0x00000000000ab370      0x5e5 /home/jose/catkin_ws/build/parrot_arsdk/arsdk/src/ARSDKBuildUtils/out/arsdk-native/build/libARController/obj/gen/Sources/ARCONTROLLER_Feature.c.o
                0x00000000000ab370                ARCONTROLLER_FEATURE_ARDrone3_PilotingStateMoveToChangedCallback
 *fill*         0x00000000000ab955        0xb 
 .text.ARCONTROLLER_ARDrone3_NewCmdElementPilotingStateMotionState
                0x00000000000ab960      0x570 /home/jose/catkin_ws/build/parrot_arsdk/arsdk/src/ARSDKBuildUtils/out/arsdk-native/build/libARController/obj/gen/Sources/ARCONTROLLER_Feature.c.o
                0x00000000000ab960                ARCONTROLLER_ARDrone3_NewCmdElementPilotingStateMotionState
 .text.ARCONTROLLER_FEATURE_ARDrone3_PilotingStateMotionStateCallback
                0x00000000000abed0      0x56d /home/jose/catkin_ws/build/parrot_arsdk/arsdk/src/ARSDKBuildUtils/out/arsdk-native/build/libARController/obj/gen/Sources/ARCONTROLLER_Feature.c.o
                0x00000000000abed0                ARCONTROLLER_FEATURE_ARDrone3_PilotingStateMotionStateCallback
 *fill*         0x00000000000ac43d        0x3 
 .text.ARCONTROLLER_ARDrone3_NewCmdElementPilotingStatePilotedPOI
                0x00000000000ac440     0x1469 /home/jose/catkin_ws/build/parrot_arsdk/arsdk/src/ARSDKBuildUtils/out/arsdk-native/build/libARController/obj/gen/Sources/ARCONTROLLER_Feature.c.o
                0x00000000000ac440                ARCONTROLLER_ARDrone3_NewCmdElementPilotingStatePilotedPOI
 *fill*         0x00000000000ad8a9        0x7 
 .text.ARCONTROLLER_FEATURE_ARDrone3_PilotingStatePilotedPOICallback
                0x00000000000ad8b0      0x5bd /home/jose/catkin_ws/build/parrot_arsdk/arsdk/src/ARSDKBuildUtils/out/arsdk-native/build/libARController/obj/gen/Sources/ARCONTROLLER_Feature.c.o
                0x00000000000ad8b0                ARCONTROLLER_FEATURE_ARDrone3_PilotingStatePilotedPOICallback
 *fill*         0x00000000000ade6d        0x3 
 .text.ARCONTROLLER_ARDrone3_NewCmdElementPilotingStateReturnHomeBatteryCapacity
                0x00000000000ade70      0x570 /home/jose/catkin_ws/build/parrot_arsdk/arsdk/src/ARSDKBuildUtils/out/arsdk-native/build/libARController/obj/gen/Sources/ARCONTROLLER_Feature.c.o
                0x00000000000ade70                ARCONTROLLER_ARDrone3_NewCmdElementPilotingStateReturnHomeBatteryCapacity
 .text.ARCONTROLLER_FEATURE_ARDrone3_PilotingStateReturnHomeBatteryCapacityCallback
                0x00000000000ae3e0      0x56d /home/jose/catkin_ws/build/parrot_arsdk/arsdk/src/ARSDKBuildUtils/out/arsdk-native/build/libARController/obj/gen/Sources/ARCONTROLLER_Feature.c.o
                0x00000000000ae3e0                ARCONTROLLER_FEATURE_ARDrone3_PilotingStateReturnHomeBatteryCapacityCallback
 *fill*         0x00000000000ae94d        0x3 
 .text.ARCONTROLLER_ARDrone3_NewCmdElementPilotingEventMoveByEnd
                0x00000000000ae950     0x197e /home/jose/catkin_ws/build/parrot_arsdk/arsdk/src/ARSDKBuildUtils/out/arsdk-native/build/libARController/obj/gen/Sources/ARCONTROLLER_Feature.c.o
                0x00000000000ae950                ARCONTROLLER_ARDrone3_NewCmdElementPilotingEventMoveByEnd
 *fill*         0x00000000000b02ce        0x2 
 .text.ARCONTROLLER_FEATURE_ARDrone3_PilotingEventMoveByEndCallback
                0x00000000000b02d0      0x5d5 /home/jose/catkin_ws/build/parrot_arsdk/arsdk/src/ARSDKBuildUtils/out/arsdk-native/build/libARController/obj/gen/Sources/ARCONTROLLER_Feature.c.o
                0x00000000000b02d0                ARCONTROLLER_FEATURE_ARDrone3_PilotingEventMoveByEndCallback
 *fill*         0x00000000000b08a5        0xb 
 .text.ARCONTROLLER_ARDrone3_NewCmdElementNetworkStateWifiScanListChanged
                0x00000000000b08b0     0x1466 /home/jose/catkin_ws/build/parrot_arsdk/arsdk/src/ARSDKBuildUtils/out/arsdk-native/build/libARController/obj/gen/Sources/ARCONTROLLER_Feature.c.o
                0x00000000000b08b0                ARCONTROLLER_ARDrone3_NewCmdElementNetworkStateWifiScanListChanged
 *fill*         0x00000000000b1d16        0xa 
 .text.ARCONTROLLER_FEATURE_ARDrone3_NetworkStateWifiScanListChangedCallback
                0x00000000000b1d20      0x57d /home/jose/catkin_ws/build/parrot_arsdk/arsdk/src/ARSDKBuildUtils/out/arsdk-native/build/libARController/obj/gen/Sources/ARCONTROLLER_Feature.c.o
                0x00000000000b1d20                ARCONTROLLER_FEATURE_ARDrone3_NetworkStateWifiScanListChangedCallback
 *fill*         0x00000000000b229d        0x3 
 .text.ARCONTROLLER_ARDrone3_NewCmdElementNetworkStateAllWifiScanChanged
                0x00000000000b22a0        0x9 /home/jose/catkin_ws/build/parrot_arsdk/arsdk/src/ARSDKBuildUtils/out/arsdk-native/build/libARController/obj/gen/Sources/ARCONTROLLER_Feature.c.o
                0x00000000000b22a0                ARCONTROLLER_ARDrone3_NewCmdElementNetworkStateAllWifiScanChanged
 *fill*         0x00000000000b22a9        0x7 
 .text.ARCONTROLLER_FEATURE_ARDrone3_NetworkStateAllWifiScanChangedCallback
                0x00000000000b22b0      0x55d /home/jose/catkin_ws/build/parrot_arsdk/arsdk/src/ARSDKBuildUtils/out/arsdk-native/build/libARController/obj/gen/Sources/ARCONTROLLER_Feature.c.o
                0x00000000000b22b0                ARCONTROLLER_FEATURE_ARDrone3_NetworkStateAllWifiScanChangedCallback
 *fill*         0x00000000000b280d        0x3 
 .text.ARCONTROLLER_ARDrone3_NewCmdElementNetworkStateWifiAuthChannelListChanged
                0x00000000000b2810     0x111d /home/jose/catkin_ws/build/parrot_arsdk/arsdk/src/ARSDKBuildUtils/out/arsdk-native/build/libARController/obj/gen/Sources/ARCONTROLLER_Feature.c.o
                0x00000000000b2810                ARCONTROLLER_ARDrone3_NewCmdElementNetworkStateWifiAuthChannelListChanged
 *fill*         0x00000000000b392d        0x3 
 .text.ARCONTROLLER_FEATURE_ARDrone3_NetworkStateWifiAuthChannelListChangedCallback
                0x00000000000b3930      0x585 /home/jose/catkin_ws/build/parrot_arsdk/arsdk/src/ARSDKBuildUtils/out/arsdk-native/build/libARController/obj/gen/Sources/ARCONTROLLER_Feature.c.o
                0x00000000000b3930                ARCONTROLLER_FEATURE_ARDrone3_NetworkStateWifiAuthChannelListChangedCallback
 *fill*         0x00000000000b3eb5        0xb 
 .text.ARCONTROLLER_ARDrone3_NewCmdElementNetworkStateAllWifiAuthChannelChanged
                0x00000000000b3ec0        0x9 /home/jose/catkin_ws/build/parrot_arsdk/arsdk/src/ARSDKBuildUtils/out/arsdk-native/build/libARController/obj/gen/Sources/ARCONTROLLER_Feature.c.o
                0x00000000000b3ec0                ARCONTROLLER_ARDrone3_NewCmdElementNetworkStateAllWifiAuthChannelChanged
 *fill*         0x00000000000b3ec9        0x7 
 .text.ARCONTROLLER_FEATURE_ARDrone3_NetworkStateAllWifiAuthChannelChangedCallback
                0x00000000000b3ed0      0x55d /home/jose/catkin_ws/build/parrot_arsdk/arsdk/src/ARSDKBuildUtils/out/arsdk-native/build/libARController/obj/gen/Sources/ARCONTROLLER_Feature.c.o
                0x00000000000b3ed0                ARCONTROLLER_FEATURE_ARDrone3_NetworkStateAllWifiAuthChannelChangedCallback
 *fill*         0x00000000000b442d        0x3 
 .text.ARCONTROLLER_ARDrone3_NewCmdElementPilotingSettingsStateMaxAltitudeChanged
                0x00000000000b4430      0xf2c /home/jose/catkin_ws/build/parrot_arsdk/arsdk/src/ARSDKBuildUtils/out/arsdk-native/build/libARController/obj/gen/Sources/ARCONTROLLER_Feature.c.o
                0x00000000000b4430                ARCONTROLLER_ARDrone3_NewCmdElementPilotingSettingsStateMaxAltitudeChanged
 *fill*         0x00000000000b535c        0x4 
 .text.ARCONTROLLER_FEATURE_ARDrone3_PilotingSettingsStateMaxAltitudeChangedCallback
                0x00000000000b5360      0x5bd /home/jose/catkin_ws/build/parrot_arsdk/arsdk/src/ARSDKBuildUtils/out/arsdk-native/build/libARController/obj/gen/Sources/ARCONTROLLER_Feature.c.o
                0x00000000000b5360                ARCONTROLLER_FEATURE_ARDrone3_PilotingSettingsStateMaxAltitudeChangedCallback
 *fill*         0x00000000000b591d        0x3 
 .text.ARCONTROLLER_ARDrone3_NewCmdElementPilotingSettingsStateMaxTiltChanged
                0x00000000000b5920      0xf2c /home/jose/catkin_ws/build/parrot_arsdk/arsdk/src/ARSDKBuildUtils/out/arsdk-native/build/libARController/obj/gen/Sources/ARCONTROLLER_Feature.c.o
                0x00000000000b5920                ARCONTROLLER_ARDrone3_NewCmdElementPilotingSettingsStateMaxTiltChanged
 *fill*         0x00000000000b684c        0x4 
 .text.ARCONTROLLER_FEATURE_ARDrone3_PilotingSettingsStateMaxTiltChangedCallback
                0x00000000000b6850      0x5bd /home/jose/catkin_ws/build/parrot_arsdk/arsdk/src/ARSDKBuildUtils/out/arsdk-native/build/libARController/obj/gen/Sources/ARCONTROLLER_Feature.c.o
                0x00000000000b6850                ARCONTROLLER_FEATURE_ARDrone3_PilotingSettingsStateMaxTiltChangedCallback
 *fill*         0x00000000000b6e0d        0x3 
 .text.ARCONTROLLER_ARDrone3_NewCmdElementPilotingSettingsStateAbsolutControlChanged
                0x00000000000b6e10      0x570 /home/jose/catkin_ws/build/parrot_arsdk/arsdk/src/ARSDKBuildUtils/out/arsdk-native/build/libARController/obj/gen/Sources/ARCONTROLLER_Feature.c.o
                0x00000000000b6e10                ARCONTROLLER_ARDrone3_NewCmdElementPilotingSettingsStateAbsolutControlChanged
 .text.ARCONTROLLER_FEATURE_ARDrone3_PilotingSettingsStateAbsolutControlChangedCallback
                0x00000000000b7380      0x56d /home/jose/catkin_ws/build/parrot_arsdk/arsdk/src/ARSDKBuildUtils/out/arsdk-native/build/libARController/obj/gen/Sources/ARCONTROLLER_Feature.c.o
                0x00000000000b7380                ARCONTROLLER_FEATURE_ARDrone3_PilotingSettingsStateAbsolutControlChangedCallback
 *fill*         0x00000000000b78ed        0x3 
 .text.ARCONTROLLER_ARDrone3_NewCmdElementPilotingSettingsStateMaxDistanceChanged
                0x00000000000b78f0      0xf2c /home/jose/catkin_ws/build/parrot_arsdk/arsdk/src/ARSDKBuildUtils/out/arsdk-native/build/libARController/obj/gen/Sources/ARCONTROLLER_Feature.c.o
                0x00000000000b78f0                ARCONTROLLER_ARDrone3_NewCmdElementPilotingSettingsStateMaxDistanceChanged
 *fill*         0x00000000000b881c        0x4 
 .text.ARCONTROLLER_FEATURE_ARDrone3_PilotingSettingsStateMaxDistanceChangedCallback
                0x00000000000b8820      0x5bd /home/jose/catkin_ws/build/parrot_arsdk/arsdk/src/ARSDKBuildUtils/out/arsdk-native/build/libARController/obj/gen/Sources/ARCONTROLLER_Feature.c.o
                0x00000000000b8820                ARCONTROLLER_FEATURE_ARDrone3_PilotingSettingsStateMaxDistanceChangedCallback
 *fill*         0x00000000000b8ddd        0x3 
 .text.ARCONTROLLER_ARDrone3_NewCmdElementPilotingSettingsStateNoFlyOverMaxDistanceChanged
                0x00000000000b8de0      0x570 /home/jose/catkin_ws/build/parrot_arsdk/arsdk/src/ARSDKBuildUtils/out/arsdk-native/build/libARController/obj/gen/Sources/ARCONTROLLER_Feature.c.o
                0x00000000000b8de0                ARCONTROLLER_ARDrone3_NewCmdElementPilotingSettingsStateNoFlyOverMaxDistanceChanged
 .text.ARCONTROLLER_FEATURE_ARDrone3_PilotingSettingsStateNoFlyOverMaxDistanceChangedCallback
                0x00000000000b9350      0x56d /home/jose/catkin_ws/build/parrot_arsdk/arsdk/src/ARSDKBuildUtils/out/arsdk-native/build/libARController/obj/gen/Sources/ARCONTROLLER_Feature.c.o
                0x00000000000b9350                ARCONTROLLER_FEATURE_ARDrone3_PilotingSettingsStateNoFlyOverMaxDistanceChangedCallback
 *fill*         0x00000000000b98bd        0x3 
 .text.ARCONTROLLER_ARDrone3_NewCmdElementPilotingSettingsStateAutonomousFlightMaxHorizontalSpeed
                0x00000000000b98c0      0x590 /home/jose/catkin_ws/build/parrot_arsdk/arsdk/src/ARSDKBuildUtils/out/arsdk-native/build/libARController/obj/gen/Sources/ARCONTROLLER_Feature.c.o
                0x00000000000b98c0                ARCONTROLLER_ARDrone3_NewCmdElementPilotingSettingsStateAutonomousFlightMaxHorizontalSpeed
 .text.ARCONTROLLER_FEATURE_ARDrone3_PilotingSettingsStateAutonomousFlightMaxHorizontalSpeedCallback
                0x00000000000b9e50      0x57d /home/jose/catkin_ws/build/parrot_arsdk/arsdk/src/ARSDKBuildUtils/out/arsdk-native/build/libARController/obj/gen/Sources/ARCONTROLLER_Feature.c.o
                0x00000000000b9e50                ARCONTROLLER_FEATURE_ARDrone3_PilotingSettingsStateAutonomousFlightMaxHorizontalSpeedCallback
 *fill*         0x00000000000ba3cd        0x3 
 .text.ARCONTROLLER_ARDrone3_NewCmdElementPilotingSettingsStateAutonomousFlightMaxVerticalSpeed
                0x00000000000ba3d0      0x590 /home/jose/catkin_ws/build/parrot_arsdk/arsdk/src/ARSDKBuildUtils/out/arsdk-native/build/libARController/obj/gen/Sources/ARCONTROLLER_Feature.c.o
                0x00000000000ba3d0                ARCONTROLLER_ARDrone3_NewCmdElementPilotingSettingsStateAutonomousFlightMaxVerticalSpeed
 .text.ARCONTROLLER_FEATURE_ARDrone3_PilotingSettingsStateAutonomousFlightMaxVerticalSpeedCallback
                0x00000000000ba960      0x57d /home/jose/catkin_ws/build/parrot_arsdk/arsdk/src/ARSDKBuildUtils/out/arsdk-native/build/libARController/obj/gen/Sources/ARCONTROLLER_Feature.c.o
                0x00000000000ba960                ARCONTROLLER_FEATURE_ARDrone3_PilotingSettingsStateAutonomousFlightMaxVerticalSpeedCallback
 *fill*         0x00000000000baedd        0x3 
 .text.ARCONTROLLER_ARDrone3_NewCmdElementPilotingSettingsStateAutonomousFlightMaxHorizontalAcceleration
                0x00000000000baee0      0x590 /home/jose/catkin_ws/build/parrot_arsdk/arsdk/src/ARSDKBuildUtils/out/arsdk-native/build/libARController/obj/gen/Sources/ARCONTROLLER_Feature.c.o
                0x00000000000baee0                ARCONTROLLER_ARDrone3_NewCmdElementPilotingSettingsStateAutonomousFlightMaxHorizontalAcceleration
 .text.ARCONTROLLER_FEATURE_ARDrone3_PilotingSettingsStateAutonomousFlightMaxHorizontalAccelerationCallback
                0x00000000000bb470      0x57d /home/jose/catkin_ws/build/parrot_arsdk/arsdk/src/ARSDKBuildUtils/out/arsdk-native/build/libARController/obj/gen/Sources/ARCONTROLLER_Feature.c.o
                0x00000000000bb470                ARCONTROLLER_FEATURE_ARDrone3_PilotingSettingsStateAutonomousFlightMaxHorizontalAccelerationCallback
 *fill*         0x00000000000bb9ed        0x3 
 .text.ARCONTROLLER_ARDrone3_NewCmdElementPilotingSettingsStateAutonomousFlightMaxVerticalAcceleration
                0x00000000000bb9f0      0x590 /home/jose/catkin_ws/build/parrot_arsdk/arsdk/src/ARSDKBuildUtils/out/arsdk-native/build/libARController/obj/gen/Sources/ARCONTROLLER_Feature.c.o
                0x00000000000bb9f0                ARCONTROLLER_ARDrone3_NewCmdElementPilotingSettingsStateAutonomousFlightMaxVerticalAcceleration
 .text.ARCONTROLLER_FEATURE_ARDrone3_PilotingSettingsStateAutonomousFlightMaxVerticalAccelerationCallback
                0x00000000000bbf80      0x57d /home/jose/catkin_ws/build/parrot_arsdk/arsdk/src/ARSDKBuildUtils/out/arsdk-native/build/libARController/obj/gen/Sources/ARCONTROLLER_Feature.c.o
                0x00000000000bbf80                ARCONTROLLER_FEATURE_ARDrone3_PilotingSettingsStateAutonomousFlightMaxVerticalAccelerationCallback
 *fill*         0x00000000000bc4fd        0x3 
 .text.ARCONTROLLER_ARDrone3_NewCmdElementPilotingSettingsStateAutonomousFlightMaxRotationSpeed
                0x00000000000bc500      0x590 /home/jose/catkin_ws/build/parrot_arsdk/arsdk/src/ARSDKBuildUtils/out/arsdk-native/build/libARController/obj/gen/Sources/ARCONTROLLER_Feature.c.o
                0x00000000000bc500                ARCONTROLLER_ARDrone3_NewCmdElementPilotingSettingsStateAutonomousFlightMaxRotationSpeed
 .text.ARCONTROLLER_FEATURE_ARDrone3_PilotingSettingsStateAutonomousFlightMaxRotationSpeedCallback
                0x00000000000bca90      0x57d /home/jose/catkin_ws/build/parrot_arsdk/arsdk/src/ARSDKBuildUtils/out/arsdk-native/build/libARController/obj/gen/Sources/ARCONTROLLER_Feature.c.o
                0x00000000000bca90                ARCONTROLLER_FEATURE_ARDrone3_PilotingSettingsStateAutonomousFlightMaxRotationSpeedCallback
 *fill*         0x00000000000bd00d        0x3 
 .text.ARCONTROLLER_ARDrone3_NewCmdElementPilotingSettingsStateBankedTurnChanged
                0x00000000000bd010      0x570 /home/jose/catkin_ws/build/parrot_arsdk/arsdk/src/ARSDKBuildUtils/out/arsdk-native/build/libARController/obj/gen/Sources/ARCONTROLLER_Feature.c.o
                0x00000000000bd010                ARCONTROLLER_ARDrone3_NewCmdElementPilotingSettingsStateBankedTurnChanged
 .text.ARCONTROLLER_FEATURE_ARDrone3_PilotingSettingsStateBankedTurnChangedCallback
                0x00000000000bd580      0x56d /home/jose/catkin_ws/build/parrot_arsdk/arsdk/src/ARSDKBuildUtils/out/arsdk-native/build/libARController/obj/gen/Sources/ARCONTROLLER_Feature.c.o
                0x00000000000bd580                ARCONTROLLER_FEATURE_ARDrone3_PilotingSettingsStateBankedTurnChangedCallback
 *fill*         0x00000000000bdaed        0x3 
 .text.ARCONTROLLER_ARDrone3_NewCmdElementPilotingSettingsStateMinAltitudeChanged
                0x00000000000bdaf0      0xf2c /home/jose/catkin_ws/build/parrot_arsdk/arsdk/src/ARSDKBuildUtils/out/arsdk-native/build/libARController/obj/gen/Sources/ARCONTROLLER_Feature.c.o
                0x00000000000bdaf0                ARCONTROLLER_ARDrone3_NewCmdElementPilotingSettingsStateMinAltitudeChanged
 *fill*         0x00000000000bea1c        0x4 
 .text.ARCONTROLLER_FEATURE_ARDrone3_PilotingSettingsStateMinAltitudeChangedCallback
                0x00000000000bea20      0x5bd /home/jose/catkin_ws/build/parrot_arsdk/arsdk/src/ARSDKBuildUtils/out/arsdk-native/build/libARController/obj/gen/Sources/ARCONTROLLER_Feature.c.o
                0x00000000000bea20                ARCONTROLLER_FEATURE_ARDrone3_PilotingSettingsStateMinAltitudeChangedCallback
 *fill*         0x00000000000befdd        0x3 
 .text.ARCONTROLLER_ARDrone3_NewCmdElementPilotingSettingsStateCirclingDirectionChanged
                0x00000000000befe0      0x570 /home/jose/catkin_ws/build/parrot_arsdk/arsdk/src/ARSDKBuildUtils/out/arsdk-native/build/libARController/obj/gen/Sources/ARCONTROLLER_Feature.c.o
                0x00000000000befe0                ARCONTROLLER_ARDrone3_NewCmdElementPilotingSettingsStateCirclingDirectionChanged
 .text.ARCONTROLLER_FEATURE_ARDrone3_PilotingSettingsStateCirclingDirectionChangedCallback
                0x00000000000bf550      0x56d /home/jose/catkin_ws/build/parrot_arsdk/arsdk/src/ARSDKBuildUtils/out/arsdk-native/build/libARController/obj/gen/Sources/ARCONTROLLER_Feature.c.o
                0x00000000000bf550                ARCONTROLLER_FEATURE_ARDrone3_PilotingSettingsStateCirclingDirectionChangedCallback
 *fill*         0x00000000000bfabd        0x3 
 .text.ARCONTROLLER_ARDrone3_NewCmdElementPilotingSettingsStateCirclingRadiusChanged
                0x00000000000bfac0      0xf1b /home/jose/catkin_ws/build/parrot_arsdk/arsdk/src/ARSDKBuildUtils/out/arsdk-native/build/libARController/obj/gen/Sources/ARCONTROLLER_Feature.c.o
                0x00000000000bfac0                ARCONTROLLER_ARDrone3_NewCmdElementPilotingSettingsStateCirclingRadiusChanged
 *fill*         0x00000000000c09db        0x5 
 .text.ARCONTROLLER_FEATURE_ARDrone3_PilotingSettingsStateCirclingRadiusChangedCallback
                0x00000000000c09e0      0x57d /home/jose/catkin_ws/build/parrot_arsdk/arsdk/src/ARSDKBuildUtils/out/arsdk-native/build/libARController/obj/gen/Sources/ARCONTROLLER_Feature.c.o
                0x00000000000c09e0                ARCONTROLLER_FEATURE_ARDrone3_PilotingSettingsStateCirclingRadiusChangedCallback
 *fill*         0x00000000000c0f5d        0x3 
 .text.ARCONTROLLER_ARDrone3_NewCmdElementPilotingSettingsStateCirclingAltitudeChanged
                0x00000000000c0f60      0xf1b /home/jose/catkin_ws/build/parrot_arsdk/arsdk/src/ARSDKBuildUtils/out/arsdk-native/build/libARController/obj/gen/Sources/ARCONTROLLER_Feature.c.o
                0x00000000000c0f60                ARCONTROLLER_ARDrone3_NewCmdElementPilotingSettingsStateCirclingAltitudeChanged
 *fill*         0x00000000000c1e7b        0x5 
 .text.ARCONTROLLER_FEATURE_ARDrone3_PilotingSettingsStateCirclingAltitudeChangedCallback
                0x00000000000c1e80      0x57d /home/jose/catkin_ws/build/parrot_arsdk/arsdk/src/ARSDKBuildUtils/out/arsdk-native/build/libARController/obj/gen/Sources/ARCONTROLLER_Feature.c.o
                0x00000000000c1e80                ARCONTROLLER_FEATURE_ARDrone3_PilotingSettingsStateCirclingAltitudeChangedCallback
 *fill*         0x00000000000c23fd        0x3 
 .text.ARCONTROLLER_ARDrone3_NewCmdElementPilotingSettingsStatePitchModeChanged
                0x00000000000c2400      0x570 /home/jose/catkin_ws/build/parrot_arsdk/arsdk/src/ARSDKBuildUtils/out/arsdk-native/build/libARController/obj/gen/Sources/ARCONTROLLER_Feature.c.o
                0x00000000000c2400                ARCONTROLLER_ARDrone3_NewCmdElementPilotingSettingsStatePitchModeChanged
 .text.ARCONTROLLER_FEATURE_ARDrone3_PilotingSettingsStatePitchModeChangedCallback
                0x00000000000c2970      0x56d /home/jose/catkin_ws/build/parrot_arsdk/arsdk/src/ARSDKBuildUtils/out/arsdk-native/build/libARController/obj/gen/Sources/ARCONTROLLER_Feature.c.o
                0x00000000000c2970                ARCONTROLLER_FEATURE_ARDrone3_PilotingSettingsStatePitchModeChangedCallback
 *fill*         0x00000000000c2edd        0x3 
 .text.ARCONTROLLER_ARDrone3_NewCmdElementPilotingSettingsStateMotionDetection
                0x00000000000c2ee0      0x570 /home/jose/catkin_ws/build/parrot_arsdk/arsdk/src/ARSDKBuildUtils/out/arsdk-native/build/libARController/obj/gen/Sources/ARCONTROLLER_Feature.c.o
                0x00000000000c2ee0                ARCONTROLLER_ARDrone3_NewCmdElementPilotingSettingsStateMotionDetection
 .text.ARCONTROLLER_FEATURE_ARDrone3_PilotingSettingsStateMotionDetectionCallback
                0x00000000000c3450      0x56d /home/jose/catkin_ws/build/parrot_arsdk/arsdk/src/ARSDKBuildUtils/out/arsdk-native/build/libARController/obj/gen/Sources/ARCONTROLLER_Feature.c.o
                0x00000000000c3450                ARCONTROLLER_FEATURE_ARDrone3_PilotingSettingsStateMotionDetectionCallback
 *fill*         0x00000000000c39bd        0x3 
 .text.ARCONTROLLER_ARDrone3_NewCmdElementSpeedSettingsStateMaxVerticalSpeedChanged
                0x00000000000c39c0      0xf2c /home/jose/catkin_ws/build/parrot_arsdk/arsdk/src/ARSDKBuildUtils/out/arsdk-native/build/libARController/obj/gen/Sources/ARCONTROLLER_Feature.c.o
                0x00000000000c39c0                ARCONTROLLER_ARDrone3_NewCmdElementSpeedSettingsStateMaxVerticalSpeedChanged
 *fill*         0x00000000000c48ec        0x4 
 .text.ARCONTROLLER_FEATURE_ARDrone3_SpeedSettingsStateMaxVerticalSpeedChangedCallback
                0x00000000000c48f0      0x5bd /home/jose/catkin_ws/build/parrot_arsdk/arsdk/src/ARSDKBuildUtils/out/arsdk-native/build/libARController/obj/gen/Sources/ARCONTROLLER_Feature.c.o
                0x00000000000c48f0                ARCONTROLLER_FEATURE_ARDrone3_SpeedSettingsStateMaxVerticalSpeedChangedCallback
 *fill*         0x00000000000c4ead        0x3 
 .text.ARCONTROLLER_ARDrone3_NewCmdElementSpeedSettingsStateMaxRotationSpeedChanged
                0x00000000000c4eb0      0xf2c /home/jose/catkin_ws/build/parrot_arsdk/arsdk/src/ARSDKBuildUtils/out/arsdk-native/build/libARController/obj/gen/Sources/ARCONTROLLER_Feature.c.o
                0x00000000000c4eb0                ARCONTROLLER_ARDrone3_NewCmdElementSpeedSettingsStateMaxRotationSpeedChanged
 *fill*         0x00000000000c5ddc        0x4 
 .text.ARCONTROLLER_FEATURE_ARDrone3_SpeedSettingsStateMaxRotationSpeedChangedCallback
                0x00000000000c5de0      0x5bd /home/jose/catkin_ws/build/parrot_arsdk/arsdk/src/ARSDKBuildUtils/out/arsdk-native/build/libARController/obj/gen/Sources/ARCONTROLLER_Feature.c.o
                0x00000000000c5de0                ARCONTROLLER_FEATURE_ARDrone3_SpeedSettingsStateMaxRotationSpeedChangedCallback
 *fill*         0x00000000000c639d        0x3 
 .text.ARCONTROLLER_ARDrone3_NewCmdElementSpeedSettingsStateHullProtectionChanged
                0x00000000000c63a0      0x570 /home/jose/catkin_ws/build/parrot_arsdk/arsdk/src/ARSDKBuildUtils/out/arsdk-native/build/libARController/obj/gen/Sources/ARCONTROLLER_Feature.c.o
                0x00000000000c63a0                ARCONTROLLER_ARDrone3_NewCmdElementSpeedSettingsStateHullProtectionChanged
 .text.ARCONTROLLER_FEATURE_ARDrone3_SpeedSettingsStateHullProtectionChangedCallback
                0x00000000000c6910      0x56d /home/jose/catkin_ws/build/parrot_arsdk/arsdk/src/ARSDKBuildUtils/out/arsdk-native/build/libARController/obj/gen/Sources/ARCONTROLLER_Feature.c.o
                0x00000000000c6910                ARCONTROLLER_FEATURE_ARDrone3_SpeedSettingsStateHullProtectionChangedCallback
 *fill*         0x00000000000c6e7d        0x3 
 .text.ARCONTROLLER_ARDrone3_NewCmdElementSpeedSettingsStateOutdoorChanged
                0x00000000000c6e80      0x570 /home/jose/catkin_ws/build/parrot_arsdk/arsdk/src/ARSDKBuildUtils/out/arsdk-native/build/libARController/obj/gen/Sources/ARCONTROLLER_Feature.c.o
                0x00000000000c6e80                ARCONTROLLER_ARDrone3_NewCmdElementSpeedSettingsStateOutdoorChanged
 .text.ARCONTROLLER_FEATURE_ARDrone3_SpeedSettingsStateOutdoorChangedCallback
                0x00000000000c73f0      0x56d /home/jose/catkin_ws/build/parrot_arsdk/arsdk/src/ARSDKBuildUtils/out/arsdk-native/build/libARController/obj/gen/Sources/ARCONTROLLER_Feature.c.o
                0x00000000000c73f0                ARCONTROLLER_FEATURE_ARDrone3_SpeedSettingsStateOutdoorChangedCallback
 *fill*         0x00000000000c795d        0x3 
 .text.ARCONTROLLER_ARDrone3_NewCmdElementSpeedSettingsStateMaxPitchRollRotationSpeedChanged
                0x00000000000c7960      0xf2c /home/jose/catkin_ws/build/parrot_arsdk/arsdk/src/ARSDKBuildUtils/out/arsdk-native/build/libARController/obj/gen/Sources/ARCONTROLLER_Feature.c.o
                0x00000000000c7960                ARCONTROLLER_ARDrone3_NewCmdElementSpeedSettingsStateMaxPitchRollRotationSpeedChanged
 *fill*         0x00000000000c888c        0x4 
 .text.ARCONTROLLER_FEATURE_ARDrone3_SpeedSettingsStateMaxPitchRollRotationSpeedChangedCallback
                0x00000000000c8890      0x5bd /home/jose/catkin_ws/build/parrot_arsdk/arsdk/src/ARSDKBuildUtils/out/arsdk-native/build/libARController/obj/gen/Sources/ARCONTROLLER_Feature.c.o
                0x00000000000c8890                ARCONTROLLER_FEATURE_ARDrone3_SpeedSettingsStateMaxPitchRollRotationSpeedChangedCallback
 *fill*         0x00000000000c8e4d        0x3 
 .text.ARCONTROLLER_ARDrone3_NewCmdElementNetworkSettingsStateWifiSelectionChanged
                0x00000000000c8e50      0xf1b /home/jose/catkin_ws/build/parrot_arsdk/arsdk/src/ARSDKBuildUtils/out/arsdk-native/build/libARController/obj/gen/Sources/ARCONTROLLER_Feature.c.o
                0x00000000000c8e50                ARCONTROLLER_ARDrone3_NewCmdElementNetworkSettingsStateWifiSelectionChanged
 *fill*         0x00000000000c9d6b        0x5 
 .text.ARCONTROLLER_FEATURE_ARDrone3_NetworkSettingsStateWifiSelectionChangedCallback
                0x00000000000c9d70      0x56d /home/jose/catkin_ws/build/parrot_arsdk/arsdk/src/ARSDKBuildUtils/out/arsdk-native/build/libARController/obj/gen/Sources/ARCONTROLLER_Feature.c.o
                0x00000000000c9d70                ARCONTROLLER_FEATURE_ARDrone3_NetworkSettingsStateWifiSelectionChangedCallback
 *fill*         0x00000000000ca2dd        0x3 
 .text.ARCONTROLLER_ARDrone3_NewCmdElementNetworkSettingsStateWifiSecurityChanged
                0x00000000000ca2e0      0x570 /home/jose/catkin_ws/build/parrot_arsdk/arsdk/src/ARSDKBuildUtils/out/arsdk-native/build/libARController/obj/gen/Sources/ARCONTROLLER_Feature.c.o
                0x00000000000ca2e0                ARCONTROLLER_ARDrone3_NewCmdElementNetworkSettingsStateWifiSecurityChanged
 .text.ARCONTROLLER_FEATURE_ARDrone3_NetworkSettingsStateWifiSecurityChangedCallback
                0x00000000000ca850      0x56d /home/jose/catkin_ws/build/parrot_arsdk/arsdk/src/ARSDKBuildUtils/out/arsdk-native/build/libARController/obj/gen/Sources/ARCONTROLLER_Feature.c.o
                0x00000000000ca850                ARCONTROLLER_FEATURE_ARDrone3_NetworkSettingsStateWifiSecurityChangedCallback
 *fill*         0x00000000000cadbd        0x3 
 .text.ARCONTROLLER_ARDrone3_NewCmdElementNetworkSettingsStateWifiSecurity
                0x00000000000cadc0      0xf7b /home/jose/catkin_ws/build/parrot_arsdk/arsdk/src/ARSDKBuildUtils/out/arsdk-native/build/libARController/obj/gen/Sources/ARCONTROLLER_Feature.c.o
                0x00000000000cadc0                ARCONTROLLER_ARDrone3_NewCmdElementNetworkSettingsStateWifiSecurity
 *fill*         0x00000000000cbd3b        0x5 
 .text.ARCONTROLLER_FEATURE_ARDrone3_NetworkSettingsStateWifiSecurityCallback
                0x00000000000cbd40      0x56d /home/jose/catkin_ws/build/parrot_arsdk/arsdk/src/ARSDKBuildUtils/out/arsdk-native/build/libARController/obj/gen/Sources/ARCONTROLLER_Feature.c.o
                0x00000000000cbd40                ARCONTROLLER_FEATURE_ARDrone3_NetworkSettingsStateWifiSecurityCallback
 *fill*         0x00000000000cc2ad        0x3 
 .text.ARCONTROLLER_ARDrone3_NewCmdElementSettingsStateProductMotorVersionListChanged
                0x00000000000cc2b0     0x16dc /home/jose/catkin_ws/build/parrot_arsdk/arsdk/src/ARSDKBuildUtils/out/arsdk-native/build/libARController/obj/gen/Sources/ARCONTROLLER_Feature.c.o
                0x00000000000cc2b0                ARCONTROLLER_ARDrone3_NewCmdElementSettingsStateProductMotorVersionListChanged
 *fill*         0x00000000000cd98c        0x4 
 .text.ARCONTROLLER_FEATURE_ARDrone3_SettingsStateProductMotorVersionListChangedCallback
                0x00000000000cd990      0x57d /home/jose/catkin_ws/build/parrot_arsdk/arsdk/src/ARSDKBuildUtils/out/arsdk-native/build/libARController/obj/gen/Sources/ARCONTROLLER_Feature.c.o
                0x00000000000cd990                ARCONTROLLER_FEATURE_ARDrone3_SettingsStateProductMotorVersionListChangedCallback
 *fill*         0x00000000000cdf0d        0x3 
 .text.ARCONTROLLER_ARDrone3_NewCmdElementSettingsStateProductGPSVersionChanged
                0x00000000000cdf10      0xa7a /home/jose/catkin_ws/build/parrot_arsdk/arsdk/src/ARSDKBuildUtils/out/arsdk-native/build/libARController/obj/gen/Sources/ARCONTROLLER_Feature.c.o
                0x00000000000cdf10                ARCONTROLLER_ARDrone3_NewCmdElementSettingsStateProductGPSVersionChanged
 *fill*         0x00000000000ce98a        0x6 
 .text.ARCONTROLLER_FEATURE_ARDrone3_SettingsStateProductGPSVersionChangedCallback
                0x00000000000ce990      0x56d /home/jose/catkin_ws/build/parrot_arsdk/arsdk/src/ARSDKBuildUtils/out/arsdk-native/build/libARController/obj/gen/Sources/ARCONTROLLER_Feature.c.o
                0x00000000000ce990                ARCONTROLLER_FEATURE_ARDrone3_SettingsStateProductGPSVersionChangedCallback
 *fill*         0x00000000000ceefd        0x3 
 .text.ARCONTROLLER_ARDrone3_NewCmdElementSettingsStateMotorErrorStateChanged
                0x00000000000cef00      0x9cc /home/jose/catkin_ws/build/parrot_arsdk/arsdk/src/ARSDKBuildUtils/out/arsdk-native/build/libARController/obj/gen/Sources/ARCONTROLLER_Feature.c.o
                0x00000000000cef00                ARCONTROLLER_ARDrone3_NewCmdElementSettingsStateMotorErrorStateChanged
 *fill*         0x00000000000cf8cc        0x4 
 .text.ARCONTROLLER_FEATURE_ARDrone3_SettingsStateMotorErrorStateChangedCallback
                0x00000000000cf8d0      0x56d /home/jose/catkin_ws/build/parrot_arsdk/arsdk/src/ARSDKBuildUtils/out/arsdk-native/build/libARController/obj/gen/Sources/ARCONTROLLER_Feature.c.o
                0x00000000000cf8d0                ARCONTROLLER_FEATURE_ARDrone3_SettingsStateMotorErrorStateChangedCallback
 *fill*         0x00000000000cfe3d        0x3 
 .text.ARCONTROLLER_ARDrone3_NewCmdElementSettingsStateMotorSoftwareVersionChanged
                0x00000000000cfe40      0x5a2 /home/jose/catkin_ws/build/parrot_arsdk/arsdk/src/ARSDKBuildUtils/out/arsdk-native/build/libARController/obj/gen/Sources/ARCONTROLLER_Feature.c.o
                0x00000000000cfe40                ARCONTROLLER_ARDrone3_NewCmdElementSettingsStateMotorSoftwareVersionChanged
 *fill*         0x00000000000d03e2        0xe 
 .text.ARCONTROLLER_FEATURE_ARDrone3_SettingsStateMotorSoftwareVersionChangedCallback
                0x00000000000d03f0      0x56d /home/jose/catkin_ws/build/parrot_arsdk/arsdk/src/ARSDKBuildUtils/out/arsdk-native/build/libARController/obj/gen/Sources/ARCONTROLLER_Feature.c.o
                0x00000000000d03f0                ARCONTROLLER_FEATURE_ARDrone3_SettingsStateMotorSoftwareVersionChangedCallback
 *fill*         0x00000000000d095d        0x3 
 .text.ARCONTROLLER_ARDrone3_NewCmdElementSettingsStateMotorFlightsStatusChanged
                0x00000000000d0960      0xf1b /home/jose/catkin_ws/build/parrot_arsdk/arsdk/src/ARSDKBuildUtils/out/arsdk-native/build/libARController/obj/gen/Sources/ARCONTROLLER_Feature.c.o
                0x00000000000d0960                ARCONTROLLER_ARDrone3_NewCmdElementSettingsStateMotorFlightsStatusChanged
 *fill*         0x00000000000d187b        0x5 
 .text.ARCONTROLLER_FEATURE_ARDrone3_SettingsStateMotorFlightsStatusChangedCallback
                0x00000000000d1880      0x56d /home/jose/catkin_ws/build/parrot_arsdk/arsdk/src/ARSDKBuildUtils/out/arsdk-native/build/libARController/obj/gen/Sources/ARCONTROLLER_Feature.c.o
                0x00000000000d1880                ARCONTROLLER_FEATURE_ARDrone3_SettingsStateMotorFlightsStatusChangedCallback
 *fill*         0x00000000000d1ded        0x3 
 .text.ARCONTROLLER_ARDrone3_NewCmdElementSettingsStateMotorErrorLastErrorChanged
                0x00000000000d1df0      0x570 /home/jose/catkin_ws/build/parrot_arsdk/arsdk/src/ARSDKBuildUtils/out/arsdk-native/build/libARController/obj/gen/Sources/ARCONTROLLER_Feature.c.o
                0x00000000000d1df0                ARCONTROLLER_ARDrone3_NewCmdElementSettingsStateMotorErrorLastErrorChanged
 .text.ARCONTROLLER_FEATURE_ARDrone3_SettingsStateMotorErrorLastErrorChangedCallback
                0x00000000000d2360      0x56d /home/jose/catkin_ws/build/parrot_arsdk/arsdk/src/ARSDKBuildUtils/out/arsdk-native/build/libARController/obj/gen/Sources/ARCONTROLLER_Feature.c.o
                0x00000000000d2360                ARCONTROLLER_FEATURE_ARDrone3_SettingsStateMotorErrorLastErrorChangedCallback
 *fill*         0x00000000000d28cd        0x3 
 .text.ARCONTROLLER_ARDrone3_NewCmdElementSettingsStateP7ID
                0x00000000000d28d0      0x5a2 /home/jose/catkin_ws/build/parrot_arsdk/arsdk/src/ARSDKBuildUtils/out/arsdk-native/build/libARController/obj/gen/Sources/ARCONTROLLER_Feature.c.o
                0x00000000000d28d0                ARCONTROLLER_ARDrone3_NewCmdElementSettingsStateP7ID
 *fill*         0x00000000000d2e72        0xe 
 .text.ARCONTROLLER_FEATURE_ARDrone3_SettingsStateP7IDCallback
                0x00000000000d2e80      0x56d /home/jose/catkin_ws/build/parrot_arsdk/arsdk/src/ARSDKBuildUtils/out/arsdk-native/build/libARController/obj/gen/Sources/ARCONTROLLER_Feature.c.o
                0x00000000000d2e80                ARCONTROLLER_FEATURE_ARDrone3_SettingsStateP7IDCallback
 *fill*         0x00000000000d33ed        0x3 
 .text.ARCONTROLLER_ARDrone3_NewCmdElementSettingsStateCPUID
                0x00000000000d33f0      0x5a2 /home/jose/catkin_ws/build/parrot_arsdk/arsdk/src/ARSDKBuildUtils/out/arsdk-native/build/libARController/obj/gen/Sources/ARCONTROLLER_Feature.c.o
                0x00000000000d33f0                ARCONTROLLER_ARDrone3_NewCmdElementSettingsStateCPUID
 *fill*         0x00000000000d3992        0xe 
 .text.ARCONTROLLER_FEATURE_ARDrone3_SettingsStateCPUIDCallback
                0x00000000000d39a0      0x56d /home/jose/catkin_ws/build/parrot_arsdk/arsdk/src/ARSDKBuildUtils/out/arsdk-native/build/libARController/obj/gen/Sources/ARCONTROLLER_Feature.c.o
                0x00000000000d39a0                ARCONTROLLER_FEATURE_ARDrone3_SettingsStateCPUIDCallback
 *fill*         0x00000000000d3f0d        0x3 
 .text.ARCONTROLLER_ARDrone3_NewCmdElementPictureSettingsStatePictureFormatChanged
                0x00000000000d3f10      0x570 /home/jose/catkin_ws/build/parrot_arsdk/arsdk/src/ARSDKBuildUtils/out/arsdk-native/build/libARController/obj/gen/Sources/ARCONTROLLER_Feature.c.o
                0x00000000000d3f10                ARCONTROLLER_ARDrone3_NewCmdElementPictureSettingsStatePictureFormatChanged
 .text.ARCONTROLLER_FEATURE_ARDrone3_PictureSettingsStatePictureFormatChangedCallback
                0x00000000000d4480      0x56d /home/jose/catkin_ws/build/parrot_arsdk/arsdk/src/ARSDKBuildUtils/out/arsdk-native/build/libARController/obj/gen/Sources/ARCONTROLLER_Feature.c.o
                0x00000000000d4480                ARCONTROLLER_FEATURE_ARDrone3_PictureSettingsStatePictureFormatChangedCallback
 *fill*         0x00000000000d49ed        0x3 
 .text.ARCONTROLLER_ARDrone3_NewCmdElementPictureSettingsStateAutoWhiteBalanceChanged
                0x00000000000d49f0      0x570 /home/jose/catkin_ws/build/parrot_arsdk/arsdk/src/ARSDKBuildUtils/out/arsdk-native/build/libARController/obj/gen/Sources/ARCONTROLLER_Feature.c.o
                0x00000000000d49f0                ARCONTROLLER_ARDrone3_NewCmdElementPictureSettingsStateAutoWhiteBalanceChanged
 .text.ARCONTROLLER_FEATURE_ARDrone3_PictureSettingsStateAutoWhiteBalanceChangedCallback
                0x00000000000d4f60      0x56d /home/jose/catkin_ws/build/parrot_arsdk/arsdk/src/ARSDKBuildUtils/out/arsdk-native/build/libARController/obj/gen/Sources/ARCONTROLLER_Feature.c.o
                0x00000000000d4f60                ARCONTROLLER_FEATURE_ARDrone3_PictureSettingsStateAutoWhiteBalanceChangedCallback
 *fill*         0x00000000000d54cd        0x3 
 .text.ARCONTROLLER_ARDrone3_NewCmdElementPictureSettingsStateExpositionChanged
                0x00000000000d54d0      0xf2c /home/jose/catkin_ws/build/parrot_arsdk/arsdk/src/ARSDKBuildUtils/out/arsdk-native/build/libARController/obj/gen/Sources/ARCONTROLLER_Feature.c.o
                0x00000000000d54d0                ARCONTROLLER_ARDrone3_NewCmdElementPictureSettingsStateExpositionChanged
 *fill*         0x00000000000d63fc        0x4 
 .text.ARCONTROLLER_FEATURE_ARDrone3_PictureSettingsStateExpositionChangedCallback
                0x00000000000d6400      0x5bd /home/jose/catkin_ws/build/parrot_arsdk/arsdk/src/ARSDKBuildUtils/out/arsdk-native/build/libARController/obj/gen/Sources/ARCONTROLLER_Feature.c.o
                0x00000000000d6400                ARCONTROLLER_FEATURE_ARDrone3_PictureSettingsStateExpositionChangedCallback
 *fill*         0x00000000000d69bd        0x3 
 .text.ARCONTROLLER_ARDrone3_NewCmdElementPictureSettingsStateSaturationChanged
                0x00000000000d69c0      0xf2c /home/jose/catkin_ws/build/parrot_arsdk/arsdk/src/ARSDKBuildUtils/out/arsdk-native/build/libARController/obj/gen/Sources/ARCONTROLLER_Feature.c.o
                0x00000000000d69c0                ARCONTROLLER_ARDrone3_NewCmdElementPictureSettingsStateSaturationChanged
 *fill*         0x00000000000d78ec        0x4 
 .text.ARCONTROLLER_FEATURE_ARDrone3_PictureSettingsStateSaturationChangedCallback
                0x00000000000d78f0      0x5bd /home/jose/catkin_ws/build/parrot_arsdk/arsdk/src/ARSDKBuildUtils/out/arsdk-native/build/libARController/obj/gen/Sources/ARCONTROLLER_Feature.c.o
                0x00000000000d78f0                ARCONTROLLER_FEATURE_ARDrone3_PictureSettingsStateSaturationChangedCallback
 *fill*         0x00000000000d7ead        0x3 
 .text.ARCONTROLLER_ARDrone3_NewCmdElementPictureSettingsStateTimelapseChanged
                0x00000000000d7eb0     0x1458 /home/jose/catkin_ws/build/parrot_arsdk/arsdk/src/ARSDKBuildUtils/out/arsdk-native/build/libARController/obj/gen/Sources/ARCONTROLLER_Feature.c.o
                0x00000000000d7eb0                ARCONTROLLER_ARDrone3_NewCmdElementPictureSettingsStateTimelapseChanged
 *fill*         0x00000000000d9308        0x8 
 .text.ARCONTROLLER_FEATURE_ARDrone3_PictureSettingsStateTimelapseChangedCallback
                0x00000000000d9310      0x5cd /home/jose/catkin_ws/build/parrot_arsdk/arsdk/src/ARSDKBuildUtils/out/arsdk-native/build/libARController/obj/gen/Sources/ARCONTROLLER_Feature.c.o
                0x00000000000d9310                ARCONTROLLER_FEATURE_ARDrone3_PictureSettingsStateTimelapseChangedCallback
 *fill*         0x00000000000d98dd        0x3 
 .text.ARCONTROLLER_ARDrone3_NewCmdElementPictureSettingsStateVideoAutorecordChanged
                0x00000000000d98e0      0x9cc /home/jose/catkin_ws/build/parrot_arsdk/arsdk/src/ARSDKBuildUtils/out/arsdk-native/build/libARController/obj/gen/Sources/ARCONTROLLER_Feature.c.o
                0x00000000000d98e0                ARCONTROLLER_ARDrone3_NewCmdElementPictureSettingsStateVideoAutorecordChanged
 *fill*         0x00000000000da2ac        0x4 
 .text.ARCONTROLLER_FEATURE_ARDrone3_PictureSettingsStateVideoAutorecordChangedCallback
                0x00000000000da2b0      0x56d /home/jose/catkin_ws/build/parrot_arsdk/arsdk/src/ARSDKBuildUtils/out/arsdk-native/build/libARController/obj/gen/Sources/ARCONTROLLER_Feature.c.o
                0x00000000000da2b0                ARCONTROLLER_FEATURE_ARDrone3_PictureSettingsStateVideoAutorecordChangedCallback
 *fill*         0x00000000000da81d        0x3 
 .text.ARCONTROLLER_ARDrone3_NewCmdElementPictureSettingsStateVideoStabilizationModeChanged
                0x00000000000da820      0x570 /home/jose/catkin_ws/build/parrot_arsdk/arsdk/src/ARSDKBuildUtils/out/arsdk-native/build/libARController/obj/gen/Sources/ARCONTROLLER_Feature.c.o
                0x00000000000da820                ARCONTROLLER_ARDrone3_NewCmdElementPictureSettingsStateVideoStabilizationModeChanged
 .text.ARCONTROLLER_FEATURE_ARDrone3_PictureSettingsStateVideoStabilizationModeChangedCallback
                0x00000000000dad90      0x56d /home/jose/catkin_ws/build/parrot_arsdk/arsdk/src/ARSDKBuildUtils/out/arsdk-native/build/libARController/obj/gen/Sources/ARCONTROLLER_Feature.c.o
                0x00000000000dad90                ARCONTROLLER_FEATURE_ARDrone3_PictureSettingsStateVideoStabilizationModeChangedCallback
 *fill*         0x00000000000db2fd        0x3 
 .text.ARCONTROLLER_ARDrone3_NewCmdElementPictureSettingsStateVideoRecordingModeChanged
                0x00000000000db300      0x570 /home/jose/catkin_ws/build/parrot_arsdk/arsdk/src/ARSDKBuildUtils/out/arsdk-native/build/libARController/obj/gen/Sources/ARCONTROLLER_Feature.c.o
                0x00000000000db300                ARCONTROLLER_ARDrone3_NewCmdElementPictureSettingsStateVideoRecordingModeChanged
 .text.ARCONTROLLER_FEATURE_ARDrone3_PictureSettingsStateVideoRecordingModeChangedCallback
                0x00000000000db870      0x56d /home/jose/catkin_ws/build/parrot_arsdk/arsdk/src/ARSDKBuildUtils/out/arsdk-native/build/libARController/obj/gen/Sources/ARCONTROLLER_Feature.c.o
                0x00000000000db870                ARCONTROLLER_FEATURE_ARDrone3_PictureSettingsStateVideoRecordingModeChangedCallback
 *fill*         0x00000000000dbddd        0x3 
 .text.ARCONTROLLER_ARDrone3_NewCmdElementPictureSettingsStateVideoFramerateChanged
                0x00000000000dbde0      0x570 /home/jose/catkin_ws/build/parrot_arsdk/arsdk/src/ARSDKBuildUtils/out/arsdk-native/build/libARController/obj/gen/Sources/ARCONTROLLER_Feature.c.o
                0x00000000000dbde0                ARCONTROLLER_ARDrone3_NewCmdElementPictureSettingsStateVideoFramerateChanged
 .text.ARCONTROLLER_FEATURE_ARDrone3_PictureSettingsStateVideoFramerateChangedCallback
                0x00000000000dc350      0x56d /home/jose/catkin_ws/build/parrot_arsdk/arsdk/src/ARSDKBuildUtils/out/arsdk-native/build/libARController/obj/gen/Sources/ARCONTROLLER_Feature.c.o
                0x00000000000dc350                ARCONTROLLER_FEATURE_ARDrone3_PictureSettingsStateVideoFramerateChangedCallback
 *fill*         0x00000000000dc8bd        0x3 
 .text.ARCONTROLLER_ARDrone3_NewCmdElementPictureSettingsStateVideoResolutionsChanged
                0x00000000000dc8c0      0x570 /home/jose/catkin_ws/build/parrot_arsdk/arsdk/src/ARSDKBuildUtils/out/arsdk-native/build/libARController/obj/gen/Sources/ARCONTROLLER_Feature.c.o
                0x00000000000dc8c0                ARCONTROLLER_ARDrone3_NewCmdElementPictureSettingsStateVideoResolutionsChanged
 .text.ARCONTROLLER_FEATURE_ARDrone3_PictureSettingsStateVideoResolutionsChangedCallback
                0x00000000000dce30      0x56d /home/jose/catkin_ws/build/parrot_arsdk/arsdk/src/ARSDKBuildUtils/out/arsdk-native/build/libARController/obj/gen/Sources/ARCONTROLLER_Feature.c.o
                0x00000000000dce30                ARCONTROLLER_FEATURE_ARDrone3_PictureSettingsStateVideoResolutionsChangedCallback
 *fill*         0x00000000000dd39d        0x3 
 .text.ARCONTROLLER_ARDrone3_NewCmdElementMediaStreamingStateVideoEnableChanged
                0x00000000000dd3a0      0x570 /home/jose/catkin_ws/build/parrot_arsdk/arsdk/src/ARSDKBuildUtils/out/arsdk-native/build/libARController/obj/gen/Sources/ARCONTROLLER_Feature.c.o
                0x00000000000dd3a0                ARCONTROLLER_ARDrone3_NewCmdElementMediaStreamingStateVideoEnableChanged
 .text.ARCONTROLLER_FEATURE_ARDrone3_MediaStreamingStateVideoEnableChangedCallback
                0x00000000000dd910      0x56d /home/jose/catkin_ws/build/parrot_arsdk/arsdk/src/ARSDKBuildUtils/out/arsdk-native/build/libARController/obj/gen/Sources/ARCONTROLLER_Feature.c.o
                0x00000000000dd910                ARCONTROLLER_FEATURE_ARDrone3_MediaStreamingStateVideoEnableChangedCallback
 *fill*         0x00000000000dde7d        0x3 
 .text.ARCONTROLLER_ARDrone3_NewCmdElementMediaStreamingStateVideoStreamModeChanged
                0x00000000000dde80      0x570 /home/jose/catkin_ws/build/parrot_arsdk/arsdk/src/ARSDKBuildUtils/out/arsdk-native/build/libARController/obj/gen/Sources/ARCONTROLLER_Feature.c.o
                0x00000000000dde80                ARCONTROLLER_ARDrone3_NewCmdElementMediaStreamingStateVideoStreamModeChanged
 .text.ARCONTROLLER_FEATURE_ARDrone3_MediaStreamingStateVideoStreamModeChangedCallback
                0x00000000000de3f0      0x56d /home/jose/catkin_ws/build/parrot_arsdk/arsdk/src/ARSDKBuildUtils/out/arsdk-native/build/libARController/obj/gen/Sources/ARCONTROLLER_Feature.c.o
                0x00000000000de3f0                ARCONTROLLER_FEATURE_ARDrone3_MediaStreamingStateVideoStreamModeChangedCallback
 *fill*         0x00000000000de95d        0x3 
 .text.ARCONTROLLER_ARDrone3_NewCmdElementGPSSettingsStateHomeChanged
                0x00000000000de960      0xf2c /home/jose/catkin_ws/build/parrot_arsdk/arsdk/src/ARSDKBuildUtils/out/arsdk-native/build/libARController/obj/gen/Sources/ARCONTROLLER_Feature.c.o
                0x00000000000de960                ARCONTROLLER_ARDrone3_NewCmdElementGPSSettingsStateHomeChanged
 *fill*         0x00000000000df88c        0x4 
 .text.ARCONTROLLER_FEATURE_ARDrone3_GPSSettingsStateHomeChangedCallback
                0x00000000000df890      0x5bd /home/jose/catkin_ws/build/parrot_arsdk/arsdk/src/ARSDKBuildUtils/out/arsdk-native/build/libARController/obj/gen/Sources/ARCONTROLLER_Feature.c.o
                0x00000000000df890                ARCONTROLLER_FEATURE_ARDrone3_GPSSettingsStateHomeChangedCallback
 *fill*         0x00000000000dfe4d        0x3 
 .text.ARCONTROLLER_ARDrone3_NewCmdElementGPSSettingsStateResetHomeChanged
                0x00000000000dfe50      0xf2c /home/jose/catkin_ws/build/parrot_arsdk/arsdk/src/ARSDKBuildUtils/out/arsdk-native/build/libARController/obj/gen/Sources/ARCONTROLLER_Feature.c.o
                0x00000000000dfe50                ARCONTROLLER_ARDrone3_NewCmdElementGPSSettingsStateResetHomeChanged
 *fill*         0x00000000000e0d7c        0x4 
 .text.ARCONTROLLER_FEATURE_ARDrone3_GPSSettingsStateResetHomeChangedCallback
                0x00000000000e0d80      0x5bd /home/jose/catkin_ws/build/parrot_arsdk/arsdk/src/ARSDKBuildUtils/out/arsdk-native/build/libARController/obj/gen/Sources/ARCONTROLLER_Feature.c.o
                0x00000000000e0d80                ARCONTROLLER_FEATURE_ARDrone3_GPSSettingsStateResetHomeChangedCallback
 *fill*         0x00000000000e133d        0x3 
 .text.ARCONTROLLER_ARDrone3_NewCmdElementGPSSettingsStateGPSFixStateChanged
                0x00000000000e1340      0x570 /home/jose/catkin_ws/build/parrot_arsdk/arsdk/src/ARSDKBuildUtils/out/arsdk-native/build/libARController/obj/gen/Sources/ARCONTROLLER_Feature.c.o
                0x00000000000e1340                ARCONTROLLER_ARDrone3_NewCmdElementGPSSettingsStateGPSFixStateChanged
 .text.ARCONTROLLER_FEATURE_ARDrone3_GPSSettingsStateGPSFixStateChangedCallback
                0x00000000000e18b0      0x56d /home/jose/catkin_ws/build/parrot_arsdk/arsdk/src/ARSDKBuildUtils/out/arsdk-native/build/libARController/obj/gen/Sources/ARCONTROLLER_Feature.c.o
                0x00000000000e18b0                ARCONTROLLER_FEATURE_ARDrone3_GPSSettingsStateGPSFixStateChangedCallback
 *fill*         0x00000000000e1e1d        0x3 
 .text.ARCONTROLLER_ARDrone3_NewCmdElementGPSSettingsStateGPSUpdateStateChanged
                0x00000000000e1e20      0x570 /home/jose/catkin_ws/build/parrot_arsdk/arsdk/src/ARSDKBuildUtils/out/arsdk-native/build/libARController/obj/gen/Sources/ARCONTROLLER_Feature.c.o
                0x00000000000e1e20                ARCONTROLLER_ARDrone3_NewCmdElementGPSSettingsStateGPSUpdateStateChanged
 .text.ARCONTROLLER_FEATURE_ARDrone3_GPSSettingsStateGPSUpdateStateChangedCallback
                0x00000000000e2390      0x56d /home/jose/catkin_ws/build/parrot_arsdk/arsdk/src/ARSDKBuildUtils/out/arsdk-native/build/libARController/obj/gen/Sources/ARCONTROLLER_Feature.c.o
                0x00000000000e2390                ARCONTROLLER_FEATURE_ARDrone3_GPSSettingsStateGPSUpdateStateChangedCallback
 *fill*         0x00000000000e28fd        0x3 
 .text.ARCONTROLLER_ARDrone3_NewCmdElementGPSSettingsStateHomeTypeChanged
                0x00000000000e2900      0x570 /home/jose/catkin_ws/build/parrot_arsdk/arsdk/src/ARSDKBuildUtils/out/arsdk-native/build/libARController/obj/gen/Sources/ARCONTROLLER_Feature.c.o
                0x00000000000e2900                ARCONTROLLER_ARDrone3_NewCmdElementGPSSettingsStateHomeTypeChanged
 .text.ARCONTROLLER_FEATURE_ARDrone3_GPSSettingsStateHomeTypeChangedCallback
                0x00000000000e2e70      0x56d /home/jose/catkin_ws/build/parrot_arsdk/arsdk/src/ARSDKBuildUtils/out/arsdk-native/build/libARController/obj/gen/Sources/ARCONTROLLER_Feature.c.o
                0x00000000000e2e70                ARCONTROLLER_FEATURE_ARDrone3_GPSSettingsStateHomeTypeChangedCallback
 *fill*         0x00000000000e33dd        0x3 
 .text.ARCONTROLLER_ARDrone3_NewCmdElementGPSSettingsStateReturnHomeDelayChanged
                0x00000000000e33e0      0x570 /home/jose/catkin_ws/build/parrot_arsdk/arsdk/src/ARSDKBuildUtils/out/arsdk-native/build/libARController/obj/gen/Sources/ARCONTROLLER_Feature.c.o
                0x00000000000e33e0                ARCONTROLLER_ARDrone3_NewCmdElementGPSSettingsStateReturnHomeDelayChanged
 .text.ARCONTROLLER_FEATURE_ARDrone3_GPSSettingsStateReturnHomeDelayChangedCallback
                0x00000000000e3950      0x56d /home/jose/catkin_ws/build/parrot_arsdk/arsdk/src/ARSDKBuildUtils/out/arsdk-native/build/libARController/obj/gen/Sources/ARCONTROLLER_Feature.c.o
                0x00000000000e3950                ARCONTROLLER_FEATURE_ARDrone3_GPSSettingsStateReturnHomeDelayChangedCallback
 *fill*         0x00000000000e3ebd        0x3 
 .text.ARCONTROLLER_ARDrone3_NewCmdElementGPSSettingsStateGeofenceCenterChanged
                0x00000000000e3ec0      0x9dc /home/jose/catkin_ws/build/parrot_arsdk/arsdk/src/ARSDKBuildUtils/out/arsdk-native/build/libARController/obj/gen/Sources/ARCONTROLLER_Feature.c.o
                0x00000000000e3ec0                ARCONTROLLER_ARDrone3_NewCmdElementGPSSettingsStateGeofenceCenterChanged
 *fill*         0x00000000000e489c        0x4 
 .text.ARCONTROLLER_FEATURE_ARDrone3_GPSSettingsStateGeofenceCenterChangedCallback
                0x00000000000e48a0      0x595 /home/jose/catkin_ws/build/parrot_arsdk/arsdk/src/ARSDKBuildUtils/out/arsdk-native/build/libARController/obj/gen/Sources/ARCONTROLLER_Feature.c.o
                0x00000000000e48a0                ARCONTROLLER_FEATURE_ARDrone3_GPSSettingsStateGeofenceCenterChangedCallback
 *fill*         0x00000000000e4e35        0xb 
 .text.ARCONTROLLER_ARDrone3_NewCmdElementCameraStateOrientation
                0x00000000000e4e40      0x9cc /home/jose/catkin_ws/build/parrot_arsdk/arsdk/src/ARSDKBuildUtils/out/arsdk-native/build/libARController/obj/gen/Sources/ARCONTROLLER_Feature.c.o
                0x00000000000e4e40                ARCONTROLLER_ARDrone3_NewCmdElementCameraStateOrientation
 *fill*         0x00000000000e580c        0x4 
 .text.ARCONTROLLER_FEATURE_ARDrone3_CameraStateOrientationCallback
                0x00000000000e5810      0x56d /home/jose/catkin_ws/build/parrot_arsdk/arsdk/src/ARSDKBuildUtils/out/arsdk-native/build/libARController/obj/gen/Sources/ARCONTROLLER_Feature.c.o
                0x00000000000e5810                ARCONTROLLER_FEATURE_ARDrone3_CameraStateOrientationCallback
 *fill*         0x00000000000e5d7d        0x3 
 .text.ARCONTROLLER_ARDrone3_NewCmdElementCameraStateDefaultCameraOrientation
                0x00000000000e5d80      0x9cc /home/jose/catkin_ws/build/parrot_arsdk/arsdk/src/ARSDKBuildUtils/out/arsdk-native/build/libARController/obj/gen/Sources/ARCONTROLLER_Feature.c.o
                0x00000000000e5d80                ARCONTROLLER_ARDrone3_NewCmdElementCameraStateDefaultCameraOrientation
 *fill*         0x00000000000e674c        0x4 
 .text.ARCONTROLLER_FEATURE_ARDrone3_CameraStateDefaultCameraOrientationCallback
                0x00000000000e6750      0x56d /home/jose/catkin_ws/build/parrot_arsdk/arsdk/src/ARSDKBuildUtils/out/arsdk-native/build/libARController/obj/gen/Sources/ARCONTROLLER_Feature.c.o
                0x00000000000e6750                ARCONTROLLER_FEATURE_ARDrone3_CameraStateDefaultCameraOrientationCallback
 *fill*         0x00000000000e6cbd        0x3 
 .text.ARCONTROLLER_ARDrone3_NewCmdElementCameraStateOrientationV2
                0x00000000000e6cc0      0x9cc /home/jose/catkin_ws/build/parrot_arsdk/arsdk/src/ARSDKBuildUtils/out/arsdk-native/build/libARController/obj/gen/Sources/ARCONTROLLER_Feature.c.o
                0x00000000000e6cc0                ARCONTROLLER_ARDrone3_NewCmdElementCameraStateOrientationV2
 *fill*         0x00000000000e768c        0x4 
 .text.ARCONTROLLER_FEATURE_ARDrone3_CameraStateOrientationV2Callback
                0x00000000000e7690      0x5ad /home/jose/catkin_ws/build/parrot_arsdk/arsdk/src/ARSDKBuildUtils/out/arsdk-native/build/libARController/obj/gen/Sources/ARCONTROLLER_Feature.c.o
                0x00000000000e7690                ARCONTROLLER_FEATURE_ARDrone3_CameraStateOrientationV2Callback
 *fill*         0x00000000000e7c3d        0x3 
 .text.ARCONTROLLER_ARDrone3_NewCmdElementCameraStateDefaultCameraOrientationV2
                0x00000000000e7c40      0x9cc /home/jose/catkin_ws/build/parrot_arsdk/arsdk/src/ARSDKBuildUtils/out/arsdk-native/build/libARController/obj/gen/Sources/ARCONTROLLER_Feature.c.o
                0x00000000000e7c40                ARCONTROLLER_ARDrone3_NewCmdElementCameraStateDefaultCameraOrientationV2
 *fill*         0x00000000000e860c        0x4 
 .text.ARCONTROLLER_FEATURE_ARDrone3_CameraStateDefaultCameraOrientationV2Callback
                0x00000000000e8610      0x5ad /home/jose/catkin_ws/build/parrot_arsdk/arsdk/src/ARSDKBuildUtils/out/arsdk-native/build/libARController/obj/gen/Sources/ARCONTROLLER_Feature.c.o
                0x00000000000e8610                ARCONTROLLER_FEATURE_ARDrone3_CameraStateDefaultCameraOrientationV2Callback
 *fill*         0x00000000000e8bbd        0x3 
 .text.ARCONTROLLER_ARDrone3_NewCmdElementCameraStateVelocityRange
                0x00000000000e8bc0      0x9cc /home/jose/catkin_ws/build/parrot_arsdk/arsdk/src/ARSDKBuildUtils/out/arsdk-native/build/libARController/obj/gen/Sources/ARCONTROLLER_Feature.c.o
                0x00000000000e8bc0                ARCONTROLLER_ARDrone3_NewCmdElementCameraStateVelocityRange
 *fill*         0x00000000000e958c        0x4 
 .text.ARCONTROLLER_FEATURE_ARDrone3_CameraStateVelocityRangeCallback
                0x00000000000e9590      0x5ad /home/jose/catkin_ws/build/parrot_arsdk/arsdk/src/ARSDKBuildUtils/out/arsdk-native/build/libARController/obj/gen/Sources/ARCONTROLLER_Feature.c.o
                0x00000000000e9590                ARCONTROLLER_FEATURE_ARDrone3_CameraStateVelocityRangeCallback
 *fill*         0x00000000000e9b3d        0x3 
 .text.ARCONTROLLER_ARDrone3_NewCmdElementAntiflickeringStateElectricFrequencyChanged
                0x00000000000e9b40      0x570 /home/jose/catkin_ws/build/parrot_arsdk/arsdk/src/ARSDKBuildUtils/out/arsdk-native/build/libARController/obj/gen/Sources/ARCONTROLLER_Feature.c.o
                0x00000000000e9b40                ARCONTROLLER_ARDrone3_NewCmdElementAntiflickeringStateElectricFrequencyChanged
 .text.ARCONTROLLER_FEATURE_ARDrone3_AntiflickeringStateElectricFrequencyChangedCallback
                0x00000000000ea0b0      0x56d /home/jose/catkin_ws/build/parrot_arsdk/arsdk/src/ARSDKBuildUtils/out/arsdk-native/build/libARController/obj/gen/Sources/ARCONTROLLER_Feature.c.o
                0x00000000000ea0b0                ARCONTROLLER_FEATURE_ARDrone3_AntiflickeringStateElectricFrequencyChangedCallback
 *fill*         0x00000000000ea61d        0x3 
 .text.ARCONTROLLER_ARDrone3_NewCmdElementAntiflickeringStateModeChanged
                0x00000000000ea620      0x570 /home/jose/catkin_ws/build/parrot_arsdk/arsdk/src/ARSDKBuildUtils/out/arsdk-native/build/libARController/obj/gen/Sources/ARCONTROLLER_Feature.c.o
                0x00000000000ea620                ARCONTROLLER_ARDrone3_NewCmdElementAntiflickeringStateModeChanged
 .text.ARCONTROLLER_FEATURE_ARDrone3_AntiflickeringStateModeChangedCallback
                0x00000000000eab90      0x56d /home/jose/catkin_ws/build/parrot_arsdk/arsdk/src/ARSDKBuildUtils/out/arsdk-native/build/libARController/obj/gen/Sources/ARCONTROLLER_Feature.c.o
                0x00000000000eab90                ARCONTROLLER_FEATURE_ARDrone3_AntiflickeringStateModeChangedCallback
 *fill*         0x00000000000eb0fd        0x3 
 .text.ARCONTROLLER_ARDrone3_NewCmdElementGPSStateNumberOfSatelliteChanged
                0x00000000000eb100      0x570 /home/jose/catkin_ws/build/parrot_arsdk/arsdk/src/ARSDKBuildUtils/out/arsdk-native/build/libARController/obj/gen/Sources/ARCONTROLLER_Feature.c.o
                0x00000000000eb100                ARCONTROLLER_ARDrone3_NewCmdElementGPSStateNumberOfSatelliteChanged
 .text.ARCONTROLLER_FEATURE_ARDrone3_GPSStateNumberOfSatelliteChangedCallback
                0x00000000000eb670      0x56d /home/jose/catkin_ws/build/parrot_arsdk/arsdk/src/ARSDKBuildUtils/out/arsdk-native/build/libARController/obj/gen/Sources/ARCONTROLLER_Feature.c.o
                0x00000000000eb670                ARCONTROLLER_FEATURE_ARDrone3_GPSStateNumberOfSatelliteChangedCallback
 *fill*         0x00000000000ebbdd        0x3 
 .text.ARCONTROLLER_ARDrone3_NewCmdElementGPSStateHomeTypeAvailabilityChanged
                0x00000000000ebbe0      0xbf0 /home/jose/catkin_ws/build/parrot_arsdk/arsdk/src/ARSDKBuildUtils/out/arsdk-native/build/libARController/obj/gen/Sources/ARCONTROLLER_Feature.c.o
                0x00000000000ebbe0                ARCONTROLLER_ARDrone3_NewCmdElementGPSStateHomeTypeAvailabilityChanged
 .text.ARCONTROLLER_FEATURE_ARDrone3_GPSStateHomeTypeAvailabilityChangedCallback
                0x00000000000ec7d0      0x56d /home/jose/catkin_ws/build/parrot_arsdk/arsdk/src/ARSDKBuildUtils/out/arsdk-native/build/libARController/obj/gen/Sources/ARCONTROLLER_Feature.c.o
                0x00000000000ec7d0                ARCONTROLLER_FEATURE_ARDrone3_GPSStateHomeTypeAvailabilityChangedCallback
 *fill*         0x00000000000ecd3d        0x3 
 .text.ARCONTROLLER_ARDrone3_NewCmdElementGPSStateHomeTypeChosenChanged
                0x00000000000ecd40      0x570 /home/jose/catkin_ws/build/parrot_arsdk/arsdk/src/ARSDKBuildUtils/out/arsdk-native/build/libARController/obj/gen/Sources/ARCONTROLLER_Feature.c.o
                0x00000000000ecd40                ARCONTROLLER_ARDrone3_NewCmdElementGPSStateHomeTypeChosenChanged
 .text.ARCONTROLLER_FEATURE_ARDrone3_GPSStateHomeTypeChosenChangedCallback
                0x00000000000ed2b0      0x56d /home/jose/catkin_ws/build/parrot_arsdk/arsdk/src/ARSDKBuildUtils/out/arsdk-native/build/libARController/obj/gen/Sources/ARCONTROLLER_Feature.c.o
                0x00000000000ed2b0                ARCONTROLLER_FEATURE_ARDrone3_GPSStateHomeTypeChosenChangedCallback
 *fill*         0x00000000000ed81d        0x3 
 .text.ARCONTROLLER_ARDrone3_NewCmdElementPROStateFeatures
                0x00000000000ed820      0x570 /home/jose/catkin_ws/build/parrot_arsdk/arsdk/src/ARSDKBuildUtils/out/arsdk-native/build/libARController/obj/gen/Sources/ARCONTROLLER_Feature.c.o
                0x00000000000ed820                ARCONTROLLER_ARDrone3_NewCmdElementPROStateFeatures
 .text.ARCONTROLLER_FEATURE_ARDrone3_PROStateFeaturesCallback
                0x00000000000edd90      0x56d /home/jose/catkin_ws/build/parrot_arsdk/arsdk/src/ARSDKBuildUtils/out/arsdk-native/build/libARController/obj/gen/Sources/ARCONTROLLER_Feature.c.o
                0x00000000000edd90                ARCONTROLLER_FEATURE_ARDrone3_PROStateFeaturesCallback
 *fill*         0x00000000000ee2fd        0x3 
 .text.ARCONTROLLER_ARDrone3_NewCmdElementAccessoryStateConnectedAccessories
                0x00000000000ee300     0x1648 /home/jose/catkin_ws/build/parrot_arsdk/arsdk/src/ARSDKBuildUtils/out/arsdk-native/build/libARController/obj/gen/Sources/ARCONTROLLER_Feature.c.o
                0x00000000000ee300                ARCONTROLLER_ARDrone3_NewCmdElementAccessoryStateConnectedAccessories
 *fill*         0x00000000000ef948        0x8 
 .text.ARCONTROLLER_FEATURE_ARDrone3_AccessoryStateConnectedAccessoriesCallback
                0x00000000000ef950      0xd6f /home/jose/catkin_ws/build/parrot_arsdk/arsdk/src/ARSDKBuildUtils/out/arsdk-native/build/libARController/obj/gen/Sources/ARCONTROLLER_Feature.c.o
                0x00000000000ef950                ARCONTROLLER_FEATURE_ARDrone3_AccessoryStateConnectedAccessoriesCallback
 *fill*         0x00000000000f06bf        0x1 
 .text.ARCONTROLLER_ARDrone3_NewCmdElementAccessoryStateBattery
                0x00000000000f06c0      0xbf0 /home/jose/catkin_ws/build/parrot_arsdk/arsdk/src/ARSDKBuildUtils/out/arsdk-native/build/libARController/obj/gen/Sources/ARCONTROLLER_Feature.c.o
                0x00000000000f06c0                ARCONTROLLER_ARDrone3_NewCmdElementAccessoryStateBattery
 .text.ARCONTROLLER_FEATURE_ARDrone3_AccessoryStateBatteryCallback
                0x00000000000f12b0      0xd78 /home/jose/catkin_ws/build/parrot_arsdk/arsdk/src/ARSDKBuildUtils/out/arsdk-native/build/libARController/obj/gen/Sources/ARCONTROLLER_Feature.c.o
                0x00000000000f12b0                ARCONTROLLER_FEATURE_ARDrone3_AccessoryStateBatteryCallback
 *fill*         0x00000000000f2028        0x8 
 .text.ARCONTROLLER_ARDrone3_NewCmdElementSoundStateAlertSound
                0x00000000000f2030      0x570 /home/jose/catkin_ws/build/parrot_arsdk/arsdk/src/ARSDKBuildUtils/out/arsdk-native/build/libARController/obj/gen/Sources/ARCONTROLLER_Feature.c.o
                0x00000000000f2030                ARCONTROLLER_ARDrone3_NewCmdElementSoundStateAlertSound
 .text.ARCONTROLLER_FEATURE_ARDrone3_SoundStateAlertSoundCallback
                0x00000000000f25a0      0x56d /home/jose/catkin_ws/build/parrot_arsdk/arsdk/src/ARSDKBuildUtils/out/arsdk-native/build/libARController/obj/gen/Sources/ARCONTROLLER_Feature.c.o
                0x00000000000f25a0                ARCONTROLLER_FEATURE_ARDrone3_SoundStateAlertSoundCallback
 *fill*         0x00000000000f2b0d        0x3 
 .text.ARCONTROLLER_FEATURE_ARDrone3_SetNetworkController
                0x00000000000f2b10       0x26 /home/jose/catkin_ws/build/parrot_arsdk/arsdk/src/ARSDKBuildUtils/out/arsdk-native/build/libARController/obj/gen/Sources/ARCONTROLLER_Feature.c.o
                0x00000000000f2b10                ARCONTROLLER_FEATURE_ARDrone3_SetNetworkController
 *fill*         0x00000000000f2b36        0xa 
 .text.ARCONTROLLER_ARDrone3_GetCommandElements
                0x00000000000f2b40      0x1a3 /home/jose/catkin_ws/build/parrot_arsdk/arsdk/src/ARSDKBuildUtils/out/arsdk-native/build/libARController/obj/gen/Sources/ARCONTROLLER_Feature.c.o
                0x00000000000f2b40                ARCONTROLLER_ARDrone3_GetCommandElements
 *fill*         0x00000000000f2ce3        0xd 
 .text.ARCONTROLLER_FEATURE_Common_Delete
                0x00000000000f2cf0       0x91 /home/jose/catkin_ws/build/parrot_arsdk/arsdk/src/ARSDKBuildUtils/out/arsdk-native/build/libARController/obj/gen/Sources/ARCONTROLLER_Feature.c.o
                0x00000000000f2cf0                ARCONTROLLER_FEATURE_Common_Delete
 *fill*         0x00000000000f2d81        0xf 
 .text.ARCONTROLLER_FEATURE_Common_New
                0x00000000000f2d90      0x21b /home/jose/catkin_ws/build/parrot_arsdk/arsdk/src/ARSDKBuildUtils/out/arsdk-native/build/libARController/obj/gen/Sources/ARCONTROLLER_Feature.c.o
                0x00000000000f2d90                ARCONTROLLER_FEATURE_Common_New
 *fill*         0x00000000000f2fab        0x5 
 .text.ARCONTROLLER_FEATURE_Common_GetDictionary
                0x00000000000f2fb0       0x3f /home/jose/catkin_ws/build/parrot_arsdk/arsdk/src/ARSDKBuildUtils/out/arsdk-native/build/libARController/obj/gen/Sources/ARCONTROLLER_Feature.c.o
                0x00000000000f2fb0                ARCONTROLLER_FEATURE_Common_GetDictionary
 *fill*         0x00000000000f2fef        0x1 
 .text.ARCONTROLLER_FEATURE_Common_AddCallback
                0x00000000000f2ff0       0x26 /home/jose/catkin_ws/build/parrot_arsdk/arsdk/src/ARSDKBuildUtils/out/arsdk-native/build/libARController/obj/gen/Sources/ARCONTROLLER_Feature.c.o
                0x00000000000f2ff0                ARCONTROLLER_FEATURE_Common_AddCallback
 *fill*         0x00000000000f3016        0xa 
 .text.ARCONTROLLER_FEATURE_Common_RemoveCallback
                0x00000000000f3020       0x26 /home/jose/catkin_ws/build/parrot_arsdk/arsdk/src/ARSDKBuildUtils/out/arsdk-native/build/libARController/obj/gen/Sources/ARCONTROLLER_Feature.c.o
                0x00000000000f3020                ARCONTROLLER_FEATURE_Common_RemoveCallback
 *fill*         0x00000000000f3046        0xa 
 .text.ARCONTROLLER_FEATURE_Common_RegisterARCommands
                0x00000000000f3050      0x69d /home/jose/catkin_ws/build/parrot_arsdk/arsdk/src/ARSDKBuildUtils/out/arsdk-native/build/libARController/obj/gen/Sources/ARCONTROLLER_Feature.c.o
                0x00000000000f3050                ARCONTROLLER_FEATURE_Common_RegisterARCommands
 *fill*         0x00000000000f36ed        0x3 
 .text.ARCONTROLLER_FEATURE_Common_UnregisterARCommands
                0x00000000000f36f0      0x50d /home/jose/catkin_ws/build/parrot_arsdk/arsdk/src/ARSDKBuildUtils/out/arsdk-native/build/libARController/obj/gen/Sources/ARCONTROLLER_Feature.c.o
                0x00000000000f36f0                ARCONTROLLER_FEATURE_Common_UnregisterARCommands
 *fill*         0x00000000000f3bfd        0x3 
 .text.ARCONTROLLER_Common_NewCmdElementNetworkEventDisconnection
                0x00000000000f3c00      0x570 /home/jose/catkin_ws/build/parrot_arsdk/arsdk/src/ARSDKBuildUtils/out/arsdk-native/build/libARController/obj/gen/Sources/ARCONTROLLER_Feature.c.o
                0x00000000000f3c00                ARCONTROLLER_Common_NewCmdElementNetworkEventDisconnection
 .text.ARCONTROLLER_FEATURE_Common_NetworkEventDisconnectionCallback
                0x00000000000f4170      0x56d /home/jose/catkin_ws/build/parrot_arsdk/arsdk/src/ARSDKBuildUtils/out/arsdk-native/build/libARController/obj/gen/Sources/ARCONTROLLER_Feature.c.o
                0x00000000000f4170                ARCONTROLLER_FEATURE_Common_NetworkEventDisconnectionCallback
 *fill*         0x00000000000f46dd        0x3 
 .text.ARCONTROLLER_Common_NewCmdElementSettingsStateAllSettingsChanged
                0x00000000000f46e0       0xb3 /home/jose/catkin_ws/build/parrot_arsdk/arsdk/src/ARSDKBuildUtils/out/arsdk-native/build/libARController/obj/gen/Sources/ARCONTROLLER_Feature.c.o
                0x00000000000f46e0                ARCONTROLLER_Common_NewCmdElementSettingsStateAllSettingsChanged
 *fill*         0x00000000000f4793        0xd 
 .text.ARCONTROLLER_FEATURE_Common_SettingsStateAllSettingsChangedCallback
                0x00000000000f47a0      0x55d /home/jose/catkin_ws/build/parrot_arsdk/arsdk/src/ARSDKBuildUtils/out/arsdk-native/build/libARController/obj/gen/Sources/ARCONTROLLER_Feature.c.o
                0x00000000000f47a0                ARCONTROLLER_FEATURE_Common_SettingsStateAllSettingsChangedCallback
 *fill*         0x00000000000f4cfd        0x3 
 .text.ARCONTROLLER_Common_NewCmdElementSettingsStateResetChanged
                0x00000000000f4d00        0x9 /home/jose/catkin_ws/build/parrot_arsdk/arsdk/src/ARSDKBuildUtils/out/arsdk-native/build/libARController/obj/gen/Sources/ARCONTROLLER_Feature.c.o
                0x00000000000f4d00                ARCONTROLLER_Common_NewCmdElementSettingsStateResetChanged
 *fill*         0x00000000000f4d09        0x7 
 .text.ARCONTROLLER_FEATURE_Common_SettingsStateResetChangedCallback
                0x00000000000f4d10      0x55d /home/jose/catkin_ws/build/parrot_arsdk/arsdk/src/ARSDKBuildUtils/out/arsdk-native/build/libARController/obj/gen/Sources/ARCONTROLLER_Feature.c.o
                0x00000000000f4d10                ARCONTROLLER_FEATURE_Common_SettingsStateResetChangedCallback
 *fill*         0x00000000000f526d        0x3 
 .text.ARCONTROLLER_Common_NewCmdElementSettingsStateProductNameChanged
                0x00000000000f5270      0x5a2 /home/jose/catkin_ws/build/parrot_arsdk/arsdk/src/ARSDKBuildUtils/out/arsdk-native/build/libARController/obj/gen/Sources/ARCONTROLLER_Feature.c.o
                0x00000000000f5270                ARCONTROLLER_Common_NewCmdElementSettingsStateProductNameChanged
 *fill*         0x00000000000f5812        0xe 
 .text.ARCONTROLLER_FEATURE_Common_SettingsStateProductNameChangedCallback
                0x00000000000f5820      0x56d /home/jose/catkin_ws/build/parrot_arsdk/arsdk/src/ARSDKBuildUtils/out/arsdk-native/build/libARController/obj/gen/Sources/ARCONTROLLER_Feature.c.o
                0x00000000000f5820                ARCONTROLLER_FEATURE_Common_SettingsStateProductNameChangedCallback
 *fill*         0x00000000000f5d8d        0x3 
 .text.ARCONTROLLER_Common_NewCmdElementSettingsStateProductVersionChanged
                0x00000000000f5d90      0xa7a /home/jose/catkin_ws/build/parrot_arsdk/arsdk/src/ARSDKBuildUtils/out/arsdk-native/build/libARController/obj/gen/Sources/ARCONTROLLER_Feature.c.o
                0x00000000000f5d90                ARCONTROLLER_Common_NewCmdElementSettingsStateProductVersionChanged
 *fill*         0x00000000000f680a        0x6 
 .text.ARCONTROLLER_FEATURE_Common_SettingsStateProductVersionChangedCallback
                0x00000000000f6810      0x56d /home/jose/catkin_ws/build/parrot_arsdk/arsdk/src/ARSDKBuildUtils/out/arsdk-native/build/libARController/obj/gen/Sources/ARCONTROLLER_Feature.c.o
                0x00000000000f6810                ARCONTROLLER_FEATURE_Common_SettingsStateProductVersionChangedCallback
 *fill*         0x00000000000f6d7d        0x3 
 .text.ARCONTROLLER_Common_NewCmdElementSettingsStateProductSerialHighChanged
                0x00000000000f6d80      0x5a2 /home/jose/catkin_ws/build/parrot_arsdk/arsdk/src/ARSDKBuildUtils/out/arsdk-native/build/libARController/obj/gen/Sources/ARCONTROLLER_Feature.c.o
                0x00000000000f6d80                ARCONTROLLER_Common_NewCmdElementSettingsStateProductSerialHighChanged
 *fill*         0x00000000000f7322        0xe 
 .text.ARCONTROLLER_FEATURE_Common_SettingsStateProductSerialHighChangedCallback
                0x00000000000f7330      0x56d /home/jose/catkin_ws/build/parrot_arsdk/arsdk/src/ARSDKBuildUtils/out/arsdk-native/build/libARController/obj/gen/Sources/ARCONTROLLER_Feature.c.o
                0x00000000000f7330                ARCONTROLLER_FEATURE_Common_SettingsStateProductSerialHighChangedCallback
 *fill*         0x00000000000f789d        0x3 
 .text.ARCONTROLLER_Common_NewCmdElementSettingsStateProductSerialLowChanged
                0x00000000000f78a0      0x5a2 /home/jose/catkin_ws/build/parrot_arsdk/arsdk/src/ARSDKBuildUtils/out/arsdk-native/build/libARController/obj/gen/Sources/ARCONTROLLER_Feature.c.o
                0x00000000000f78a0                ARCONTROLLER_Common_NewCmdElementSettingsStateProductSerialLowChanged
 *fill*         0x00000000000f7e42        0xe 
 .text.ARCONTROLLER_FEATURE_Common_SettingsStateProductSerialLowChangedCallback
                0x00000000000f7e50      0x56d /home/jose/catkin_ws/build/parrot_arsdk/arsdk/src/ARSDKBuildUtils/out/arsdk-native/build/libARController/obj/gen/Sources/ARCONTROLLER_Feature.c.o
                0x00000000000f7e50                ARCONTROLLER_FEATURE_Common_SettingsStateProductSerialLowChangedCallback
 *fill*         0x00000000000f83bd        0x3 
 .text.ARCONTROLLER_Common_NewCmdElementSettingsStateCountryChanged
                0x00000000000f83c0      0x5a2 /home/jose/catkin_ws/build/parrot_arsdk/arsdk/src/ARSDKBuildUtils/out/arsdk-native/build/libARController/obj/gen/Sources/ARCONTROLLER_Feature.c.o
                0x00000000000f83c0                ARCONTROLLER_Common_NewCmdElementSettingsStateCountryChanged
 *fill*         0x00000000000f8962        0xe 
 .text.ARCONTROLLER_FEATURE_Common_SettingsStateCountryChangedCallback
                0x00000000000f8970      0x56d /home/jose/catkin_ws/build/parrot_arsdk/arsdk/src/ARSDKBuildUtils/out/arsdk-native/build/libARController/obj/gen/Sources/ARCONTROLLER_Feature.c.o
                0x00000000000f8970                ARCONTROLLER_FEATURE_Common_SettingsStateCountryChangedCallback
 *fill*         0x00000000000f8edd        0x3 
 .text.ARCONTROLLER_Common_NewCmdElementSettingsStateAutoCountryChanged
                0x00000000000f8ee0      0x570 /home/jose/catkin_ws/build/parrot_arsdk/arsdk/src/ARSDKBuildUtils/out/arsdk-native/build/libARController/obj/gen/Sources/ARCONTROLLER_Feature.c.o
                0x00000000000f8ee0                ARCONTROLLER_Common_NewCmdElementSettingsStateAutoCountryChanged
 .text.ARCONTROLLER_FEATURE_Common_SettingsStateAutoCountryChangedCallback
                0x00000000000f9450      0x56d /home/jose/catkin_ws/build/parrot_arsdk/arsdk/src/ARSDKBuildUtils/out/arsdk-native/build/libARController/obj/gen/Sources/ARCONTROLLER_Feature.c.o
                0x00000000000f9450                ARCONTROLLER_FEATURE_Common_SettingsStateAutoCountryChangedCallback
 *fill*         0x00000000000f99bd        0x3 
 .text.ARCONTROLLER_Common_NewCmdElementCommonStateAllStatesChanged
                0x00000000000f99c0        0x9 /home/jose/catkin_ws/build/parrot_arsdk/arsdk/src/ARSDKBuildUtils/out/arsdk-native/build/libARController/obj/gen/Sources/ARCONTROLLER_Feature.c.o
                0x00000000000f99c0                ARCONTROLLER_Common_NewCmdElementCommonStateAllStatesChanged
 *fill*         0x00000000000f99c9        0x7 
 .text.ARCONTROLLER_FEATURE_Common_CommonStateAllStatesChangedCallback
                0x00000000000f99d0      0x55d /home/jose/catkin_ws/build/parrot_arsdk/arsdk/src/ARSDKBuildUtils/out/arsdk-native/build/libARController/obj/gen/Sources/ARCONTROLLER_Feature.c.o
                0x00000000000f99d0                ARCONTROLLER_FEATURE_Common_CommonStateAllStatesChangedCallback
 *fill*         0x00000000000f9f2d        0x3 
 .text.ARCONTROLLER_Common_NewCmdElementCommonStateBatteryStateChanged
                0x00000000000f9f30      0x570 /home/jose/catkin_ws/build/parrot_arsdk/arsdk/src/ARSDKBuildUtils/out/arsdk-native/build/libARController/obj/gen/Sources/ARCONTROLLER_Feature.c.o
                0x00000000000f9f30                ARCONTROLLER_Common_NewCmdElementCommonStateBatteryStateChanged
 .text.ARCONTROLLER_FEATURE_Common_CommonStateBatteryStateChangedCallback
                0x00000000000fa4a0      0x56d /home/jose/catkin_ws/build/parrot_arsdk/arsdk/src/ARSDKBuildUtils/out/arsdk-native/build/libARController/obj/gen/Sources/ARCONTROLLER_Feature.c.o
                0x00000000000fa4a0                ARCONTROLLER_FEATURE_Common_CommonStateBatteryStateChangedCallback
 *fill*         0x00000000000faa0d        0x3 
 .text.ARCONTROLLER_Common_NewCmdElementCommonStateMassStorageStateListChanged
                0x00000000000faa10      0xc52 /home/jose/catkin_ws/build/parrot_arsdk/arsdk/src/ARSDKBuildUtils/out/arsdk-native/build/libARController/obj/gen/Sources/ARCONTROLLER_Feature.c.o
                0x00000000000faa10                ARCONTROLLER_Common_NewCmdElementCommonStateMassStorageStateListChanged
 *fill*         0x00000000000fb662        0xe 
 .text.ARCONTROLLER_FEATURE_Common_CommonStateMassStorageStateListChangedCallback
                0x00000000000fb670      0x56d /home/jose/catkin_ws/build/parrot_arsdk/arsdk/src/ARSDKBuildUtils/out/arsdk-native/build/libARController/obj/gen/Sources/ARCONTROLLER_Feature.c.o
                0x00000000000fb670                ARCONTROLLER_FEATURE_Common_CommonStateMassStorageStateListChangedCallback
 *fill*         0x00000000000fbbdd        0x3 
 .text.ARCONTROLLER_Common_NewCmdElementCommonStateMassStorageInfoStateListChanged
                0x00000000000fbbe0     0x1f7a /home/jose/catkin_ws/build/parrot_arsdk/arsdk/src/ARSDKBuildUtils/out/arsdk-native/build/libARController/obj/gen/Sources/ARCONTROLLER_Feature.c.o
                0x00000000000fbbe0                ARCONTROLLER_Common_NewCmdElementCommonStateMassStorageInfoStateListChanged
 *fill*         0x00000000000fdb5a        0x6 
 .text.ARCONTROLLER_FEATURE_Common_CommonStateMassStorageInfoStateListChangedCallback
                0x00000000000fdb60      0x5a8 /home/jose/catkin_ws/build/parrot_arsdk/arsdk/src/ARSDKBuildUtils/out/arsdk-native/build/libARController/obj/gen/Sources/ARCONTROLLER_Feature.c.o
                0x00000000000fdb60                ARCONTROLLER_FEATURE_Common_CommonStateMassStorageInfoStateListChangedCallback
 *fill*         0x00000000000fe108        0x8 
 .text.ARCONTROLLER_Common_NewCmdElementCommonStateCurrentDateChanged
                0x00000000000fe110      0x5a2 /home/jose/catkin_ws/build/parrot_arsdk/arsdk/src/ARSDKBuildUtils/out/arsdk-native/build/libARController/obj/gen/Sources/ARCONTROLLER_Feature.c.o
                0x00000000000fe110                ARCONTROLLER_Common_NewCmdElementCommonStateCurrentDateChanged
 *fill*         0x00000000000fe6b2        0xe 
 .text.ARCONTROLLER_FEATURE_Common_CommonStateCurrentDateChangedCallback
                0x00000000000fe6c0      0x56d /home/jose/catkin_ws/build/parrot_arsdk/arsdk/src/ARSDKBuildUtils/out/arsdk-native/build/libARController/obj/gen/Sources/ARCONTROLLER_Feature.c.o
                0x00000000000fe6c0                ARCONTROLLER_FEATURE_Common_CommonStateCurrentDateChangedCallback
 *fill*         0x00000000000fec2d        0x3 
 .text.ARCONTROLLER_Common_NewCmdElementCommonStateCurrentTimeChanged
                0x00000000000fec30      0x5a2 /home/jose/catkin_ws/build/parrot_arsdk/arsdk/src/ARSDKBuildUtils/out/arsdk-native/build/libARController/obj/gen/Sources/ARCONTROLLER_Feature.c.o
                0x00000000000fec30                ARCONTROLLER_Common_NewCmdElementCommonStateCurrentTimeChanged
 *fill*         0x00000000000ff1d2        0xe 
 .text.ARCONTROLLER_FEATURE_Common_CommonStateCurrentTimeChangedCallback
                0x00000000000ff1e0      0x56d /home/jose/catkin_ws/build/parrot_arsdk/arsdk/src/ARSDKBuildUtils/out/arsdk-native/build/libARController/obj/gen/Sources/ARCONTROLLER_Feature.c.o
                0x00000000000ff1e0                ARCONTROLLER_FEATURE_Common_CommonStateCurrentTimeChangedCallback
 *fill*         0x00000000000ff74d        0x3 
 .text.ARCONTROLLER_Common_NewCmdElementCommonStateMassStorageInfoRemainingListChanged
                0x00000000000ff750     0x111d /home/jose/catkin_ws/build/parrot_arsdk/arsdk/src/ARSDKBuildUtils/out/arsdk-native/build/libARController/obj/gen/Sources/ARCONTROLLER_Feature.c.o
                0x00000000000ff750                ARCONTROLLER_Common_NewCmdElementCommonStateMassStorageInfoRemainingListChanged
 *fill*         0x000000000010086d        0x3 
 .text.ARCONTROLLER_FEATURE_Common_CommonStateMassStorageInfoRemainingListChangedCallback
                0x0000000000100870      0x585 /home/jose/catkin_ws/build/parrot_arsdk/arsdk/src/ARSDKBuildUtils/out/arsdk-native/build/libARController/obj/gen/Sources/ARCONTROLLER_Feature.c.o
                0x0000000000100870                ARCONTROLLER_FEATURE_Common_CommonStateMassStorageInfoRemainingListChangedCallback
 *fill*         0x0000000000100df5        0xb 
 .text.ARCONTROLLER_Common_NewCmdElementCommonStateWifiSignalChanged
                0x0000000000100e00      0x570 /home/jose/catkin_ws/build/parrot_arsdk/arsdk/src/ARSDKBuildUtils/out/arsdk-native/build/libARController/obj/gen/Sources/ARCONTROLLER_Feature.c.o
                0x0000000000100e00                ARCONTROLLER_Common_NewCmdElementCommonStateWifiSignalChanged
 .text.ARCONTROLLER_FEATURE_Common_CommonStateWifiSignalChangedCallback
                0x0000000000101370      0x56d /home/jose/catkin_ws/build/parrot_arsdk/arsdk/src/ARSDKBuildUtils/out/arsdk-native/build/libARController/obj/gen/Sources/ARCONTROLLER_Feature.c.o
                0x0000000000101370                ARCONTROLLER_FEATURE_Common_CommonStateWifiSignalChangedCallback
 *fill*         0x00000000001018dd        0x3 
 .text.ARCONTROLLER_Common_NewCmdElementCommonStateSensorsStatesListChanged
                0x00000000001018e0      0xbf0 /home/jose/catkin_ws/build/parrot_arsdk/arsdk/src/ARSDKBuildUtils/out/arsdk-native/build/libARController/obj/gen/Sources/ARCONTROLLER_Feature.c.o
                0x00000000001018e0                ARCONTROLLER_Common_NewCmdElementCommonStateSensorsStatesListChanged
 .text.ARCONTROLLER_FEATURE_Common_CommonStateSensorsStatesListChangedCallback
                0x00000000001024d0      0x56d /home/jose/catkin_ws/build/parrot_arsdk/arsdk/src/ARSDKBuildUtils/out/arsdk-native/build/libARController/obj/gen/Sources/ARCONTROLLER_Feature.c.o
                0x00000000001024d0                ARCONTROLLER_FEATURE_Common_CommonStateSensorsStatesListChangedCallback
 *fill*         0x0000000000102a3d        0x3 
 .text.ARCONTROLLER_Common_NewCmdElementCommonStateProductModel
                0x0000000000102a40      0x570 /home/jose/catkin_ws/build/parrot_arsdk/arsdk/src/ARSDKBuildUtils/out/arsdk-native/build/libARController/obj/gen/Sources/ARCONTROLLER_Feature.c.o
                0x0000000000102a40                ARCONTROLLER_Common_NewCmdElementCommonStateProductModel
 .text.ARCONTROLLER_FEATURE_Common_CommonStateProductModelCallback
                0x0000000000102fb0      0x56d /home/jose/catkin_ws/build/parrot_arsdk/arsdk/src/ARSDKBuildUtils/out/arsdk-native/build/libARController/obj/gen/Sources/ARCONTROLLER_Feature.c.o
                0x0000000000102fb0                ARCONTROLLER_FEATURE_Common_CommonStateProductModelCallback
 *fill*         0x000000000010351d        0x3 
 .text.ARCONTROLLER_Common_NewCmdElementCommonStateCountryListKnown
                0x0000000000103520      0xc6c /home/jose/catkin_ws/build/parrot_arsdk/arsdk/src/ARSDKBuildUtils/out/arsdk-native/build/libARController/obj/gen/Sources/ARCONTROLLER_Feature.c.o
                0x0000000000103520                ARCONTROLLER_Common_NewCmdElementCommonStateCountryListKnown
 *fill*         0x000000000010418c        0x4 
 .text.ARCONTROLLER_FEATURE_Common_CommonStateCountryListKnownCallback
                0x0000000000104190      0x575 /home/jose/catkin_ws/build/parrot_arsdk/arsdk/src/ARSDKBuildUtils/out/arsdk-native/build/libARController/obj/gen/Sources/ARCONTROLLER_Feature.c.o
                0x0000000000104190                ARCONTROLLER_FEATURE_Common_CommonStateCountryListKnownCallback
 *fill*         0x0000000000104705        0xb 
 .text.ARCONTROLLER_Common_NewCmdElementCommonStateDeprecatedMassStorageContentChanged
                0x0000000000104710     0x1a99 /home/jose/catkin_ws/build/parrot_arsdk/arsdk/src/ARSDKBuildUtils/out/arsdk-native/build/libARController/obj/gen/Sources/ARCONTROLLER_Feature.c.o
                0x0000000000104710                ARCONTROLLER_Common_NewCmdElementCommonStateDeprecatedMassStorageContentChanged
 *fill*         0x00000000001061a9        0x7 
 .text.ARCONTROLLER_FEATURE_Common_CommonStateDeprecatedMassStorageContentChangedCallback
                0x00000000001061b0      0x59a /home/jose/catkin_ws/build/parrot_arsdk/arsdk/src/ARSDKBuildUtils/out/arsdk-native/build/libARController/obj/gen/Sources/ARCONTROLLER_Feature.c.o
                0x00000000001061b0                ARCONTROLLER_FEATURE_Common_CommonStateDeprecatedMassStorageContentChangedCallback
 *fill*         0x000000000010674a        0x6 
 .text.ARCONTROLLER_Common_NewCmdElementCommonStateMassStorageContent
                0x0000000000106750     0x1f7a /home/jose/catkin_ws/build/parrot_arsdk/arsdk/src/ARSDKBuildUtils/out/arsdk-native/build/libARController/obj/gen/Sources/ARCONTROLLER_Feature.c.o
                0x0000000000106750                ARCONTROLLER_Common_NewCmdElementCommonStateMassStorageContent
 *fill*         0x00000000001086ca        0x6 
 .text.ARCONTROLLER_FEATURE_Common_CommonStateMassStorageContentCallback
                0x00000000001086d0      0x5b0 /home/jose/catkin_ws/build/parrot_arsdk/arsdk/src/ARSDKBuildUtils/out/arsdk-native/build/libARController/obj/gen/Sources/ARCONTROLLER_Feature.c.o
                0x00000000001086d0                ARCONTROLLER_FEATURE_Common_CommonStateMassStorageContentCallback
 .text.ARCONTROLLER_Common_NewCmdElementCommonStateMassStorageContentForCurrentRun
                0x0000000000108c80     0x1653 /home/jose/catkin_ws/build/parrot_arsdk/arsdk/src/ARSDKBuildUtils/out/arsdk-native/build/libARController/obj/gen/Sources/ARCONTROLLER_Feature.c.o
                0x0000000000108c80                ARCONTROLLER_Common_NewCmdElementCommonStateMassStorageContentForCurrentRun
 *fill*         0x000000000010a2d3        0xd 
 .text.ARCONTROLLER_FEATURE_Common_CommonStateMassStorageContentForCurrentRunCallback
                0x000000000010a2e0      0x57d /home/jose/catkin_ws/build/parrot_arsdk/arsdk/src/ARSDKBuildUtils/out/arsdk-native/build/libARController/obj/gen/Sources/ARCONTROLLER_Feature.c.o
                0x000000000010a2e0                ARCONTROLLER_FEATURE_Common_CommonStateMassStorageContentForCurrentRunCallback
 *fill*         0x000000000010a85d        0x3 
 .text.ARCONTROLLER_Common_NewCmdElementCommonStateVideoRecordingTimestamp
                0x000000000010a860      0x9cc /home/jose/catkin_ws/build/parrot_arsdk/arsdk/src/ARSDKBuildUtils/out/arsdk-native/build/libARController/obj/gen/Sources/ARCONTROLLER_Feature.c.o
                0x000000000010a860                ARCONTROLLER_Common_NewCmdElementCommonStateVideoRecordingTimestamp
 *fill*         0x000000000010b22c        0x4 
 .text.ARCONTROLLER_FEATURE_Common_CommonStateVideoRecordingTimestampCallback
                0x000000000010b230      0x56d /home/jose/catkin_ws/build/parrot_arsdk/arsdk/src/ARSDKBuildUtils/out/arsdk-native/build/libARController/obj/gen/Sources/ARCONTROLLER_Feature.c.o
                0x000000000010b230                ARCONTROLLER_FEATURE_Common_CommonStateVideoRecordingTimestampCallback
 *fill*         0x000000000010b79d        0x3 
 .text.ARCONTROLLER_Common_NewCmdElementOverHeatStateOverHeatChanged
                0x000000000010b7a0        0x9 /home/jose/catkin_ws/build/parrot_arsdk/arsdk/src/ARSDKBuildUtils/out/arsdk-native/build/libARController/obj/gen/Sources/ARCONTROLLER_Feature.c.o
                0x000000000010b7a0                ARCONTROLLER_Common_NewCmdElementOverHeatStateOverHeatChanged
 *fill*         0x000000000010b7a9        0x7 
 .text.ARCONTROLLER_FEATURE_Common_OverHeatStateOverHeatChangedCallback
                0x000000000010b7b0      0x55d /home/jose/catkin_ws/build/parrot_arsdk/arsdk/src/ARSDKBuildUtils/out/arsdk-native/build/libARController/obj/gen/Sources/ARCONTROLLER_Feature.c.o
                0x000000000010b7b0                ARCONTROLLER_FEATURE_Common_OverHeatStateOverHeatChangedCallback
 *fill*         0x000000000010bd0d        0x3 
 .text.ARCONTROLLER_Common_NewCmdElementOverHeatStateOverHeatRegulationChanged
                0x000000000010bd10      0x570 /home/jose/catkin_ws/build/parrot_arsdk/arsdk/src/ARSDKBuildUtils/out/arsdk-native/build/libARController/obj/gen/Sources/ARCONTROLLER_Feature.c.o
                0x000000000010bd10                ARCONTROLLER_Common_NewCmdElementOverHeatStateOverHeatRegulationChanged
 .text.ARCONTROLLER_FEATURE_Common_OverHeatStateOverHeatRegulationChangedCallback
                0x000000000010c280      0x56d /home/jose/catkin_ws/build/parrot_arsdk/arsdk/src/ARSDKBuildUtils/out/arsdk-native/build/libARController/obj/gen/Sources/ARCONTROLLER_Feature.c.o
                0x000000000010c280                ARCONTROLLER_FEATURE_Common_OverHeatStateOverHeatRegulationChangedCallback
 *fill*         0x000000000010c7ed        0x3 
 .text.ARCONTROLLER_Common_NewCmdElementWifiSettingsStateOutdoorSettingsChanged
                0x000000000010c7f0      0x570 /home/jose/catkin_ws/build/parrot_arsdk/arsdk/src/ARSDKBuildUtils/out/arsdk-native/build/libARController/obj/gen/Sources/ARCONTROLLER_Feature.c.o
                0x000000000010c7f0                ARCONTROLLER_Common_NewCmdElementWifiSettingsStateOutdoorSettingsChanged
 .text.ARCONTROLLER_FEATURE_Common_WifiSettingsStateOutdoorSettingsChangedCallback
                0x000000000010cd60      0x56d /home/jose/catkin_ws/build/parrot_arsdk/arsdk/src/ARSDKBuildUtils/out/arsdk-native/build/libARController/obj/gen/Sources/ARCONTROLLER_Feature.c.o
                0x000000000010cd60                ARCONTROLLER_FEATURE_Common_WifiSettingsStateOutdoorSettingsChangedCallback
 *fill*         0x000000000010d2cd        0x3 
 .text.ARCONTROLLER_Common_NewCmdElementMavlinkStateMavlinkFilePlayingStateChanged
                0x000000000010d2d0      0xf7b /home/jose/catkin_ws/build/parrot_arsdk/arsdk/src/ARSDKBuildUtils/out/arsdk-native/build/libARController/obj/gen/Sources/ARCONTROLLER_Feature.c.o
                0x000000000010d2d0                ARCONTROLLER_Common_NewCmdElementMavlinkStateMavlinkFilePlayingStateChanged
 *fill*         0x000000000010e24b        0x5 
 .text.ARCONTROLLER_FEATURE_Common_MavlinkStateMavlinkFilePlayingStateChangedCallback
                0x000000000010e250      0x56d /home/jose/catkin_ws/build/parrot_arsdk/arsdk/src/ARSDKBuildUtils/out/arsdk-native/build/libARController/obj/gen/Sources/ARCONTROLLER_Feature.c.o
                0x000000000010e250                ARCONTROLLER_FEATURE_Common_MavlinkStateMavlinkFilePlayingStateChangedCallback
 *fill*         0x000000000010e7bd        0x3 
 .text.ARCONTROLLER_Common_NewCmdElementMavlinkStateMavlinkPlayErrorStateChanged
                0x000000000010e7c0      0x570 /home/jose/catkin_ws/build/parrot_arsdk/arsdk/src/ARSDKBuildUtils/out/arsdk-native/build/libARController/obj/gen/Sources/ARCONTROLLER_Feature.c.o
                0x000000000010e7c0                ARCONTROLLER_Common_NewCmdElementMavlinkStateMavlinkPlayErrorStateChanged
 .text.ARCONTROLLER_FEATURE_Common_MavlinkStateMavlinkPlayErrorStateChangedCallback
                0x000000000010ed30      0x56d /home/jose/catkin_ws/build/parrot_arsdk/arsdk/src/ARSDKBuildUtils/out/arsdk-native/build/libARController/obj/gen/Sources/ARCONTROLLER_Feature.c.o
                0x000000000010ed30                ARCONTROLLER_FEATURE_Common_MavlinkStateMavlinkPlayErrorStateChangedCallback
 *fill*         0x000000000010f29d        0x3 
 .text.ARCONTROLLER_Common_NewCmdElementMavlinkStateMissionItemExecuted
                0x000000000010f2a0      0x570 /home/jose/catkin_ws/build/parrot_arsdk/arsdk/src/ARSDKBuildUtils/out/arsdk-native/build/libARController/obj/gen/Sources/ARCONTROLLER_Feature.c.o
                0x000000000010f2a0                ARCONTROLLER_Common_NewCmdElementMavlinkStateMissionItemExecuted
 .text.ARCONTROLLER_FEATURE_Common_MavlinkStateMissionItemExecutedCallback
                0x000000000010f810      0x56d /home/jose/catkin_ws/build/parrot_arsdk/arsdk/src/ARSDKBuildUtils/out/arsdk-native/build/libARController/obj/gen/Sources/ARCONTROLLER_Feature.c.o
                0x000000000010f810                ARCONTROLLER_FEATURE_Common_MavlinkStateMissionItemExecutedCallback
 *fill*         0x000000000010fd7d        0x3 
 .text.ARCONTROLLER_Common_NewCmdElementFlightPlanSettingsStateReturnHomeOnDisconnectChanged
                0x000000000010fd80      0x9cc /home/jose/catkin_ws/build/parrot_arsdk/arsdk/src/ARSDKBuildUtils/out/arsdk-native/build/libARController/obj/gen/Sources/ARCONTROLLER_Feature.c.o
                0x000000000010fd80                ARCONTROLLER_Common_NewCmdElementFlightPlanSettingsStateReturnHomeOnDisconnectChanged
 *fill*         0x000000000011074c        0x4 
 .text.ARCONTROLLER_FEATURE_Common_FlightPlanSettingsStateReturnHomeOnDisconnectChangedCallback
                0x0000000000110750      0x56d /home/jose/catkin_ws/build/parrot_arsdk/arsdk/src/ARSDKBuildUtils/out/arsdk-native/build/libARController/obj/gen/Sources/ARCONTROLLER_Feature.c.o
                0x0000000000110750                ARCONTROLLER_FEATURE_Common_FlightPlanSettingsStateReturnHomeOnDisconnectChangedCallback
 *fill*         0x0000000000110cbd        0x3 
 .text.ARCONTROLLER_Common_NewCmdElementCalibrationStateMagnetoCalibrationStateChanged
                0x0000000000110cc0     0x1436 /home/jose/catkin_ws/build/parrot_arsdk/arsdk/src/ARSDKBuildUtils/out/arsdk-native/build/libARController/obj/gen/Sources/ARCONTROLLER_Feature.c.o
                0x0000000000110cc0                ARCONTROLLER_Common_NewCmdElementCalibrationStateMagnetoCalibrationStateChanged
 *fill*         0x00000000001120f6        0xa 
 .text.ARCONTROLLER_FEATURE_Common_CalibrationStateMagnetoCalibrationStateChangedCallback
                0x0000000000112100      0x57d /home/jose/catkin_ws/build/parrot_arsdk/arsdk/src/ARSDKBuildUtils/out/arsdk-native/build/libARController/obj/gen/Sources/ARCONTROLLER_Feature.c.o
                0x0000000000112100                ARCONTROLLER_FEATURE_Common_CalibrationStateMagnetoCalibrationStateChangedCallback
 *fill*         0x000000000011267d        0x3 
 .text.ARCONTROLLER_Common_NewCmdElementCalibrationStateMagnetoCalibrationRequiredState
                0x0000000000112680      0x570 /home/jose/catkin_ws/build/parrot_arsdk/arsdk/src/ARSDKBuildUtils/out/arsdk-native/build/libARController/obj/gen/Sources/ARCONTROLLER_Feature.c.o
                0x0000000000112680                ARCONTROLLER_Common_NewCmdElementCalibrationStateMagnetoCalibrationRequiredState
 .text.ARCONTROLLER_FEATURE_Common_CalibrationStateMagnetoCalibrationRequiredStateCallback
                0x0000000000112bf0      0x56d /home/jose/catkin_ws/build/parrot_arsdk/arsdk/src/ARSDKBuildUtils/out/arsdk-native/build/libARController/obj/gen/Sources/ARCONTROLLER_Feature.c.o
                0x0000000000112bf0                ARCONTROLLER_FEATURE_Common_CalibrationStateMagnetoCalibrationRequiredStateCallback
 *fill*         0x000000000011315d        0x3 
 .text.ARCONTROLLER_Common_NewCmdElementCalibrationStateMagnetoCalibrationAxisToCalibrateChanged
                0x0000000000113160      0x570 /home/jose/catkin_ws/build/parrot_arsdk/arsdk/src/ARSDKBuildUtils/out/arsdk-native/build/libARController/obj/gen/Sources/ARCONTROLLER_Feature.c.o
                0x0000000000113160                ARCONTROLLER_Common_NewCmdElementCalibrationStateMagnetoCalibrationAxisToCalibrateChanged
 .text.ARCONTROLLER_FEATURE_Common_CalibrationStateMagnetoCalibrationAxisToCalibrateChangedCallback
                0x00000000001136d0      0x56d /home/jose/catkin_ws/build/parrot_arsdk/arsdk/src/ARSDKBuildUtils/out/arsdk-native/build/libARController/obj/gen/Sources/ARCONTROLLER_Feature.c.o
                0x00000000001136d0                ARCONTROLLER_FEATURE_Common_CalibrationStateMagnetoCalibrationAxisToCalibrateChangedCallback
 *fill*         0x0000000000113c3d        0x3 
 .text.ARCONTROLLER_Common_NewCmdElementCalibrationStateMagnetoCalibrationStartedChanged
                0x0000000000113c40      0x570 /home/jose/catkin_ws/build/parrot_arsdk/arsdk/src/ARSDKBuildUtils/out/arsdk-native/build/libARController/obj/gen/Sources/ARCONTROLLER_Feature.c.o
                0x0000000000113c40                ARCONTROLLER_Common_NewCmdElementCalibrationStateMagnetoCalibrationStartedChanged
 .text.ARCONTROLLER_FEATURE_Common_CalibrationStateMagnetoCalibrationStartedChangedCallback
                0x00000000001141b0      0x56d /home/jose/catkin_ws/build/parrot_arsdk/arsdk/src/ARSDKBuildUtils/out/arsdk-native/build/libARController/obj/gen/Sources/ARCONTROLLER_Feature.c.o
                0x00000000001141b0                ARCONTROLLER_FEATURE_Common_CalibrationStateMagnetoCalibrationStartedChangedCallback
 *fill*         0x000000000011471d        0x3 
 .text.ARCONTROLLER_Common_NewCmdElementCalibrationStatePitotCalibrationStateChanged
                0x0000000000114720      0x9cc /home/jose/catkin_ws/build/parrot_arsdk/arsdk/src/ARSDKBuildUtils/out/arsdk-native/build/libARController/obj/gen/Sources/ARCONTROLLER_Feature.c.o
                0x0000000000114720                ARCONTROLLER_Common_NewCmdElementCalibrationStatePitotCalibrationStateChanged
 *fill*         0x00000000001150ec        0x4 
 .text.ARCONTROLLER_FEATURE_Common_CalibrationStatePitotCalibrationStateChangedCallback
                0x00000000001150f0      0x56d /home/jose/catkin_ws/build/parrot_arsdk/arsdk/src/ARSDKBuildUtils/out/arsdk-native/build/libARController/obj/gen/Sources/ARCONTROLLER_Feature.c.o
                0x00000000001150f0                ARCONTROLLER_FEATURE_Common_CalibrationStatePitotCalibrationStateChangedCallback
 *fill*         0x000000000011565d        0x3 
 .text.ARCONTROLLER_Common_NewCmdElementCameraSettingsStateCameraSettingsChanged
                0x0000000000115660     0x197e /home/jose/catkin_ws/build/parrot_arsdk/arsdk/src/ARSDKBuildUtils/out/arsdk-native/build/libARController/obj/gen/Sources/ARCONTROLLER_Feature.c.o
                0x0000000000115660                ARCONTROLLER_Common_NewCmdElementCameraSettingsStateCameraSettingsChanged
 *fill*         0x0000000000116fde        0x2 
 .text.ARCONTROLLER_FEATURE_Common_CameraSettingsStateCameraSettingsChangedCallback
                0x0000000000116fe0      0x5fd /home/jose/catkin_ws/build/parrot_arsdk/arsdk/src/ARSDKBuildUtils/out/arsdk-native/build/libARController/obj/gen/Sources/ARCONTROLLER_Feature.c.o
                0x0000000000116fe0                ARCONTROLLER_FEATURE_Common_CameraSettingsStateCameraSettingsChangedCallback
 *fill*         0x00000000001175dd        0x3 
 .text.ARCONTROLLER_Common_NewCmdElementFlightPlanStateAvailabilityStateChanged
                0x00000000001175e0      0x570 /home/jose/catkin_ws/build/parrot_arsdk/arsdk/src/ARSDKBuildUtils/out/arsdk-native/build/libARController/obj/gen/Sources/ARCONTROLLER_Feature.c.o
                0x00000000001175e0                ARCONTROLLER_Common_NewCmdElementFlightPlanStateAvailabilityStateChanged
 .text.ARCONTROLLER_FEATURE_Common_FlightPlanStateAvailabilityStateChangedCallback
                0x0000000000117b50      0x56d /home/jose/catkin_ws/build/parrot_arsdk/arsdk/src/ARSDKBuildUtils/out/arsdk-native/build/libARController/obj/gen/Sources/ARCONTROLLER_Feature.c.o
                0x0000000000117b50                ARCONTROLLER_FEATURE_Common_FlightPlanStateAvailabilityStateChangedCallback
 *fill*         0x00000000001180bd        0x3 
 .text.ARCONTROLLER_Common_NewCmdElementFlightPlanStateComponentStateListChanged
                0x00000000001180c0      0xbf0 /home/jose/catkin_ws/build/parrot_arsdk/arsdk/src/ARSDKBuildUtils/out/arsdk-native/build/libARController/obj/gen/Sources/ARCONTROLLER_Feature.c.o
                0x00000000001180c0                ARCONTROLLER_Common_NewCmdElementFlightPlanStateComponentStateListChanged
 .text.ARCONTROLLER_FEATURE_Common_FlightPlanStateComponentStateListChangedCallback
                0x0000000000118cb0      0x56d /home/jose/catkin_ws/build/parrot_arsdk/arsdk/src/ARSDKBuildUtils/out/arsdk-native/build/libARController/obj/gen/Sources/ARCONTROLLER_Feature.c.o
                0x0000000000118cb0                ARCONTROLLER_FEATURE_Common_FlightPlanStateComponentStateListChangedCallback
 *fill*         0x000000000011921d        0x3 
 .text.ARCONTROLLER_Common_NewCmdElementFlightPlanStateLockStateChanged
                0x0000000000119220      0x570 /home/jose/catkin_ws/build/parrot_arsdk/arsdk/src/ARSDKBuildUtils/out/arsdk-native/build/libARController/obj/gen/Sources/ARCONTROLLER_Feature.c.o
                0x0000000000119220                ARCONTROLLER_Common_NewCmdElementFlightPlanStateLockStateChanged
 .text.ARCONTROLLER_FEATURE_Common_FlightPlanStateLockStateChangedCallback
                0x0000000000119790      0x56d /home/jose/catkin_ws/build/parrot_arsdk/arsdk/src/ARSDKBuildUtils/out/arsdk-native/build/libARController/obj/gen/Sources/ARCONTROLLER_Feature.c.o
                0x0000000000119790                ARCONTROLLER_FEATURE_Common_FlightPlanStateLockStateChangedCallback
 *fill*         0x0000000000119cfd        0x3 
 .text.ARCONTROLLER_Common_NewCmdElementFlightPlanEventStartingErrorEvent
                0x0000000000119d00        0x9 /home/jose/catkin_ws/build/parrot_arsdk/arsdk/src/ARSDKBuildUtils/out/arsdk-native/build/libARController/obj/gen/Sources/ARCONTROLLER_Feature.c.o
                0x0000000000119d00                ARCONTROLLER_Common_NewCmdElementFlightPlanEventStartingErrorEvent
 *fill*         0x0000000000119d09        0x7 
 .text.ARCONTROLLER_FEATURE_Common_FlightPlanEventStartingErrorEventCallback
                0x0000000000119d10      0x55d /home/jose/catkin_ws/build/parrot_arsdk/arsdk/src/ARSDKBuildUtils/out/arsdk-native/build/libARController/obj/gen/Sources/ARCONTROLLER_Feature.c.o
                0x0000000000119d10                ARCONTROLLER_FEATURE_Common_FlightPlanEventStartingErrorEventCallback
 *fill*         0x000000000011a26d        0x3 
 .text.ARCONTROLLER_Common_NewCmdElementFlightPlanEventSpeedBridleEvent
                0x000000000011a270        0x9 /home/jose/catkin_ws/build/parrot_arsdk/arsdk/src/ARSDKBuildUtils/out/arsdk-native/build/libARController/obj/gen/Sources/ARCONTROLLER_Feature.c.o
                0x000000000011a270                ARCONTROLLER_Common_NewCmdElementFlightPlanEventSpeedBridleEvent
 *fill*         0x000000000011a279        0x7 
 .text.ARCONTROLLER_FEATURE_Common_FlightPlanEventSpeedBridleEventCallback
                0x000000000011a280      0x55d /home/jose/catkin_ws/build/parrot_arsdk/arsdk/src/ARSDKBuildUtils/out/arsdk-native/build/libARController/obj/gen/Sources/ARCONTROLLER_Feature.c.o
                0x000000000011a280                ARCONTROLLER_FEATURE_Common_FlightPlanEventSpeedBridleEventCallback
 *fill*         0x000000000011a7dd        0x3 
 .text.ARCONTROLLER_Common_NewCmdElementARLibsVersionsStateControllerLibARCommandsVersion
                0x000000000011a7e0      0x5a2 /home/jose/catkin_ws/build/parrot_arsdk/arsdk/src/ARSDKBuildUtils/out/arsdk-native/build/libARController/obj/gen/Sources/ARCONTROLLER_Feature.c.o
                0x000000000011a7e0                ARCONTROLLER_Common_NewCmdElementARLibsVersionsStateControllerLibARCommandsVersion
 *fill*         0x000000000011ad82        0xe 
 .text.ARCONTROLLER_FEATURE_Common_ARLibsVersionsStateControllerLibARCommandsVersionCallback
                0x000000000011ad90      0x56d /home/jose/catkin_ws/build/parrot_arsdk/arsdk/src/ARSDKBuildUtils/out/arsdk-native/build/libARController/obj/gen/Sources/ARCONTROLLER_Feature.c.o
                0x000000000011ad90                ARCONTROLLER_FEATURE_Common_ARLibsVersionsStateControllerLibARCommandsVersionCallback
 *fill*         0x000000000011b2fd        0x3 
 .text.ARCONTROLLER_Common_NewCmdElementARLibsVersionsStateSkyControllerLibARCommandsVersion
                0x000000000011b300      0x5a2 /home/jose/catkin_ws/build/parrot_arsdk/arsdk/src/ARSDKBuildUtils/out/arsdk-native/build/libARController/obj/gen/Sources/ARCONTROLLER_Feature.c.o
                0x000000000011b300                ARCONTROLLER_Common_NewCmdElementARLibsVersionsStateSkyControllerLibARCommandsVersion
 *fill*         0x000000000011b8a2        0xe 
 .text.ARCONTROLLER_FEATURE_Common_ARLibsVersionsStateSkyControllerLibARCommandsVersionCallback
                0x000000000011b8b0      0x56d /home/jose/catkin_ws/build/parrot_arsdk/arsdk/src/ARSDKBuildUtils/out/arsdk-native/build/libARController/obj/gen/Sources/ARCONTROLLER_Feature.c.o
                0x000000000011b8b0                ARCONTROLLER_FEATURE_Common_ARLibsVersionsStateSkyControllerLibARCommandsVersionCallback
 *fill*         0x000000000011be1d        0x3 
 .text.ARCONTROLLER_Common_NewCmdElementARLibsVersionsStateDeviceLibARCommandsVersion
                0x000000000011be20      0x5a2 /home/jose/catkin_ws/build/parrot_arsdk/arsdk/src/ARSDKBuildUtils/out/arsdk-native/build/libARController/obj/gen/Sources/ARCONTROLLER_Feature.c.o
                0x000000000011be20                ARCONTROLLER_Common_NewCmdElementARLibsVersionsStateDeviceLibARCommandsVersion
 *fill*         0x000000000011c3c2        0xe 
 .text.ARCONTROLLER_FEATURE_Common_ARLibsVersionsStateDeviceLibARCommandsVersionCallback
                0x000000000011c3d0      0x56d /home/jose/catkin_ws/build/parrot_arsdk/arsdk/src/ARSDKBuildUtils/out/arsdk-native/build/libARController/obj/gen/Sources/ARCONTROLLER_Feature.c.o
                0x000000000011c3d0                ARCONTROLLER_FEATURE_Common_ARLibsVersionsStateDeviceLibARCommandsVersionCallback
 *fill*         0x000000000011c93d        0x3 
 .text.ARCONTROLLER_Common_NewCmdElementAudioStateAudioStreamingRunning
                0x000000000011c940      0x570 /home/jose/catkin_ws/build/parrot_arsdk/arsdk/src/ARSDKBuildUtils/out/arsdk-native/build/libARController/obj/gen/Sources/ARCONTROLLER_Feature.c.o
                0x000000000011c940                ARCONTROLLER_Common_NewCmdElementAudioStateAudioStreamingRunning
 .text.ARCONTROLLER_FEATURE_Common_AudioStateAudioStreamingRunningCallback
                0x000000000011ceb0      0x56d /home/jose/catkin_ws/build/parrot_arsdk/arsdk/src/ARSDKBuildUtils/out/arsdk-native/build/libARController/obj/gen/Sources/ARCONTROLLER_Feature.c.o
                0x000000000011ceb0                ARCONTROLLER_FEATURE_Common_AudioStateAudioStreamingRunningCallback
 *fill*         0x000000000011d41d        0x3 
 .text.ARCONTROLLER_Common_NewCmdElementHeadlightsStateIntensityChanged
                0x000000000011d420      0x9cc /home/jose/catkin_ws/build/parrot_arsdk/arsdk/src/ARSDKBuildUtils/out/arsdk-native/build/libARController/obj/gen/Sources/ARCONTROLLER_Feature.c.o
                0x000000000011d420                ARCONTROLLER_Common_NewCmdElementHeadlightsStateIntensityChanged
 *fill*         0x000000000011ddec        0x4 
 .text.ARCONTROLLER_FEATURE_Common_HeadlightsStateIntensityChangedCallback
                0x000000000011ddf0      0x56d /home/jose/catkin_ws/build/parrot_arsdk/arsdk/src/ARSDKBuildUtils/out/arsdk-native/build/libARController/obj/gen/Sources/ARCONTROLLER_Feature.c.o
                0x000000000011ddf0                ARCONTROLLER_FEATURE_Common_HeadlightsStateIntensityChangedCallback
 *fill*         0x000000000011e35d        0x3 
 .text.ARCONTROLLER_Common_NewCmdElementAnimationsStateList
                0x000000000011e360     0x1110 /home/jose/catkin_ws/build/parrot_arsdk/arsdk/src/ARSDKBuildUtils/out/arsdk-native/build/libARController/obj/gen/Sources/ARCONTROLLER_Feature.c.o
                0x000000000011e360                ARCONTROLLER_Common_NewCmdElementAnimationsStateList
 .text.ARCONTROLLER_FEATURE_Common_AnimationsStateListCallback
                0x000000000011f470      0x56d /home/jose/catkin_ws/build/parrot_arsdk/arsdk/src/ARSDKBuildUtils/out/arsdk-native/build/libARController/obj/gen/Sources/ARCONTROLLER_Feature.c.o
                0x000000000011f470                ARCONTROLLER_FEATURE_Common_AnimationsStateListCallback
 *fill*         0x000000000011f9dd        0x3 
 .text.ARCONTROLLER_Common_NewCmdElementAccessoryStateSupportedAccessoriesListChanged
                0x000000000011f9e0      0x66b /home/jose/catkin_ws/build/parrot_arsdk/arsdk/src/ARSDKBuildUtils/out/arsdk-native/build/libARController/obj/gen/Sources/ARCONTROLLER_Feature.c.o
                0x000000000011f9e0                ARCONTROLLER_Common_NewCmdElementAccessoryStateSupportedAccessoriesListChanged
 *fill*         0x000000000012004b        0x5 
 .text.ARCONTROLLER_FEATURE_Common_AccessoryStateSupportedAccessoriesListChangedCallback
                0x0000000000120050      0x56d /home/jose/catkin_ws/build/parrot_arsdk/arsdk/src/ARSDKBuildUtils/out/arsdk-native/build/libARController/obj/gen/Sources/ARCONTROLLER_Feature.c.o
                0x0000000000120050                ARCONTROLLER_FEATURE_Common_AccessoryStateSupportedAccessoriesListChangedCallback
 *fill*         0x00000000001205bd        0x3 
 .text.ARCONTROLLER_Common_NewCmdElementAccessoryStateAccessoryConfigChanged
                0x00000000001205c0      0x9cc /home/jose/catkin_ws/build/parrot_arsdk/arsdk/src/ARSDKBuildUtils/out/arsdk-native/build/libARController/obj/gen/Sources/ARCONTROLLER_Feature.c.o
                0x00000000001205c0                ARCONTROLLER_Common_NewCmdElementAccessoryStateAccessoryConfigChanged
 *fill*         0x0000000000120f8c        0x4 
 .text.ARCONTROLLER_FEATURE_Common_AccessoryStateAccessoryConfigChangedCallback
                0x0000000000120f90      0x56d /home/jose/catkin_ws/build/parrot_arsdk/arsdk/src/ARSDKBuildUtils/out/arsdk-native/build/libARController/obj/gen/Sources/ARCONTROLLER_Feature.c.o
                0x0000000000120f90                ARCONTROLLER_FEATURE_Common_AccessoryStateAccessoryConfigChangedCallback
 *fill*         0x00000000001214fd        0x3 
 .text.ARCONTROLLER_Common_NewCmdElementAccessoryStateAccessoryConfigModificationEnabled
                0x0000000000121500      0x570 /home/jose/catkin_ws/build/parrot_arsdk/arsdk/src/ARSDKBuildUtils/out/arsdk-native/build/libARController/obj/gen/Sources/ARCONTROLLER_Feature.c.o
                0x0000000000121500                ARCONTROLLER_Common_NewCmdElementAccessoryStateAccessoryConfigModificationEnabled
 .text.ARCONTROLLER_FEATURE_Common_AccessoryStateAccessoryConfigModificationEnabledCallback
                0x0000000000121a70      0x56d /home/jose/catkin_ws/build/parrot_arsdk/arsdk/src/ARSDKBuildUtils/out/arsdk-native/build/libARController/obj/gen/Sources/ARCONTROLLER_Feature.c.o
                0x0000000000121a70                ARCONTROLLER_FEATURE_Common_AccessoryStateAccessoryConfigModificationEnabledCallback
 *fill*         0x0000000000121fdd        0x3 
 .text.ARCONTROLLER_Common_NewCmdElementChargerStateMaxChargeRateChanged
                0x0000000000121fe0      0x570 /home/jose/catkin_ws/build/parrot_arsdk/arsdk/src/ARSDKBuildUtils/out/arsdk-native/build/libARController/obj/gen/Sources/ARCONTROLLER_Feature.c.o
                0x0000000000121fe0                ARCONTROLLER_Common_NewCmdElementChargerStateMaxChargeRateChanged
 .text.ARCONTROLLER_FEATURE_Common_ChargerStateMaxChargeRateChangedCallback
                0x0000000000122550      0x56d /home/jose/catkin_ws/build/parrot_arsdk/arsdk/src/ARSDKBuildUtils/out/arsdk-native/build/libARController/obj/gen/Sources/ARCONTROLLER_Feature.c.o
                0x0000000000122550                ARCONTROLLER_FEATURE_Common_ChargerStateMaxChargeRateChangedCallback
 *fill*         0x0000000000122abd        0x3 
 .text.ARCONTROLLER_Common_NewCmdElementChargerStateCurrentChargeStateChanged
                0x0000000000122ac0      0x9cc /home/jose/catkin_ws/build/parrot_arsdk/arsdk/src/ARSDKBuildUtils/out/arsdk-native/build/libARController/obj/gen/Sources/ARCONTROLLER_Feature.c.o
                0x0000000000122ac0                ARCONTROLLER_Common_NewCmdElementChargerStateCurrentChargeStateChanged
 *fill*         0x000000000012348c        0x4 
 .text.ARCONTROLLER_FEATURE_Common_ChargerStateCurrentChargeStateChangedCallback
                0x0000000000123490      0x56d /home/jose/catkin_ws/build/parrot_arsdk/arsdk/src/ARSDKBuildUtils/out/arsdk-native/build/libARController/obj/gen/Sources/ARCONTROLLER_Feature.c.o
                0x0000000000123490                ARCONTROLLER_FEATURE_Common_ChargerStateCurrentChargeStateChangedCallback
 *fill*         0x00000000001239fd        0x3 
 .text.ARCONTROLLER_Common_NewCmdElementChargerStateLastChargeRateChanged
                0x0000000000123a00      0x570 /home/jose/catkin_ws/build/parrot_arsdk/arsdk/src/ARSDKBuildUtils/out/arsdk-native/build/libARController/obj/gen/Sources/ARCONTROLLER_Feature.c.o
                0x0000000000123a00                ARCONTROLLER_Common_NewCmdElementChargerStateLastChargeRateChanged
 .text.ARCONTROLLER_FEATURE_Common_ChargerStateLastChargeRateChangedCallback
                0x0000000000123f70      0x56d /home/jose/catkin_ws/build/parrot_arsdk/arsdk/src/ARSDKBuildUtils/out/arsdk-native/build/libARController/obj/gen/Sources/ARCONTROLLER_Feature.c.o
                0x0000000000123f70                ARCONTROLLER_FEATURE_Common_ChargerStateLastChargeRateChangedCallback
 *fill*         0x00000000001244dd        0x3 
 .text.ARCONTROLLER_Common_NewCmdElementChargerStateChargingInfo
                0x00000000001244e0     0x1436 /home/jose/catkin_ws/build/parrot_arsdk/arsdk/src/ARSDKBuildUtils/out/arsdk-native/build/libARController/obj/gen/Sources/ARCONTROLLER_Feature.c.o
                0x00000000001244e0                ARCONTROLLER_Common_NewCmdElementChargerStateChargingInfo
 *fill*         0x0000000000125916        0xa 
 .text.ARCONTROLLER_FEATURE_Common_ChargerStateChargingInfoCallback
                0x0000000000125920      0x57d /home/jose/catkin_ws/build/parrot_arsdk/arsdk/src/ARSDKBuildUtils/out/arsdk-native/build/libARController/obj/gen/Sources/ARCONTROLLER_Feature.c.o
                0x0000000000125920                ARCONTROLLER_FEATURE_Common_ChargerStateChargingInfoCallback
 *fill*         0x0000000000125e9d        0x3 
 .text.ARCONTROLLER_Common_NewCmdElementRunStateRunIdChanged
                0x0000000000125ea0      0x5a2 /home/jose/catkin_ws/build/parrot_arsdk/arsdk/src/ARSDKBuildUtils/out/arsdk-native/build/libARController/obj/gen/Sources/ARCONTROLLER_Feature.c.o
                0x0000000000125ea0                ARCONTROLLER_Common_NewCmdElementRunStateRunIdChanged
 *fill*         0x0000000000126442        0xe 
 .text.ARCONTROLLER_FEATURE_Common_RunStateRunIdChangedCallback
                0x0000000000126450      0x56d /home/jose/catkin_ws/build/parrot_arsdk/arsdk/src/ARSDKBuildUtils/out/arsdk-native/build/libARController/obj/gen/Sources/ARCONTROLLER_Feature.c.o
                0x0000000000126450                ARCONTROLLER_FEATURE_Common_RunStateRunIdChangedCallback
 *fill*         0x00000000001269bd        0x3 
 .text.ARCONTROLLER_FEATURE_Common_SetNetworkController
                0x00000000001269c0       0x26 /home/jose/catkin_ws/build/parrot_arsdk/arsdk/src/ARSDKBuildUtils/out/arsdk-native/build/libARController/obj/gen/Sources/ARCONTROLLER_Feature.c.o
                0x00000000001269c0                ARCONTROLLER_FEATURE_Common_SetNetworkController
 *fill*         0x00000000001269e6        0xa 
 .text.ARCONTROLLER_Common_GetCommandElements
                0x00000000001269f0      0x1a3 /home/jose/catkin_ws/build/parrot_arsdk/arsdk/src/ARSDKBuildUtils/out/arsdk-native/build/libARController/obj/gen/Sources/ARCONTROLLER_Feature.c.o
                0x00000000001269f0                ARCONTROLLER_Common_GetCommandElements
 *fill*         0x0000000000126b93        0xd 
 .text.ARCONTROLLER_FEATURE_ControllerInfo_Delete
                0x0000000000126ba0       0xe9 /home/jose/catkin_ws/build/parrot_arsdk/arsdk/src/ARSDKBuildUtils/out/arsdk-native/build/libARController/obj/gen/Sources/ARCONTROLLER_Feature.c.o
                0x0000000000126ba0                ARCONTROLLER_FEATURE_ControllerInfo_Delete
 *fill*         0x0000000000126c89        0x7 
 .text.ARCONTROLLER_FEATURE_ControllerInfo_New
                0x0000000000126c90      0x1e7 /home/jose/catkin_ws/build/parrot_arsdk/arsdk/src/ARSDKBuildUtils/out/arsdk-native/build/libARController/obj/gen/Sources/ARCONTROLLER_Feature.c.o
                0x0000000000126c90                ARCONTROLLER_FEATURE_ControllerInfo_New
 *fill*         0x0000000000126e77        0x9 
 .text.ARCONTROLLER_FEATURE_ControllerInfo_GetDictionary
                0x0000000000126e80       0x37 /home/jose/catkin_ws/build/parrot_arsdk/arsdk/src/ARSDKBuildUtils/out/arsdk-native/build/libARController/obj/gen/Sources/ARCONTROLLER_Feature.c.o
                0x0000000000126e80                ARCONTROLLER_FEATURE_ControllerInfo_GetDictionary
 *fill*         0x0000000000126eb7        0x9 
 .text.ARCONTROLLER_FEATURE_ControllerInfo_AddCallback
                0x0000000000126ec0       0x26 /home/jose/catkin_ws/build/parrot_arsdk/arsdk/src/ARSDKBuildUtils/out/arsdk-native/build/libARController/obj/gen/Sources/ARCONTROLLER_Feature.c.o
                0x0000000000126ec0                ARCONTROLLER_FEATURE_ControllerInfo_AddCallback
 *fill*         0x0000000000126ee6        0xa 
 .text.ARCONTROLLER_FEATURE_ControllerInfo_RemoveCallback
                0x0000000000126ef0       0x26 /home/jose/catkin_ws/build/parrot_arsdk/arsdk/src/ARSDKBuildUtils/out/arsdk-native/build/libARController/obj/gen/Sources/ARCONTROLLER_Feature.c.o
                0x0000000000126ef0                ARCONTROLLER_FEATURE_ControllerInfo_RemoveCallback
 *fill*         0x0000000000126f16        0xa 
 .text.ARCONTROLLER_FEATURE_ControllerInfo_RegisterARCommands
                0x0000000000126f20       0x36 /home/jose/catkin_ws/build/parrot_arsdk/arsdk/src/ARSDKBuildUtils/out/arsdk-native/build/libARController/obj/gen/Sources/ARCONTROLLER_Feature.c.o
                0x0000000000126f20                ARCONTROLLER_FEATURE_ControllerInfo_RegisterARCommands
 *fill*         0x0000000000126f56        0xa 
 .text.ARCONTROLLER_FEATURE_ControllerInfo_UnregisterARCommands
                0x0000000000126f60        0x9 /home/jose/catkin_ws/build/parrot_arsdk/arsdk/src/ARSDKBuildUtils/out/arsdk-native/build/libARController/obj/gen/Sources/ARCONTROLLER_Feature.c.o
                0x0000000000126f60                ARCONTROLLER_FEATURE_ControllerInfo_UnregisterARCommands
 *fill*         0x0000000000126f69        0x7 
 .text.ARCONTROLLER_ControllerInfo_SendGpsStruct
                0x0000000000126f70      0x135 /home/jose/catkin_ws/build/parrot_arsdk/arsdk/src/ARSDKBuildUtils/out/arsdk-native/build/libARController/obj/gen/Sources/ARCONTROLLER_Feature.c.o
                0x0000000000126f70                ARCONTROLLER_ControllerInfo_SendGpsStruct
 *fill*         0x00000000001270a5        0xb 
 .text.ARCONTROLLER_ControllerInfo_SendBarometerStruct
                0x00000000001270b0      0x115 /home/jose/catkin_ws/build/parrot_arsdk/arsdk/src/ARSDKBuildUtils/out/arsdk-native/build/libARController/obj/gen/Sources/ARCONTROLLER_Feature.c.o
                0x00000000001270b0                ARCONTROLLER_ControllerInfo_SendBarometerStruct
 *fill*         0x00000000001271c5        0xb 
 .text.ARCONTROLLER_FEATURE_ControllerInfo_SetNetworkController
                0x00000000001271d0       0x26 /home/jose/catkin_ws/build/parrot_arsdk/arsdk/src/ARSDKBuildUtils/out/arsdk-native/build/libARController/obj/gen/Sources/ARCONTROLLER_Feature.c.o
                0x00000000001271d0                ARCONTROLLER_FEATURE_ControllerInfo_SetNetworkController
 *fill*         0x00000000001271f6        0xa 
 .text.ARCONTROLLER_ControllerInfo_GetCommandElements
                0x0000000000127200      0x193 /home/jose/catkin_ws/build/parrot_arsdk/arsdk/src/ARSDKBuildUtils/out/arsdk-native/build/libARController/obj/gen/Sources/ARCONTROLLER_Feature.c.o
                0x0000000000127200                ARCONTROLLER_ControllerInfo_GetCommandElements
 *fill*         0x0000000000127393        0xd 
 .text.ARCONTROLLER_FEATURE_Debug_Delete
                0x00000000001273a0       0x81 /home/jose/catkin_ws/build/parrot_arsdk/arsdk/src/ARSDKBuildUtils/out/arsdk-native/build/libARController/obj/gen/Sources/ARCONTROLLER_Feature.c.o
                0x00000000001273a0                ARCONTROLLER_FEATURE_Debug_Delete
 *fill*         0x0000000000127421        0xf 
 .text.ARCONTROLLER_FEATURE_Debug_New
                0x0000000000127430       0xcb /home/jose/catkin_ws/build/parrot_arsdk/arsdk/src/ARSDKBuildUtils/out/arsdk-native/build/libARController/obj/gen/Sources/ARCONTROLLER_Feature.c.o
                0x0000000000127430                ARCONTROLLER_FEATURE_Debug_New
 *fill*         0x00000000001274fb        0x5 
 .text.ARCONTROLLER_FEATURE_Debug_GetDictionary
                0x0000000000127500       0x37 /home/jose/catkin_ws/build/parrot_arsdk/arsdk/src/ARSDKBuildUtils/out/arsdk-native/build/libARController/obj/gen/Sources/ARCONTROLLER_Feature.c.o
                0x0000000000127500                ARCONTROLLER_FEATURE_Debug_GetDictionary
 *fill*         0x0000000000127537        0x9 
 .text.ARCONTROLLER_FEATURE_Debug_AddCallback
                0x0000000000127540       0x26 /home/jose/catkin_ws/build/parrot_arsdk/arsdk/src/ARSDKBuildUtils/out/arsdk-native/build/libARController/obj/gen/Sources/ARCONTROLLER_Feature.c.o
                0x0000000000127540                ARCONTROLLER_FEATURE_Debug_AddCallback
 *fill*         0x0000000000127566        0xa 
 .text.ARCONTROLLER_FEATURE_Debug_RemoveCallback
                0x0000000000127570       0x26 /home/jose/catkin_ws/build/parrot_arsdk/arsdk/src/ARSDKBuildUtils/out/arsdk-native/build/libARController/obj/gen/Sources/ARCONTROLLER_Feature.c.o
                0x0000000000127570                ARCONTROLLER_FEATURE_Debug_RemoveCallback
 *fill*         0x0000000000127596        0xa 
 .text.ARCONTROLLER_FEATURE_Debug_RegisterARCommands
                0x00000000001275a0       0x65 /home/jose/catkin_ws/build/parrot_arsdk/arsdk/src/ARSDKBuildUtils/out/arsdk-native/build/libARController/obj/gen/Sources/ARCONTROLLER_Feature.c.o
                0x00000000001275a0                ARCONTROLLER_FEATURE_Debug_RegisterARCommands
 *fill*         0x0000000000127605        0xb 
 .text.ARCONTROLLER_FEATURE_Debug_UnregisterARCommands
                0x0000000000127610       0x5d /home/jose/catkin_ws/build/parrot_arsdk/arsdk/src/ARSDKBuildUtils/out/arsdk-native/build/libARController/obj/gen/Sources/ARCONTROLLER_Feature.c.o
                0x0000000000127610                ARCONTROLLER_FEATURE_Debug_UnregisterARCommands
 *fill*         0x000000000012766d        0x3 
 .text.ARCONTROLLER_Debug_NewCmdElementSettingsInfo
                0x0000000000127670     0x2b40 /home/jose/catkin_ws/build/parrot_arsdk/arsdk/src/ARSDKBuildUtils/out/arsdk-native/build/libARController/obj/gen/Sources/ARCONTROLLER_Feature.c.o
                0x0000000000127670                ARCONTROLLER_Debug_NewCmdElementSettingsInfo
 .text.ARCONTROLLER_FEATURE_Debug_SettingsInfoCallback
                0x000000000012a1b0      0x870 /home/jose/catkin_ws/build/parrot_arsdk/arsdk/src/ARSDKBuildUtils/out/arsdk-native/build/libARController/obj/gen/Sources/ARCONTROLLER_Feature.c.o
                0x000000000012a1b0                ARCONTROLLER_FEATURE_Debug_SettingsInfoCallback
 .text.ARCONTROLLER_Debug_NewCmdElementSettingsList
                0x000000000012aa20      0xa1b /home/jose/catkin_ws/build/parrot_arsdk/arsdk/src/ARSDKBuildUtils/out/arsdk-native/build/libARController/obj/gen/Sources/ARCONTROLLER_Feature.c.o
                0x000000000012aa20                ARCONTROLLER_Debug_NewCmdElementSettingsList
 *fill*         0x000000000012b43b        0x5 
 .text.ARCONTROLLER_FEATURE_Debug_SettingsListCallback
                0x000000000012b440      0x54d /home/jose/catkin_ws/build/parrot_arsdk/arsdk/src/ARSDKBuildUtils/out/arsdk-native/build/libARController/obj/gen/Sources/ARCONTROLLER_Feature.c.o
                0x000000000012b440                ARCONTROLLER_FEATURE_Debug_SettingsListCallback
 *fill*         0x000000000012b98d        0x3 
 .text.ARCONTROLLER_FEATURE_Debug_SetNetworkController
                0x000000000012b990       0x26 /home/jose/catkin_ws/build/parrot_arsdk/arsdk/src/ARSDKBuildUtils/out/arsdk-native/build/libARController/obj/gen/Sources/ARCONTROLLER_Feature.c.o
                0x000000000012b990                ARCONTROLLER_FEATURE_Debug_SetNetworkController
 *fill*         0x000000000012b9b6        0xa 
 .text.ARCONTROLLER_Debug_GetCommandElements
                0x000000000012b9c0      0x193 /home/jose/catkin_ws/build/parrot_arsdk/arsdk/src/ARSDKBuildUtils/out/arsdk-native/build/libARController/obj/gen/Sources/ARCONTROLLER_Feature.c.o
                0x000000000012b9c0                ARCONTROLLER_Debug_GetCommandElements
 *fill*         0x000000000012bb53        0xd 
 .text.ARCONTROLLER_FEATURE_DroneManager_Delete
                0x000000000012bb60       0x81 /home/jose/catkin_ws/build/parrot_arsdk/arsdk/src/ARSDKBuildUtils/out/arsdk-native/build/libARController/obj/gen/Sources/ARCONTROLLER_Feature.c.o
                0x000000000012bb60                ARCONTROLLER_FEATURE_DroneManager_Delete
 *fill*         0x000000000012bbe1        0xf 
 .text.ARCONTROLLER_FEATURE_DroneManager_New
                0x000000000012bbf0       0xdb /home/jose/catkin_ws/build/parrot_arsdk/arsdk/src/ARSDKBuildUtils/out/arsdk-native/build/libARController/obj/gen/Sources/ARCONTROLLER_Feature.c.o
                0x000000000012bbf0                ARCONTROLLER_FEATURE_DroneManager_New
 *fill*         0x000000000012bccb        0x5 
 .text.ARCONTROLLER_FEATURE_DroneManager_GetDictionary
                0x000000000012bcd0       0x37 /home/jose/catkin_ws/build/parrot_arsdk/arsdk/src/ARSDKBuildUtils/out/arsdk-native/build/libARController/obj/gen/Sources/ARCONTROLLER_Feature.c.o
                0x000000000012bcd0                ARCONTROLLER_FEATURE_DroneManager_GetDictionary
 *fill*         0x000000000012bd07        0x9 
 .text.ARCONTROLLER_FEATURE_DroneManager_AddCallback
                0x000000000012bd10       0x26 /home/jose/catkin_ws/build/parrot_arsdk/arsdk/src/ARSDKBuildUtils/out/arsdk-native/build/libARController/obj/gen/Sources/ARCONTROLLER_Feature.c.o
                0x000000000012bd10                ARCONTROLLER_FEATURE_DroneManager_AddCallback
 *fill*         0x000000000012bd36        0xa 
 .text.ARCONTROLLER_FEATURE_DroneManager_RemoveCallback
                0x000000000012bd40       0x26 /home/jose/catkin_ws/build/parrot_arsdk/arsdk/src/ARSDKBuildUtils/out/arsdk-native/build/libARController/obj/gen/Sources/ARCONTROLLER_Feature.c.o
                0x000000000012bd40                ARCONTROLLER_FEATURE_DroneManager_RemoveCallback
 *fill*         0x000000000012bd66        0xa 
 .text.ARCONTROLLER_FEATURE_DroneManager_RegisterARCommands
                0x000000000012bd70       0xbd /home/jose/catkin_ws/build/parrot_arsdk/arsdk/src/ARSDKBuildUtils/out/arsdk-native/build/libARController/obj/gen/Sources/ARCONTROLLER_Feature.c.o
                0x000000000012bd70                ARCONTROLLER_FEATURE_DroneManager_RegisterARCommands
 *fill*         0x000000000012be2d        0x3 
 .text.ARCONTROLLER_FEATURE_DroneManager_UnregisterARCommands
                0x000000000012be30       0x8d /home/jose/catkin_ws/build/parrot_arsdk/arsdk/src/ARSDKBuildUtils/out/arsdk-native/build/libARController/obj/gen/Sources/ARCONTROLLER_Feature.c.o
                0x000000000012be30                ARCONTROLLER_FEATURE_DroneManager_UnregisterARCommands
 *fill*         0x000000000012bebd        0x3 
 .text.ARCONTROLLER_DroneManager_NewCmdElementDroneListItem
                0x000000000012bec0     0x2db2 /home/jose/catkin_ws/build/parrot_arsdk/arsdk/src/ARSDKBuildUtils/out/arsdk-native/build/libARController/obj/gen/Sources/ARCONTROLLER_Feature.c.o
                0x000000000012bec0                ARCONTROLLER_DroneManager_NewCmdElementDroneListItem
 *fill*         0x000000000012ec72        0xe 
 .text.ARCONTROLLER_FEATURE_DroneManager_DroneListItemCallback
                0x000000000012ec80      0xcb6 /home/jose/catkin_ws/build/parrot_arsdk/arsdk/src/ARSDKBuildUtils/out/arsdk-native/build/libARController/obj/gen/Sources/ARCONTROLLER_Feature.c.o
                0x000000000012ec80                ARCONTROLLER_FEATURE_DroneManager_DroneListItemCallback
 *fill*         0x000000000012f936        0xa 
 .text.ARCONTROLLER_DroneManager_NewCmdElementConnectionState
                0x000000000012f940     0x14aa /home/jose/catkin_ws/build/parrot_arsdk/arsdk/src/ARSDKBuildUtils/out/arsdk-native/build/libARController/obj/gen/Sources/ARCONTROLLER_Feature.c.o
                0x000000000012f940                ARCONTROLLER_DroneManager_NewCmdElementConnectionState
 *fill*         0x0000000000130dea        0x6 
 .text.ARCONTROLLER_FEATURE_DroneManager_ConnectionStateCallback
                0x0000000000130df0      0x55d /home/jose/catkin_ws/build/parrot_arsdk/arsdk/src/ARSDKBuildUtils/out/arsdk-native/build/libARController/obj/gen/Sources/ARCONTROLLER_Feature.c.o
                0x0000000000130df0                ARCONTROLLER_FEATURE_DroneManager_ConnectionStateCallback
 *fill*         0x000000000013134d        0x3 
 .text.ARCONTROLLER_DroneManager_NewCmdElementAuthenticationFailed
                0x0000000000131350      0xf72 /home/jose/catkin_ws/build/parrot_arsdk/arsdk/src/ARSDKBuildUtils/out/arsdk-native/build/libARController/obj/gen/Sources/ARCONTROLLER_Feature.c.o
                0x0000000000131350                ARCONTROLLER_DroneManager_NewCmdElementAuthenticationFailed
 *fill*         0x00000000001322c2        0xe 
 .text.ARCONTROLLER_FEATURE_DroneManager_AuthenticationFailedCallback
                0x00000000001322d0      0x55d /home/jose/catkin_ws/build/parrot_arsdk/arsdk/src/ARSDKBuildUtils/out/arsdk-native/build/libARController/obj/gen/Sources/ARCONTROLLER_Feature.c.o
                0x00000000001322d0                ARCONTROLLER_FEATURE_DroneManager_AuthenticationFailedCallback
 *fill*         0x000000000013282d        0x3 
 .text.ARCONTROLLER_DroneManager_NewCmdElementConnectionRefused
                0x0000000000132830      0xf72 /home/jose/catkin_ws/build/parrot_arsdk/arsdk/src/ARSDKBuildUtils/out/arsdk-native/build/libARController/obj/gen/Sources/ARCONTROLLER_Feature.c.o
                0x0000000000132830                ARCONTROLLER_DroneManager_NewCmdElementConnectionRefused
 *fill*         0x00000000001337a2        0xe 
 .text.ARCONTROLLER_FEATURE_DroneManager_ConnectionRefusedCallback
                0x00000000001337b0      0x55d /home/jose/catkin_ws/build/parrot_arsdk/arsdk/src/ARSDKBuildUtils/out/arsdk-native/build/libARController/obj/gen/Sources/ARCONTROLLER_Feature.c.o
                0x00000000001337b0                ARCONTROLLER_FEATURE_DroneManager_ConnectionRefusedCallback
 *fill*         0x0000000000133d0d        0x3 
 .text.ARCONTROLLER_DroneManager_NewCmdElementKnownDroneItem
                0x0000000000133d10     0x1970 /home/jose/catkin_ws/build/parrot_arsdk/arsdk/src/ARSDKBuildUtils/out/arsdk-native/build/libARController/obj/gen/Sources/ARCONTROLLER_Feature.c.o
                0x0000000000133d10                ARCONTROLLER_DroneManager_NewCmdElementKnownDroneItem
 .text.ARCONTROLLER_FEATURE_DroneManager_KnownDroneItemCallback
                0x0000000000135680      0xcab /home/jose/catkin_ws/build/parrot_arsdk/arsdk/src/ARSDKBuildUtils/out/arsdk-native/build/libARController/obj/gen/Sources/ARCONTROLLER_Feature.c.o
                0x0000000000135680                ARCONTROLLER_FEATURE_DroneManager_KnownDroneItemCallback
 *fill*         0x000000000013632b        0x5 
 .text.ARCONTROLLER_FEATURE_DroneManager_SetNetworkController
                0x0000000000136330       0x26 /home/jose/catkin_ws/build/parrot_arsdk/arsdk/src/ARSDKBuildUtils/out/arsdk-native/build/libARController/obj/gen/Sources/ARCONTROLLER_Feature.c.o
                0x0000000000136330                ARCONTROLLER_FEATURE_DroneManager_SetNetworkController
 *fill*         0x0000000000136356        0xa 
 .text.ARCONTROLLER_DroneManager_GetCommandElements
                0x0000000000136360      0x193 /home/jose/catkin_ws/build/parrot_arsdk/arsdk/src/ARSDKBuildUtils/out/arsdk-native/build/libARController/obj/gen/Sources/ARCONTROLLER_Feature.c.o
                0x0000000000136360                ARCONTROLLER_DroneManager_GetCommandElements
 *fill*         0x00000000001364f3        0xd 
 .text.ARCONTROLLER_FEATURE_FollowMe_Delete
                0x0000000000136500       0x81 /home/jose/catkin_ws/build/parrot_arsdk/arsdk/src/ARSDKBuildUtils/out/arsdk-native/build/libARController/obj/gen/Sources/ARCONTROLLER_Feature.c.o
                0x0000000000136500                ARCONTROLLER_FEATURE_FollowMe_Delete
 *fill*         0x0000000000136581        0xf 
 .text.ARCONTROLLER_FEATURE_FollowMe_New
                0x0000000000136590      0x13b /home/jose/catkin_ws/build/parrot_arsdk/arsdk/src/ARSDKBuildUtils/out/arsdk-native/build/libARController/obj/gen/Sources/ARCONTROLLER_Feature.c.o
                0x0000000000136590                ARCONTROLLER_FEATURE_FollowMe_New
 *fill*         0x00000000001366cb        0x5 
 .text.ARCONTROLLER_FEATURE_FollowMe_GetDictionary
                0x00000000001366d0       0x37 /home/jose/catkin_ws/build/parrot_arsdk/arsdk/src/ARSDKBuildUtils/out/arsdk-native/build/libARController/obj/gen/Sources/ARCONTROLLER_Feature.c.o
                0x00000000001366d0                ARCONTROLLER_FEATURE_FollowMe_GetDictionary
 *fill*         0x0000000000136707        0x9 
 .text.ARCONTROLLER_FEATURE_FollowMe_AddCallback
                0x0000000000136710       0x26 /home/jose/catkin_ws/build/parrot_arsdk/arsdk/src/ARSDKBuildUtils/out/arsdk-native/build/libARController/obj/gen/Sources/ARCONTROLLER_Feature.c.o
                0x0000000000136710                ARCONTROLLER_FEATURE_FollowMe_AddCallback
 *fill*         0x0000000000136736        0xa 
 .text.ARCONTROLLER_FEATURE_FollowMe_RemoveCallback
                0x0000000000136740       0x26 /home/jose/catkin_ws/build/parrot_arsdk/arsdk/src/ARSDKBuildUtils/out/arsdk-native/build/libARController/obj/gen/Sources/ARCONTROLLER_Feature.c.o
                0x0000000000136740                ARCONTROLLER_FEATURE_FollowMe_RemoveCallback
 *fill*         0x0000000000136766        0xa 
 .text.ARCONTROLLER_FEATURE_FollowMe_RegisterARCommands
                0x0000000000136770      0x17d /home/jose/catkin_ws/build/parrot_arsdk/arsdk/src/ARSDKBuildUtils/out/arsdk-native/build/libARController/obj/gen/Sources/ARCONTROLLER_Feature.c.o
                0x0000000000136770                ARCONTROLLER_FEATURE_FollowMe_RegisterARCommands
 *fill*         0x00000000001368ed        0x3 
 .text.ARCONTROLLER_FEATURE_FollowMe_UnregisterARCommands
                0x00000000001368f0      0x125 /home/jose/catkin_ws/build/parrot_arsdk/arsdk/src/ARSDKBuildUtils/out/arsdk-native/build/libARController/obj/gen/Sources/ARCONTROLLER_Feature.c.o
                0x00000000001368f0                ARCONTROLLER_FEATURE_FollowMe_UnregisterARCommands
 *fill*         0x0000000000136a15        0xb 
 .text.ARCONTROLLER_FollowMe_NewCmdElementState
                0x0000000000136a20     0x1426 /home/jose/catkin_ws/build/parrot_arsdk/arsdk/src/ARSDKBuildUtils/out/arsdk-native/build/libARController/obj/gen/Sources/ARCONTROLLER_Feature.c.o
                0x0000000000136a20                ARCONTROLLER_FollowMe_NewCmdElementState
 *fill*         0x0000000000137e46        0xa 
 .text.ARCONTROLLER_FEATURE_FollowMe_StateCallback
                0x0000000000137e50      0x55d /home/jose/catkin_ws/build/parrot_arsdk/arsdk/src/ARSDKBuildUtils/out/arsdk-native/build/libARController/obj/gen/Sources/ARCONTROLLER_Feature.c.o
                0x0000000000137e50                ARCONTROLLER_FEATURE_FollowMe_StateCallback
 *fill*         0x00000000001383ad        0x3 
 .text.ARCONTROLLER_FollowMe_NewCmdElementModeInfo
                0x00000000001383b0     0x1120 /home/jose/catkin_ws/build/parrot_arsdk/arsdk/src/ARSDKBuildUtils/out/arsdk-native/build/libARController/obj/gen/Sources/ARCONTROLLER_Feature.c.o
                0x00000000001383b0                ARCONTROLLER_FollowMe_NewCmdElementModeInfo
 .text.ARCONTROLLER_FEATURE_FollowMe_ModeInfoCallback
                0x00000000001394d0      0x55d /home/jose/catkin_ws/build/parrot_arsdk/arsdk/src/ARSDKBuildUtils/out/arsdk-native/build/libARController/obj/gen/Sources/ARCONTROLLER_Feature.c.o
                0x00000000001394d0                ARCONTROLLER_FEATURE_FollowMe_ModeInfoCallback
 *fill*         0x0000000000139a2d        0x3 
 .text.ARCONTROLLER_FollowMe_NewCmdElementGeographicConfig
                0x0000000000139a30     0x1448 /home/jose/catkin_ws/build/parrot_arsdk/arsdk/src/ARSDKBuildUtils/out/arsdk-native/build/libARController/obj/gen/Sources/ARCONTROLLER_Feature.c.o
                0x0000000000139a30                ARCONTROLLER_FollowMe_NewCmdElementGeographicConfig
 *fill*         0x000000000013ae78        0x8 
 .text.ARCONTROLLER_FEATURE_FollowMe_GeographicConfigCallback
                0x000000000013ae80      0x5a5 /home/jose/catkin_ws/build/parrot_arsdk/arsdk/src/ARSDKBuildUtils/out/arsdk-native/build/libARController/obj/gen/Sources/ARCONTROLLER_Feature.c.o
                0x000000000013ae80                ARCONTROLLER_FEATURE_FollowMe_GeographicConfigCallback
 *fill*         0x000000000013b425        0xb 
 .text.ARCONTROLLER_FollowMe_NewCmdElementRelativeConfig
                0x000000000013b430     0x1448 /home/jose/catkin_ws/build/parrot_arsdk/arsdk/src/ARSDKBuildUtils/out/arsdk-native/build/libARController/obj/gen/Sources/ARCONTROLLER_Feature.c.o
                0x000000000013b430                ARCONTROLLER_FollowMe_NewCmdElementRelativeConfig
 *fill*         0x000000000013c878        0x8 
 .text.ARCONTROLLER_FEATURE_FollowMe_RelativeConfigCallback
                0x000000000013c880      0x5a5 /home/jose/catkin_ws/build/parrot_arsdk/arsdk/src/ARSDKBuildUtils/out/arsdk-native/build/libARController/obj/gen/Sources/ARCONTROLLER_Feature.c.o
                0x000000000013c880                ARCONTROLLER_FEATURE_FollowMe_RelativeConfigCallback
 *fill*         0x000000000013ce25        0xb 
 .text.ARCONTROLLER_FollowMe_NewCmdElementTargetTrajectory
                0x000000000013ce30     0x1ecf /home/jose/catkin_ws/build/parrot_arsdk/arsdk/src/ARSDKBuildUtils/out/arsdk-native/build/libARController/obj/gen/Sources/ARCONTROLLER_Feature.c.o
                0x000000000013ce30                ARCONTROLLER_FollowMe_NewCmdElementTargetTrajectory
 *fill*         0x000000000013ecff        0x1 
 .text.ARCONTROLLER_FEATURE_FollowMe_TargetTrajectoryCallback
                0x000000000013ed00      0x5f5 /home/jose/catkin_ws/build/parrot_arsdk/arsdk/src/ARSDKBuildUtils/out/arsdk-native/build/libARController/obj/gen/Sources/ARCONTROLLER_Feature.c.o
                0x000000000013ed00                ARCONTROLLER_FEATURE_FollowMe_TargetTrajectoryCallback
 *fill*         0x000000000013f2f5        0xb 
 .text.ARCONTROLLER_FollowMe_NewCmdElementHelicoidAnimConfig
                0x000000000013f300     0x1448 /home/jose/catkin_ws/build/parrot_arsdk/arsdk/src/ARSDKBuildUtils/out/arsdk-native/build/libARController/obj/gen/Sources/ARCONTROLLER_Feature.c.o
                0x000000000013f300                ARCONTROLLER_FollowMe_NewCmdElementHelicoidAnimConfig
 *fill*         0x0000000000140748        0x8 
 .text.ARCONTROLLER_FEATURE_FollowMe_HelicoidAnimConfigCallback
                0x0000000000140750      0x5a5 /home/jose/catkin_ws/build/parrot_arsdk/arsdk/src/ARSDKBuildUtils/out/arsdk-native/build/libARController/obj/gen/Sources/ARCONTROLLER_Feature.c.o
                0x0000000000140750                ARCONTROLLER_FEATURE_FollowMe_HelicoidAnimConfigCallback
 *fill*         0x0000000000140cf5        0xb 
 .text.ARCONTROLLER_FollowMe_NewCmdElementSwingAnimConfig
                0x0000000000140d00      0xf1c /home/jose/catkin_ws/build/parrot_arsdk/arsdk/src/ARSDKBuildUtils/out/arsdk-native/build/libARController/obj/gen/Sources/ARCONTROLLER_Feature.c.o
                0x0000000000140d00                ARCONTROLLER_FollowMe_NewCmdElementSwingAnimConfig
 *fill*         0x0000000000141c1c        0x4 
 .text.ARCONTROLLER_FEATURE_FollowMe_SwingAnimConfigCallback
                0x0000000000141c20      0x58d /home/jose/catkin_ws/build/parrot_arsdk/arsdk/src/ARSDKBuildUtils/out/arsdk-native/build/libARController/obj/gen/Sources/ARCONTROLLER_Feature.c.o
                0x0000000000141c20                ARCONTROLLER_FEATURE_FollowMe_SwingAnimConfigCallback
 *fill*         0x00000000001421ad        0x3 
 .text.ARCONTROLLER_FollowMe_NewCmdElementBoomerangAnimConfig
                0x00000000001421b0      0xf1c /home/jose/catkin_ws/build/parrot_arsdk/arsdk/src/ARSDKBuildUtils/out/arsdk-native/build/libARController/obj/gen/Sources/ARCONTROLLER_Feature.c.o
                0x00000000001421b0                ARCONTROLLER_FollowMe_NewCmdElementBoomerangAnimConfig
 *fill*         0x00000000001430cc        0x4 
 .text.ARCONTROLLER_FEATURE_FollowMe_BoomerangAnimConfigCallback
                0x00000000001430d0      0x58d /home/jose/catkin_ws/build/parrot_arsdk/arsdk/src/ARSDKBuildUtils/out/arsdk-native/build/libARController/obj/gen/Sources/ARCONTROLLER_Feature.c.o
                0x00000000001430d0                ARCONTROLLER_FEATURE_FollowMe_BoomerangAnimConfigCallback
 *fill*         0x000000000014365d        0x3 
 .text.ARCONTROLLER_FollowMe_NewCmdElementCandleAnimConfig
                0x0000000000143660      0xf1c /home/jose/catkin_ws/build/parrot_arsdk/arsdk/src/ARSDKBuildUtils/out/arsdk-native/build/libARController/obj/gen/Sources/ARCONTROLLER_Feature.c.o
                0x0000000000143660                ARCONTROLLER_FollowMe_NewCmdElementCandleAnimConfig
 *fill*         0x000000000014457c        0x4 
 .text.ARCONTROLLER_FEATURE_FollowMe_CandleAnimConfigCallback
                0x0000000000144580      0x58d /home/jose/catkin_ws/build/parrot_arsdk/arsdk/src/ARSDKBuildUtils/out/arsdk-native/build/libARController/obj/gen/Sources/ARCONTROLLER_Feature.c.o
                0x0000000000144580                ARCONTROLLER_FEATURE_FollowMe_CandleAnimConfigCallback
 *fill*         0x0000000000144b0d        0x3 
 .text.ARCONTROLLER_FollowMe_NewCmdElementDollySlideAnimConfig
                0x0000000000144b10     0x1448 /home/jose/catkin_ws/build/parrot_arsdk/arsdk/src/ARSDKBuildUtils/out/arsdk-native/build/libARController/obj/gen/Sources/ARCONTROLLER_Feature.c.o
                0x0000000000144b10                ARCONTROLLER_FollowMe_NewCmdElementDollySlideAnimConfig
 *fill*         0x0000000000145f58        0x8 
 .text.ARCONTROLLER_FEATURE_FollowMe_DollySlideAnimConfigCallback
                0x0000000000145f60      0x5a5 /home/jose/catkin_ws/build/parrot_arsdk/arsdk/src/ARSDKBuildUtils/out/arsdk-native/build/libARController/obj/gen/Sources/ARCONTROLLER_Feature.c.o
                0x0000000000145f60                ARCONTROLLER_FEATURE_FollowMe_DollySlideAnimConfigCallback
 *fill*         0x0000000000146505        0xb 
 .text.ARCONTROLLER_FollowMe_NewCmdElementTargetFramingPositionChanged
                0x0000000000146510      0x9cc /home/jose/catkin_ws/build/parrot_arsdk/arsdk/src/ARSDKBuildUtils/out/arsdk-native/build/libARController/obj/gen/Sources/ARCONTROLLER_Feature.c.o
                0x0000000000146510                ARCONTROLLER_FollowMe_NewCmdElementTargetFramingPositionChanged
 *fill*         0x0000000000146edc        0x4 
 .text.ARCONTROLLER_FEATURE_FollowMe_TargetFramingPositionChangedCallback
                0x0000000000146ee0      0x54d /home/jose/catkin_ws/build/parrot_arsdk/arsdk/src/ARSDKBuildUtils/out/arsdk-native/build/libARController/obj/gen/Sources/ARCONTROLLER_Feature.c.o
                0x0000000000146ee0                ARCONTROLLER_FEATURE_FollowMe_TargetFramingPositionChangedCallback
 *fill*         0x000000000014742d        0x3 
 .text.ARCONTROLLER_FollowMe_NewCmdElementTargetImageDetectionState
                0x0000000000147430      0x570 /home/jose/catkin_ws/build/parrot_arsdk/arsdk/src/ARSDKBuildUtils/out/arsdk-native/build/libARController/obj/gen/Sources/ARCONTROLLER_Feature.c.o
                0x0000000000147430                ARCONTROLLER_FollowMe_NewCmdElementTargetImageDetectionState
 .text.ARCONTROLLER_FEATURE_FollowMe_TargetImageDetectionStateCallback
                0x00000000001479a0      0x54d /home/jose/catkin_ws/build/parrot_arsdk/arsdk/src/ARSDKBuildUtils/out/arsdk-native/build/libARController/obj/gen/Sources/ARCONTROLLER_Feature.c.o
                0x00000000001479a0                ARCONTROLLER_FEATURE_FollowMe_TargetImageDetectionStateCallback
 *fill*         0x0000000000147eed        0x3 
 .text.ARCONTROLLER_FEATURE_FollowMe_SetNetworkController
                0x0000000000147ef0       0x26 /home/jose/catkin_ws/build/parrot_arsdk/arsdk/src/ARSDKBuildUtils/out/arsdk-native/build/libARController/obj/gen/Sources/ARCONTROLLER_Feature.c.o
                0x0000000000147ef0                ARCONTROLLER_FEATURE_FollowMe_SetNetworkController
 *fill*         0x0000000000147f16        0xa 
 .text.ARCONTROLLER_FollowMe_GetCommandElements
                0x0000000000147f20      0x193 /home/jose/catkin_ws/build/parrot_arsdk/arsdk/src/ARSDKBuildUtils/out/arsdk-native/build/libARController/obj/gen/Sources/ARCONTROLLER_Feature.c.o
                0x0000000000147f20                ARCONTROLLER_FollowMe_GetCommandElements
 *fill*         0x00000000001480b3        0xd 
 .text.ARCONTROLLER_FEATURE_JumpingSumo_Delete
                0x00000000001480c0       0xb9 /home/jose/catkin_ws/build/parrot_arsdk/arsdk/src/ARSDKBuildUtils/out/arsdk-native/build/libARController/obj/gen/Sources/ARCONTROLLER_Feature.c.o
                0x00000000001480c0                ARCONTROLLER_FEATURE_JumpingSumo_Delete
 *fill*         0x0000000000148179        0x7 
 .text.ARCONTROLLER_FEATURE_JumpingSumo_New
                0x0000000000148180      0x247 /home/jose/catkin_ws/build/parrot_arsdk/arsdk/src/ARSDKBuildUtils/out/arsdk-native/build/libARController/obj/gen/Sources/ARCONTROLLER_Feature.c.o
                0x0000000000148180                ARCONTROLLER_FEATURE_JumpingSumo_New
 *fill*         0x00000000001483c7        0x9 
 .text.ARCONTROLLER_FEATURE_JumpingSumo_GetDictionary
                0x00000000001483d0       0x3f /home/jose/catkin_ws/build/parrot_arsdk/arsdk/src/ARSDKBuildUtils/out/arsdk-native/build/libARController/obj/gen/Sources/ARCONTROLLER_Feature.c.o
                0x00000000001483d0                ARCONTROLLER_FEATURE_JumpingSumo_GetDictionary
 *fill*         0x000000000014840f        0x1 
 .text.ARCONTROLLER_FEATURE_JumpingSumo_AddCallback
                0x0000000000148410       0x26 /home/jose/catkin_ws/build/parrot_arsdk/arsdk/src/ARSDKBuildUtils/out/arsdk-native/build/libARController/obj/gen/Sources/ARCONTROLLER_Feature.c.o
                0x0000000000148410                ARCONTROLLER_FEATURE_JumpingSumo_AddCallback
 *fill*         0x0000000000148436        0xa 
 .text.ARCONTROLLER_FEATURE_JumpingSumo_RemoveCallback
                0x0000000000148440       0x26 /home/jose/catkin_ws/build/parrot_arsdk/arsdk/src/ARSDKBuildUtils/out/arsdk-native/build/libARController/obj/gen/Sources/ARCONTROLLER_Feature.c.o
                0x0000000000148440                ARCONTROLLER_FEATURE_JumpingSumo_RemoveCallback
 *fill*         0x0000000000148466        0xa 
 .text.ARCONTROLLER_FEATURE_JumpingSumo_RegisterARCommands
                0x0000000000148470      0x38d /home/jose/catkin_ws/build/parrot_arsdk/arsdk/src/ARSDKBuildUtils/out/arsdk-native/build/libARController/obj/gen/Sources/ARCONTROLLER_Feature.c.o
                0x0000000000148470                ARCONTROLLER_FEATURE_JumpingSumo_RegisterARCommands
 *fill*         0x00000000001487fd        0x3 
 .text.ARCONTROLLER_FEATURE_JumpingSumo_UnregisterARCommands
                0x0000000000148800      0x2bd /home/jose/catkin_ws/build/parrot_arsdk/arsdk/src/ARSDKBuildUtils/out/arsdk-native/build/libARController/obj/gen/Sources/ARCONTROLLER_Feature.c.o
                0x0000000000148800                ARCONTROLLER_FEATURE_JumpingSumo_UnregisterARCommands
 *fill*         0x0000000000148abd        0x3 
 .text.ARCONTROLLER_JumpingSumo_SendPilotingPCMDStruct
                0x0000000000148ac0      0x115 /home/jose/catkin_ws/build/parrot_arsdk/arsdk/src/ARSDKBuildUtils/out/arsdk-native/build/libARController/obj/gen/Sources/ARCONTROLLER_Feature.c.o
                0x0000000000148ac0                ARCONTROLLER_JumpingSumo_SendPilotingPCMDStruct
 *fill*         0x0000000000148bd5        0xb 
 .text.ARCONTROLLER_JumpingSumo_NewCmdElementPilotingStatePostureChanged
                0x0000000000148be0      0x570 /home/jose/catkin_ws/build/parrot_arsdk/arsdk/src/ARSDKBuildUtils/out/arsdk-native/build/libARController/obj/gen/Sources/ARCONTROLLER_Feature.c.o
                0x0000000000148be0                ARCONTROLLER_JumpingSumo_NewCmdElementPilotingStatePostureChanged
 .text.ARCONTROLLER_FEATURE_JumpingSumo_PilotingStatePostureChangedCallback
                0x0000000000149150      0x56d /home/jose/catkin_ws/build/parrot_arsdk/arsdk/src/ARSDKBuildUtils/out/arsdk-native/build/libARController/obj/gen/Sources/ARCONTROLLER_Feature.c.o
                0x0000000000149150                ARCONTROLLER_FEATURE_JumpingSumo_PilotingStatePostureChangedCallback
 *fill*         0x00000000001496bd        0x3 
 .text.ARCONTROLLER_JumpingSumo_NewCmdElementPilotingStateAlertStateChanged
                0x00000000001496c0      0x570 /home/jose/catkin_ws/build/parrot_arsdk/arsdk/src/ARSDKBuildUtils/out/arsdk-native/build/libARController/obj/gen/Sources/ARCONTROLLER_Feature.c.o
                0x00000000001496c0                ARCONTROLLER_JumpingSumo_NewCmdElementPilotingStateAlertStateChanged
 .text.ARCONTROLLER_FEATURE_JumpingSumo_PilotingStateAlertStateChangedCallback
                0x0000000000149c30      0x56d /home/jose/catkin_ws/build/parrot_arsdk/arsdk/src/ARSDKBuildUtils/out/arsdk-native/build/libARController/obj/gen/Sources/ARCONTROLLER_Feature.c.o
                0x0000000000149c30                ARCONTROLLER_FEATURE_JumpingSumo_PilotingStateAlertStateChangedCallback
 *fill*         0x000000000014a19d        0x3 
 .text.ARCONTROLLER_JumpingSumo_NewCmdElementPilotingStateSpeedChanged
                0x000000000014a1a0      0x9cc /home/jose/catkin_ws/build/parrot_arsdk/arsdk/src/ARSDKBuildUtils/out/arsdk-native/build/libARController/obj/gen/Sources/ARCONTROLLER_Feature.c.o
                0x000000000014a1a0                ARCONTROLLER_JumpingSumo_NewCmdElementPilotingStateSpeedChanged
 *fill*         0x000000000014ab6c        0x4 
 .text.ARCONTROLLER_FEATURE_JumpingSumo_PilotingStateSpeedChangedCallback
                0x000000000014ab70      0x56d /home/jose/catkin_ws/build/parrot_arsdk/arsdk/src/ARSDKBuildUtils/out/arsdk-native/build/libARController/obj/gen/Sources/ARCONTROLLER_Feature.c.o
                0x000000000014ab70                ARCONTROLLER_FEATURE_JumpingSumo_PilotingStateSpeedChangedCallback
 *fill*         0x000000000014b0dd        0x3 
 .text.ARCONTROLLER_JumpingSumo_NewCmdElementAnimationsStateJumpLoadChanged
                0x000000000014b0e0      0x570 /home/jose/catkin_ws/build/parrot_arsdk/arsdk/src/ARSDKBuildUtils/out/arsdk-native/build/libARController/obj/gen/Sources/ARCONTROLLER_Feature.c.o
                0x000000000014b0e0                ARCONTROLLER_JumpingSumo_NewCmdElementAnimationsStateJumpLoadChanged
 .text.ARCONTROLLER_FEATURE_JumpingSumo_AnimationsStateJumpLoadChangedCallback
                0x000000000014b650      0x56d /home/jose/catkin_ws/build/parrot_arsdk/arsdk/src/ARSDKBuildUtils/out/arsdk-native/build/libARController/obj/gen/Sources/ARCONTROLLER_Feature.c.o
                0x000000000014b650                ARCONTROLLER_FEATURE_JumpingSumo_AnimationsStateJumpLoadChangedCallback
 *fill*         0x000000000014bbbd        0x3 
 .text.ARCONTROLLER_JumpingSumo_NewCmdElementAnimationsStateJumpTypeChanged
                0x000000000014bbc0      0x570 /home/jose/catkin_ws/build/parrot_arsdk/arsdk/src/ARSDKBuildUtils/out/arsdk-native/build/libARController/obj/gen/Sources/ARCONTROLLER_Feature.c.o
                0x000000000014bbc0                ARCONTROLLER_JumpingSumo_NewCmdElementAnimationsStateJumpTypeChanged
 .text.ARCONTROLLER_FEATURE_JumpingSumo_AnimationsStateJumpTypeChangedCallback
                0x000000000014c130      0x56d /home/jose/catkin_ws/build/parrot_arsdk/arsdk/src/ARSDKBuildUtils/out/arsdk-native/build/libARController/obj/gen/Sources/ARCONTROLLER_Feature.c.o
                0x000000000014c130                ARCONTROLLER_FEATURE_JumpingSumo_AnimationsStateJumpTypeChangedCallback
 *fill*         0x000000000014c69d        0x3 
 .text.ARCONTROLLER_JumpingSumo_NewCmdElementAnimationsStateJumpMotorProblemChanged
                0x000000000014c6a0      0x570 /home/jose/catkin_ws/build/parrot_arsdk/arsdk/src/ARSDKBuildUtils/out/arsdk-native/build/libARController/obj/gen/Sources/ARCONTROLLER_Feature.c.o
                0x000000000014c6a0                ARCONTROLLER_JumpingSumo_NewCmdElementAnimationsStateJumpMotorProblemChanged
 .text.ARCONTROLLER_FEATURE_JumpingSumo_AnimationsStateJumpMotorProblemChangedCallback
                0x000000000014cc10      0x56d /home/jose/catkin_ws/build/parrot_arsdk/arsdk/src/ARSDKBuildUtils/out/arsdk-native/build/libARController/obj/gen/Sources/ARCONTROLLER_Feature.c.o
                0x000000000014cc10                ARCONTROLLER_FEATURE_JumpingSumo_AnimationsStateJumpMotorProblemChangedCallback
 *fill*         0x000000000014d17d        0x3 
 .text.ARCONTROLLER_JumpingSumo_NewCmdElementSettingsStateProductGPSVersionChanged
                0x000000000014d180      0xa7a /home/jose/catkin_ws/build/parrot_arsdk/arsdk/src/ARSDKBuildUtils/out/arsdk-native/build/libARController/obj/gen/Sources/ARCONTROLLER_Feature.c.o
                0x000000000014d180                ARCONTROLLER_JumpingSumo_NewCmdElementSettingsStateProductGPSVersionChanged
 *fill*         0x000000000014dbfa        0x6 
 .text.ARCONTROLLER_FEATURE_JumpingSumo_SettingsStateProductGPSVersionChangedCallback
                0x000000000014dc00      0x56d /home/jose/catkin_ws/build/parrot_arsdk/arsdk/src/ARSDKBuildUtils/out/arsdk-native/build/libARController/obj/gen/Sources/ARCONTROLLER_Feature.c.o
                0x000000000014dc00                ARCONTROLLER_FEATURE_JumpingSumo_SettingsStateProductGPSVersionChangedCallback
 *fill*         0x000000000014e16d        0x3 
 .text.ARCONTROLLER_JumpingSumo_NewCmdElementMediaRecordStatePictureStateChanged
                0x000000000014e170      0x9cc /home/jose/catkin_ws/build/parrot_arsdk/arsdk/src/ARSDKBuildUtils/out/arsdk-native/build/libARController/obj/gen/Sources/ARCONTROLLER_Feature.c.o
                0x000000000014e170                ARCONTROLLER_JumpingSumo_NewCmdElementMediaRecordStatePictureStateChanged
 *fill*         0x000000000014eb3c        0x4 
 .text.ARCONTROLLER_FEATURE_JumpingSumo_MediaRecordStatePictureStateChangedCallback
                0x000000000014eb40      0x56d /home/jose/catkin_ws/build/parrot_arsdk/arsdk/src/ARSDKBuildUtils/out/arsdk-native/build/libARController/obj/gen/Sources/ARCONTROLLER_Feature.c.o
                0x000000000014eb40                ARCONTROLLER_FEATURE_JumpingSumo_MediaRecordStatePictureStateChangedCallback
 *fill*         0x000000000014f0ad        0x3 
 .text.ARCONTROLLER_JumpingSumo_NewCmdElementMediaRecordStateVideoStateChanged
                0x000000000014f0b0      0x9cc /home/jose/catkin_ws/build/parrot_arsdk/arsdk/src/ARSDKBuildUtils/out/arsdk-native/build/libARController/obj/gen/Sources/ARCONTROLLER_Feature.c.o
                0x000000000014f0b0                ARCONTROLLER_JumpingSumo_NewCmdElementMediaRecordStateVideoStateChanged
 *fill*         0x000000000014fa7c        0x4 
 .text.ARCONTROLLER_FEATURE_JumpingSumo_MediaRecordStateVideoStateChangedCallback
                0x000000000014fa80      0x56d /home/jose/catkin_ws/build/parrot_arsdk/arsdk/src/ARSDKBuildUtils/out/arsdk-native/build/libARController/obj/gen/Sources/ARCONTROLLER_Feature.c.o
                0x000000000014fa80                ARCONTROLLER_FEATURE_JumpingSumo_MediaRecordStateVideoStateChangedCallback
 *fill*         0x000000000014ffed        0x3 
 .text.ARCONTROLLER_JumpingSumo_NewCmdElementMediaRecordStatePictureStateChangedV2
                0x000000000014fff0      0x9cc /home/jose/catkin_ws/build/parrot_arsdk/arsdk/src/ARSDKBuildUtils/out/arsdk-native/build/libARController/obj/gen/Sources/ARCONTROLLER_Feature.c.o
                0x000000000014fff0                ARCONTROLLER_JumpingSumo_NewCmdElementMediaRecordStatePictureStateChangedV2
 *fill*         0x00000000001509bc        0x4 
 .text.ARCONTROLLER_FEATURE_JumpingSumo_MediaRecordStatePictureStateChangedV2Callback
                0x00000000001509c0      0x56d /home/jose/catkin_ws/build/parrot_arsdk/arsdk/src/ARSDKBuildUtils/out/arsdk-native/build/libARController/obj/gen/Sources/ARCONTROLLER_Feature.c.o
                0x00000000001509c0                ARCONTROLLER_FEATURE_JumpingSumo_MediaRecordStatePictureStateChangedV2Callback
 *fill*         0x0000000000150f2d        0x3 
 .text.ARCONTROLLER_JumpingSumo_NewCmdElementMediaRecordStateVideoStateChangedV2
                0x0000000000150f30      0x9cc /home/jose/catkin_ws/build/parrot_arsdk/arsdk/src/ARSDKBuildUtils/out/arsdk-native/build/libARController/obj/gen/Sources/ARCONTROLLER_Feature.c.o
                0x0000000000150f30                ARCONTROLLER_JumpingSumo_NewCmdElementMediaRecordStateVideoStateChangedV2
 *fill*         0x00000000001518fc        0x4 
 .text.ARCONTROLLER_FEATURE_JumpingSumo_MediaRecordStateVideoStateChangedV2Callback
                0x0000000000151900      0x56d /home/jose/catkin_ws/build/parrot_arsdk/arsdk/src/ARSDKBuildUtils/out/arsdk-native/build/libARController/obj/gen/Sources/ARCONTROLLER_Feature.c.o
                0x0000000000151900                ARCONTROLLER_FEATURE_JumpingSumo_MediaRecordStateVideoStateChangedV2Callback
 *fill*         0x0000000000151e6d        0x3 
 .text.ARCONTROLLER_JumpingSumo_NewCmdElementMediaRecordEventPictureEventChanged
                0x0000000000151e70      0x9cc /home/jose/catkin_ws/build/parrot_arsdk/arsdk/src/ARSDKBuildUtils/out/arsdk-native/build/libARController/obj/gen/Sources/ARCONTROLLER_Feature.c.o
                0x0000000000151e70                ARCONTROLLER_JumpingSumo_NewCmdElementMediaRecordEventPictureEventChanged
 *fill*         0x000000000015283c        0x4 
 .text.ARCONTROLLER_FEATURE_JumpingSumo_MediaRecordEventPictureEventChangedCallback
                0x0000000000152840      0x56d /home/jose/catkin_ws/build/parrot_arsdk/arsdk/src/ARSDKBuildUtils/out/arsdk-native/build/libARController/obj/gen/Sources/ARCONTROLLER_Feature.c.o
                0x0000000000152840                ARCONTROLLER_FEATURE_JumpingSumo_MediaRecordEventPictureEventChangedCallback
 *fill*         0x0000000000152dad        0x3 
 .text.ARCONTROLLER_JumpingSumo_NewCmdElementMediaRecordEventVideoEventChanged
                0x0000000000152db0      0x9cc /home/jose/catkin_ws/build/parrot_arsdk/arsdk/src/ARSDKBuildUtils/out/arsdk-native/build/libARController/obj/gen/Sources/ARCONTROLLER_Feature.c.o
                0x0000000000152db0                ARCONTROLLER_JumpingSumo_NewCmdElementMediaRecordEventVideoEventChanged
 *fill*         0x000000000015377c        0x4 
 .text.ARCONTROLLER_FEATURE_JumpingSumo_MediaRecordEventVideoEventChangedCallback
                0x0000000000153780      0x56d /home/jose/catkin_ws/build/parrot_arsdk/arsdk/src/ARSDKBuildUtils/out/arsdk-native/build/libARController/obj/gen/Sources/ARCONTROLLER_Feature.c.o
                0x0000000000153780                ARCONTROLLER_FEATURE_JumpingSumo_MediaRecordEventVideoEventChangedCallback
 *fill*         0x0000000000153ced        0x3 
 .text.ARCONTROLLER_JumpingSumo_NewCmdElementNetworkSettingsStateWifiSelectionChanged
                0x0000000000153cf0      0xf1b /home/jose/catkin_ws/build/parrot_arsdk/arsdk/src/ARSDKBuildUtils/out/arsdk-native/build/libARController/obj/gen/Sources/ARCONTROLLER_Feature.c.o
                0x0000000000153cf0                ARCONTROLLER_JumpingSumo_NewCmdElementNetworkSettingsStateWifiSelectionChanged
 *fill*         0x0000000000154c0b        0x5 
 .text.ARCONTROLLER_FEATURE_JumpingSumo_NetworkSettingsStateWifiSelectionChangedCallback
                0x0000000000154c10      0x56d /home/jose/catkin_ws/build/parrot_arsdk/arsdk/src/ARSDKBuildUtils/out/arsdk-native/build/libARController/obj/gen/Sources/ARCONTROLLER_Feature.c.o
                0x0000000000154c10                ARCONTROLLER_FEATURE_JumpingSumo_NetworkSettingsStateWifiSelectionChangedCallback
 *fill*         0x000000000015517d        0x3 
 .text.ARCONTROLLER_JumpingSumo_NewCmdElementNetworkStateWifiScanListChanged
                0x0000000000155180     0x1466 /home/jose/catkin_ws/build/parrot_arsdk/arsdk/src/ARSDKBuildUtils/out/arsdk-native/build/libARController/obj/gen/Sources/ARCONTROLLER_Feature.c.o
                0x0000000000155180                ARCONTROLLER_JumpingSumo_NewCmdElementNetworkStateWifiScanListChanged
 *fill*         0x00000000001565e6        0xa 
 .text.ARCONTROLLER_FEATURE_JumpingSumo_NetworkStateWifiScanListChangedCallback
                0x00000000001565f0      0x57d /home/jose/catkin_ws/build/parrot_arsdk/arsdk/src/ARSDKBuildUtils/out/arsdk-native/build/libARController/obj/gen/Sources/ARCONTROLLER_Feature.c.o
                0x00000000001565f0                ARCONTROLLER_FEATURE_JumpingSumo_NetworkStateWifiScanListChangedCallback
 *fill*         0x0000000000156b6d        0x3 
 .text.ARCONTROLLER_JumpingSumo_NewCmdElementNetworkStateAllWifiScanChanged
                0x0000000000156b70       0xb3 /home/jose/catkin_ws/build/parrot_arsdk/arsdk/src/ARSDKBuildUtils/out/arsdk-native/build/libARController/obj/gen/Sources/ARCONTROLLER_Feature.c.o
                0x0000000000156b70                ARCONTROLLER_JumpingSumo_NewCmdElementNetworkStateAllWifiScanChanged
 *fill*         0x0000000000156c23        0xd 
 .text.ARCONTROLLER_FEATURE_JumpingSumo_NetworkStateAllWifiScanChangedCallback
                0x0000000000156c30      0x55d /home/jose/catkin_ws/build/parrot_arsdk/arsdk/src/ARSDKBuildUtils/out/arsdk-native/build/libARController/obj/gen/Sources/ARCONTROLLER_Feature.c.o
                0x0000000000156c30                ARCONTROLLER_FEATURE_JumpingSumo_NetworkStateAllWifiScanChangedCallback
 *fill*         0x000000000015718d        0x3 
 .text.ARCONTROLLER_JumpingSumo_NewCmdElementNetworkStateWifiAuthChannelListChanged
                0x0000000000157190     0x111d /home/jose/catkin_ws/build/parrot_arsdk/arsdk/src/ARSDKBuildUtils/out/arsdk-native/build/libARController/obj/gen/Sources/ARCONTROLLER_Feature.c.o
                0x0000000000157190                ARCONTROLLER_JumpingSumo_NewCmdElementNetworkStateWifiAuthChannelListChanged
 *fill*         0x00000000001582ad        0x3 
 .text.ARCONTROLLER_FEATURE_JumpingSumo_NetworkStateWifiAuthChannelListChangedCallback
                0x00000000001582b0      0x585 /home/jose/catkin_ws/build/parrot_arsdk/arsdk/src/ARSDKBuildUtils/out/arsdk-native/build/libARController/obj/gen/Sources/ARCONTROLLER_Feature.c.o
                0x00000000001582b0                ARCONTROLLER_FEATURE_JumpingSumo_NetworkStateWifiAuthChannelListChangedCallback
 *fill*         0x0000000000158835        0xb 
 .text.ARCONTROLLER_JumpingSumo_NewCmdElementNetworkStateAllWifiAuthChannelChanged
                0x0000000000158840        0x9 /home/jose/catkin_ws/build/parrot_arsdk/arsdk/src/ARSDKBuildUtils/out/arsdk-native/build/libARController/obj/gen/Sources/ARCONTROLLER_Feature.c.o
                0x0000000000158840                ARCONTROLLER_JumpingSumo_NewCmdElementNetworkStateAllWifiAuthChannelChanged
 *fill*         0x0000000000158849        0x7 
 .text.ARCONTROLLER_FEATURE_JumpingSumo_NetworkStateAllWifiAuthChannelChangedCallback
                0x0000000000158850      0x55d /home/jose/catkin_ws/build/parrot_arsdk/arsdk/src/ARSDKBuildUtils/out/arsdk-native/build/libARController/obj/gen/Sources/ARCONTROLLER_Feature.c.o
                0x0000000000158850                ARCONTROLLER_FEATURE_JumpingSumo_NetworkStateAllWifiAuthChannelChangedCallback
 *fill*         0x0000000000158dad        0x3 
 .text.ARCONTROLLER_JumpingSumo_NewCmdElementNetworkStateLinkQualityChanged
                0x0000000000158db0      0x570 /home/jose/catkin_ws/build/parrot_arsdk/arsdk/src/ARSDKBuildUtils/out/arsdk-native/build/libARController/obj/gen/Sources/ARCONTROLLER_Feature.c.o
                0x0000000000158db0                ARCONTROLLER_JumpingSumo_NewCmdElementNetworkStateLinkQualityChanged
 .text.ARCONTROLLER_FEATURE_JumpingSumo_NetworkStateLinkQualityChangedCallback
                0x0000000000159320      0x56d /home/jose/catkin_ws/build/parrot_arsdk/arsdk/src/ARSDKBuildUtils/out/arsdk-native/build/libARController/obj/gen/Sources/ARCONTROLLER_Feature.c.o
                0x0000000000159320                ARCONTROLLER_FEATURE_JumpingSumo_NetworkStateLinkQualityChangedCallback
 *fill*         0x000000000015988d        0x3 
 .text.ARCONTROLLER_JumpingSumo_NewCmdElementAudioSettingsStateMasterVolumeChanged
                0x0000000000159890      0x570 /home/jose/catkin_ws/build/parrot_arsdk/arsdk/src/ARSDKBuildUtils/out/arsdk-native/build/libARController/obj/gen/Sources/ARCONTROLLER_Feature.c.o
                0x0000000000159890                ARCONTROLLER_JumpingSumo_NewCmdElementAudioSettingsStateMasterVolumeChanged
 .text.ARCONTROLLER_FEATURE_JumpingSumo_AudioSettingsStateMasterVolumeChangedCallback
                0x0000000000159e00      0x56d /home/jose/catkin_ws/build/parrot_arsdk/arsdk/src/ARSDKBuildUtils/out/arsdk-native/build/libARController/obj/gen/Sources/ARCONTROLLER_Feature.c.o
                0x0000000000159e00                ARCONTROLLER_FEATURE_JumpingSumo_AudioSettingsStateMasterVolumeChangedCallback
 *fill*         0x000000000015a36d        0x3 
 .text.ARCONTROLLER_JumpingSumo_NewCmdElementAudioSettingsStateThemeChanged
                0x000000000015a370      0x570 /home/jose/catkin_ws/build/parrot_arsdk/arsdk/src/ARSDKBuildUtils/out/arsdk-native/build/libARController/obj/gen/Sources/ARCONTROLLER_Feature.c.o
                0x000000000015a370                ARCONTROLLER_JumpingSumo_NewCmdElementAudioSettingsStateThemeChanged
 .text.ARCONTROLLER_FEATURE_JumpingSumo_AudioSettingsStateThemeChangedCallback
                0x000000000015a8e0      0x56d /home/jose/catkin_ws/build/parrot_arsdk/arsdk/src/ARSDKBuildUtils/out/arsdk-native/build/libARController/obj/gen/Sources/ARCONTROLLER_Feature.c.o
                0x000000000015a8e0                ARCONTROLLER_FEATURE_JumpingSumo_AudioSettingsStateThemeChangedCallback
 *fill*         0x000000000015ae4d        0x3 
 .text.ARCONTROLLER_JumpingSumo_NewCmdElementRoadPlanStateScriptMetadataListChanged
                0x000000000015ae50     0x19bf /home/jose/catkin_ws/build/parrot_arsdk/arsdk/src/ARSDKBuildUtils/out/arsdk-native/build/libARController/obj/gen/Sources/ARCONTROLLER_Feature.c.o
                0x000000000015ae50                ARCONTROLLER_JumpingSumo_NewCmdElementRoadPlanStateScriptMetadataListChanged
 *fill*         0x000000000015c80f        0x1 
 .text.ARCONTROLLER_FEATURE_JumpingSumo_RoadPlanStateScriptMetadataListChangedCallback
                0x000000000015c810      0x598 /home/jose/catkin_ws/build/parrot_arsdk/arsdk/src/ARSDKBuildUtils/out/arsdk-native/build/libARController/obj/gen/Sources/ARCONTROLLER_Feature.c.o
                0x000000000015c810                ARCONTROLLER_FEATURE_JumpingSumo_RoadPlanStateScriptMetadataListChangedCallback
 *fill*         0x000000000015cda8        0x8 
 .text.ARCONTROLLER_JumpingSumo_NewCmdElementRoadPlanStateAllScriptsMetadataChanged
                0x000000000015cdb0        0x9 /home/jose/catkin_ws/build/parrot_arsdk/arsdk/src/ARSDKBuildUtils/out/arsdk-native/build/libARController/obj/gen/Sources/ARCONTROLLER_Feature.c.o
                0x000000000015cdb0                ARCONTROLLER_JumpingSumo_NewCmdElementRoadPlanStateAllScriptsMetadataChanged
 *fill*         0x000000000015cdb9        0x7 
 .text.ARCONTROLLER_FEATURE_JumpingSumo_RoadPlanStateAllScriptsMetadataChangedCallback
                0x000000000015cdc0      0x55d /home/jose/catkin_ws/build/parrot_arsdk/arsdk/src/ARSDKBuildUtils/out/arsdk-native/build/libARController/obj/gen/Sources/ARCONTROLLER_Feature.c.o
                0x000000000015cdc0                ARCONTROLLER_FEATURE_JumpingSumo_RoadPlanStateAllScriptsMetadataChangedCallback
 *fill*         0x000000000015d31d        0x3 
 .text.ARCONTROLLER_JumpingSumo_NewCmdElementRoadPlanStateScriptUploadChanged
                0x000000000015d320      0x570 /home/jose/catkin_ws/build/parrot_arsdk/arsdk/src/ARSDKBuildUtils/out/arsdk-native/build/libARController/obj/gen/Sources/ARCONTROLLER_Feature.c.o
                0x000000000015d320                ARCONTROLLER_JumpingSumo_NewCmdElementRoadPlanStateScriptUploadChanged
 .text.ARCONTROLLER_FEATURE_JumpingSumo_RoadPlanStateScriptUploadChangedCallback
                0x000000000015d890      0x56d /home/jose/catkin_ws/build/parrot_arsdk/arsdk/src/ARSDKBuildUtils/out/arsdk-native/build/libARController/obj/gen/Sources/ARCONTROLLER_Feature.c.o
                0x000000000015d890                ARCONTROLLER_FEATURE_JumpingSumo_RoadPlanStateScriptUploadChangedCallback
 *fill*         0x000000000015ddfd        0x3 
 .text.ARCONTROLLER_JumpingSumo_NewCmdElementRoadPlanStateScriptDeleteChanged
                0x000000000015de00      0x570 /home/jose/catkin_ws/build/parrot_arsdk/arsdk/src/ARSDKBuildUtils/out/arsdk-native/build/libARController/obj/gen/Sources/ARCONTROLLER_Feature.c.o
                0x000000000015de00                ARCONTROLLER_JumpingSumo_NewCmdElementRoadPlanStateScriptDeleteChanged
 .text.ARCONTROLLER_FEATURE_JumpingSumo_RoadPlanStateScriptDeleteChangedCallback
                0x000000000015e370      0x56d /home/jose/catkin_ws/build/parrot_arsdk/arsdk/src/ARSDKBuildUtils/out/arsdk-native/build/libARController/obj/gen/Sources/ARCONTROLLER_Feature.c.o
                0x000000000015e370                ARCONTROLLER_FEATURE_JumpingSumo_RoadPlanStateScriptDeleteChangedCallback
 *fill*         0x000000000015e8dd        0x3 
 .text.ARCONTROLLER_JumpingSumo_NewCmdElementRoadPlanStatePlayScriptChanged
                0x000000000015e8e0      0x570 /home/jose/catkin_ws/build/parrot_arsdk/arsdk/src/ARSDKBuildUtils/out/arsdk-native/build/libARController/obj/gen/Sources/ARCONTROLLER_Feature.c.o
                0x000000000015e8e0                ARCONTROLLER_JumpingSumo_NewCmdElementRoadPlanStatePlayScriptChanged
 .text.ARCONTROLLER_FEATURE_JumpingSumo_RoadPlanStatePlayScriptChangedCallback
                0x000000000015ee50      0x56d /home/jose/catkin_ws/build/parrot_arsdk/arsdk/src/ARSDKBuildUtils/out/arsdk-native/build/libARController/obj/gen/Sources/ARCONTROLLER_Feature.c.o
                0x000000000015ee50                ARCONTROLLER_FEATURE_JumpingSumo_RoadPlanStatePlayScriptChangedCallback
 *fill*         0x000000000015f3bd        0x3 
 .text.ARCONTROLLER_JumpingSumo_NewCmdElementSpeedSettingsStateOutdoorChanged
                0x000000000015f3c0      0x570 /home/jose/catkin_ws/build/parrot_arsdk/arsdk/src/ARSDKBuildUtils/out/arsdk-native/build/libARController/obj/gen/Sources/ARCONTROLLER_Feature.c.o
                0x000000000015f3c0                ARCONTROLLER_JumpingSumo_NewCmdElementSpeedSettingsStateOutdoorChanged
 .text.ARCONTROLLER_FEATURE_JumpingSumo_SpeedSettingsStateOutdoorChangedCallback
                0x000000000015f930      0x56d /home/jose/catkin_ws/build/parrot_arsdk/arsdk/src/ARSDKBuildUtils/out/arsdk-native/build/libARController/obj/gen/Sources/ARCONTROLLER_Feature.c.o
                0x000000000015f930                ARCONTROLLER_FEATURE_JumpingSumo_SpeedSettingsStateOutdoorChangedCallback
 *fill*         0x000000000015fe9d        0x3 
 .text.ARCONTROLLER_JumpingSumo_NewCmdElementMediaStreamingStateVideoEnableChanged
                0x000000000015fea0      0x570 /home/jose/catkin_ws/build/parrot_arsdk/arsdk/src/ARSDKBuildUtils/out/arsdk-native/build/libARController/obj/gen/Sources/ARCONTROLLER_Feature.c.o
                0x000000000015fea0                ARCONTROLLER_JumpingSumo_NewCmdElementMediaStreamingStateVideoEnableChanged
 .text.ARCONTROLLER_FEATURE_JumpingSumo_MediaStreamingStateVideoEnableChangedCallback
                0x0000000000160410      0x56d /home/jose/catkin_ws/build/parrot_arsdk/arsdk/src/ARSDKBuildUtils/out/arsdk-native/build/libARController/obj/gen/Sources/ARCONTROLLER_Feature.c.o
                0x0000000000160410                ARCONTROLLER_FEATURE_JumpingSumo_MediaStreamingStateVideoEnableChangedCallback
 *fill*         0x000000000016097d        0x3 
 .text.ARCONTROLLER_JumpingSumo_NewCmdElementVideoSettingsStateAutorecordChanged
                0x0000000000160980      0x570 /home/jose/catkin_ws/build/parrot_arsdk/arsdk/src/ARSDKBuildUtils/out/arsdk-native/build/libARController/obj/gen/Sources/ARCONTROLLER_Feature.c.o
                0x0000000000160980                ARCONTROLLER_JumpingSumo_NewCmdElementVideoSettingsStateAutorecordChanged
 .text.ARCONTROLLER_FEATURE_JumpingSumo_VideoSettingsStateAutorecordChangedCallback
                0x0000000000160ef0      0x56d /home/jose/catkin_ws/build/parrot_arsdk/arsdk/src/ARSDKBuildUtils/out/arsdk-native/build/libARController/obj/gen/Sources/ARCONTROLLER_Feature.c.o
                0x0000000000160ef0                ARCONTROLLER_FEATURE_JumpingSumo_VideoSettingsStateAutorecordChangedCallback
 *fill*         0x000000000016145d        0x3 
 .text.ARCONTROLLER_FEATURE_JumpingSumo_SetNetworkController
                0x0000000000161460       0x26 /home/jose/catkin_ws/build/parrot_arsdk/arsdk/src/ARSDKBuildUtils/out/arsdk-native/build/libARController/obj/gen/Sources/ARCONTROLLER_Feature.c.o
                0x0000000000161460                ARCONTROLLER_FEATURE_JumpingSumo_SetNetworkController
 *fill*         0x0000000000161486        0xa 
 .text.ARCONTROLLER_JumpingSumo_GetCommandElements
                0x0000000000161490      0x1a3 /home/jose/catkin_ws/build/parrot_arsdk/arsdk/src/ARSDKBuildUtils/out/arsdk-native/build/libARController/obj/gen/Sources/ARCONTROLLER_Feature.c.o
                0x0000000000161490                ARCONTROLLER_JumpingSumo_GetCommandElements
 *fill*         0x0000000000161633        0xd 
 .text.ARCONTROLLER_FEATURE_Mapper_Delete
                0x0000000000161640       0x81 /home/jose/catkin_ws/build/parrot_arsdk/arsdk/src/ARSDKBuildUtils/out/arsdk-native/build/libARController/obj/gen/Sources/ARCONTROLLER_Feature.c.o
                0x0000000000161640                ARCONTROLLER_FEATURE_Mapper_Delete
 *fill*         0x00000000001616c1        0xf 
 .text.ARCONTROLLER_FEATURE_Mapper_New
                0x00000000001616d0       0xfb /home/jose/catkin_ws/build/parrot_arsdk/arsdk/src/ARSDKBuildUtils/out/arsdk-native/build/libARController/obj/gen/Sources/ARCONTROLLER_Feature.c.o
                0x00000000001616d0                ARCONTROLLER_FEATURE_Mapper_New
 *fill*         0x00000000001617cb        0x5 
 .text.ARCONTROLLER_FEATURE_Mapper_GetDictionary
                0x00000000001617d0       0x37 /home/jose/catkin_ws/build/parrot_arsdk/arsdk/src/ARSDKBuildUtils/out/arsdk-native/build/libARController/obj/gen/Sources/ARCONTROLLER_Feature.c.o
                0x00000000001617d0                ARCONTROLLER_FEATURE_Mapper_GetDictionary
 *fill*         0x0000000000161807        0x9 
 .text.ARCONTROLLER_FEATURE_Mapper_AddCallback
                0x0000000000161810       0x26 /home/jose/catkin_ws/build/parrot_arsdk/arsdk/src/ARSDKBuildUtils/out/arsdk-native/build/libARController/obj/gen/Sources/ARCONTROLLER_Feature.c.o
                0x0000000000161810                ARCONTROLLER_FEATURE_Mapper_AddCallback
 *fill*         0x0000000000161836        0xa 
 .text.ARCONTROLLER_FEATURE_Mapper_RemoveCallback
                0x0000000000161840       0x26 /home/jose/catkin_ws/build/parrot_arsdk/arsdk/src/ARSDKBuildUtils/out/arsdk-native/build/libARController/obj/gen/Sources/ARCONTROLLER_Feature.c.o
                0x0000000000161840                ARCONTROLLER_FEATURE_Mapper_RemoveCallback
 *fill*         0x0000000000161866        0xa 
 .text.ARCONTROLLER_FEATURE_Mapper_RegisterARCommands
                0x0000000000161870      0x145 /home/jose/catkin_ws/build/parrot_arsdk/arsdk/src/ARSDKBuildUtils/out/arsdk-native/build/libARController/obj/gen/Sources/ARCONTROLLER_Feature.c.o
                0x0000000000161870                ARCONTROLLER_FEATURE_Mapper_RegisterARCommands
 *fill*         0x00000000001619b5        0xb 
 .text.ARCONTROLLER_FEATURE_Mapper_UnregisterARCommands
                0x00000000001619c0       0xfd /home/jose/catkin_ws/build/parrot_arsdk/arsdk/src/ARSDKBuildUtils/out/arsdk-native/build/libARController/obj/gen/Sources/ARCONTROLLER_Feature.c.o
                0x00000000001619c0                ARCONTROLLER_FEATURE_Mapper_UnregisterARCommands
 *fill*         0x0000000000161abd        0x3 
 .text.ARCONTROLLER_Mapper_NewCmdElementGrabState
                0x0000000000161ac0      0xf1b /home/jose/catkin_ws/build/parrot_arsdk/arsdk/src/ARSDKBuildUtils/out/arsdk-native/build/libARController/obj/gen/Sources/ARCONTROLLER_Feature.c.o
                0x0000000000161ac0                ARCONTROLLER_Mapper_NewCmdElementGrabState
 *fill*         0x00000000001629db        0x5 
 .text.ARCONTROLLER_FEATURE_Mapper_GrabStateCallback
                0x00000000001629e0      0x55d /home/jose/catkin_ws/build/parrot_arsdk/arsdk/src/ARSDKBuildUtils/out/arsdk-native/build/libARController/obj/gen/Sources/ARCONTROLLER_Feature.c.o
                0x00000000001629e0                ARCONTROLLER_FEATURE_Mapper_GrabStateCallback
 *fill*         0x0000000000162f3d        0x3 
 .text.ARCONTROLLER_Mapper_NewCmdElementGrabButtonEvent
                0x0000000000162f40      0x9cc /home/jose/catkin_ws/build/parrot_arsdk/arsdk/src/ARSDKBuildUtils/out/arsdk-native/build/libARController/obj/gen/Sources/ARCONTROLLER_Feature.c.o
                0x0000000000162f40                ARCONTROLLER_Mapper_NewCmdElementGrabButtonEvent
 *fill*         0x000000000016390c        0x4 
 .text.ARCONTROLLER_FEATURE_Mapper_GrabButtonEventCallback
                0x0000000000163910      0x54d /home/jose/catkin_ws/build/parrot_arsdk/arsdk/src/ARSDKBuildUtils/out/arsdk-native/build/libARController/obj/gen/Sources/ARCONTROLLER_Feature.c.o
                0x0000000000163910                ARCONTROLLER_FEATURE_Mapper_GrabButtonEventCallback
 *fill*         0x0000000000163e5d        0x3 
 .text.ARCONTROLLER_Mapper_NewCmdElementGrabAxisEvent
                0x0000000000163e60      0x9cc /home/jose/catkin_ws/build/parrot_arsdk/arsdk/src/ARSDKBuildUtils/out/arsdk-native/build/libARController/obj/gen/Sources/ARCONTROLLER_Feature.c.o
                0x0000000000163e60                ARCONTROLLER_Mapper_NewCmdElementGrabAxisEvent
 *fill*         0x000000000016482c        0x4 
 .text.ARCONTROLLER_FEATURE_Mapper_GrabAxisEventCallback
                0x0000000000164830      0x54d /home/jose/catkin_ws/build/parrot_arsdk/arsdk/src/ARSDKBuildUtils/out/arsdk-native/build/libARController/obj/gen/Sources/ARCONTROLLER_Feature.c.o
                0x0000000000164830                ARCONTROLLER_FEATURE_Mapper_GrabAxisEventCallback
 *fill*         0x0000000000164d7d        0x3 
 .text.ARCONTROLLER_Mapper_NewCmdElementButtonMappingItem
                0x0000000000164d80     0x1593 /home/jose/catkin_ws/build/parrot_arsdk/arsdk/src/ARSDKBuildUtils/out/arsdk-native/build/libARController/obj/gen/Sources/ARCONTROLLER_Feature.c.o
                0x0000000000164d80                ARCONTROLLER_Mapper_NewCmdElementButtonMappingItem
 *fill*         0x0000000000166313        0xd 
 .text.ARCONTROLLER_FEATURE_Mapper_ButtonMappingItemCallback
                0x0000000000166320      0xd46 /home/jose/catkin_ws/build/parrot_arsdk/arsdk/src/ARSDKBuildUtils/out/arsdk-native/build/libARController/obj/gen/Sources/ARCONTROLLER_Feature.c.o
                0x0000000000166320                ARCONTROLLER_FEATURE_Mapper_ButtonMappingItemCallback
 *fill*         0x0000000000167066        0xa 
 .text.ARCONTROLLER_Mapper_NewCmdElementAxisMappingItem
                0x0000000000167070     0x1a79 /home/jose/catkin_ws/build/parrot_arsdk/arsdk/src/ARSDKBuildUtils/out/arsdk-native/build/libARController/obj/gen/Sources/ARCONTROLLER_Feature.c.o
                0x0000000000167070                ARCONTROLLER_Mapper_NewCmdElementAxisMappingItem
 *fill*         0x0000000000168ae9        0x7 
 .text.ARCONTROLLER_FEATURE_Mapper_AxisMappingItemCallback
                0x0000000000168af0      0xd66 /home/jose/catkin_ws/build/parrot_arsdk/arsdk/src/ARSDKBuildUtils/out/arsdk-native/build/libARController/obj/gen/Sources/ARCONTROLLER_Feature.c.o
                0x0000000000168af0                ARCONTROLLER_FEATURE_Mapper_AxisMappingItemCallback
 *fill*         0x0000000000169856        0xa 
 .text.ARCONTROLLER_Mapper_NewCmdElementApplicationAxisEvent
                0x0000000000169860      0x9cc /home/jose/catkin_ws/build/parrot_arsdk/arsdk/src/ARSDKBuildUtils/out/arsdk-native/build/libARController/obj/gen/Sources/ARCONTROLLER_Feature.c.o
                0x0000000000169860                ARCONTROLLER_Mapper_NewCmdElementApplicationAxisEvent
 *fill*         0x000000000016a22c        0x4 
 .text.ARCONTROLLER_FEATURE_Mapper_ApplicationAxisEventCallback
                0x000000000016a230      0x54d /home/jose/catkin_ws/build/parrot_arsdk/arsdk/src/ARSDKBuildUtils/out/arsdk-native/build/libARController/obj/gen/Sources/ARCONTROLLER_Feature.c.o
                0x000000000016a230                ARCONTROLLER_FEATURE_Mapper_ApplicationAxisEventCallback
 *fill*         0x000000000016a77d        0x3 
 .text.ARCONTROLLER_Mapper_NewCmdElementApplicationButtonEvent
                0x000000000016a780      0x570 /home/jose/catkin_ws/build/parrot_arsdk/arsdk/src/ARSDKBuildUtils/out/arsdk-native/build/libARController/obj/gen/Sources/ARCONTROLLER_Feature.c.o
                0x000000000016a780                ARCONTROLLER_Mapper_NewCmdElementApplicationButtonEvent
 .text.ARCONTROLLER_FEATURE_Mapper_ApplicationButtonEventCallback
                0x000000000016acf0      0x54d /home/jose/catkin_ws/build/parrot_arsdk/arsdk/src/ARSDKBuildUtils/out/arsdk-native/build/libARController/obj/gen/Sources/ARCONTROLLER_Feature.c.o
                0x000000000016acf0                ARCONTROLLER_FEATURE_Mapper_ApplicationButtonEventCallback
 *fill*         0x000000000016b23d        0x3 
 .text.ARCONTROLLER_Mapper_NewCmdElementExpoMapItem
                0x000000000016b240     0x1593 /home/jose/catkin_ws/build/parrot_arsdk/arsdk/src/ARSDKBuildUtils/out/arsdk-native/build/libARController/obj/gen/Sources/ARCONTROLLER_Feature.c.o
                0x000000000016b240                ARCONTROLLER_Mapper_NewCmdElementExpoMapItem
 *fill*         0x000000000016c7d3        0xd 
 .text.ARCONTROLLER_FEATURE_Mapper_ExpoMapItemCallback
                0x000000000016c7e0      0xd46 /home/jose/catkin_ws/build/parrot_arsdk/arsdk/src/ARSDKBuildUtils/out/arsdk-native/build/libARController/obj/gen/Sources/ARCONTROLLER_Feature.c.o
                0x000000000016c7e0                ARCONTROLLER_FEATURE_Mapper_ExpoMapItemCallback
 *fill*         0x000000000016d526        0xa 
 .text.ARCONTROLLER_Mapper_NewCmdElementInvertedMapItem
                0x000000000016d530     0x1593 /home/jose/catkin_ws/build/parrot_arsdk/arsdk/src/ARSDKBuildUtils/out/arsdk-native/build/libARController/obj/gen/Sources/ARCONTROLLER_Feature.c.o
                0x000000000016d530                ARCONTROLLER_Mapper_NewCmdElementInvertedMapItem
 *fill*         0x000000000016eac3        0xd 
 .text.ARCONTROLLER_FEATURE_Mapper_InvertedMapItemCallback
                0x000000000016ead0      0xd1c /home/jose/catkin_ws/build/parrot_arsdk/arsdk/src/ARSDKBuildUtils/out/arsdk-native/build/libARController/obj/gen/Sources/ARCONTROLLER_Feature.c.o
                0x000000000016ead0                ARCONTROLLER_FEATURE_Mapper_InvertedMapItemCallback
 *fill*         0x000000000016f7ec        0x4 
 .text.ARCONTROLLER_Mapper_NewCmdElementActiveProduct
                0x000000000016f7f0      0x570 /home/jose/catkin_ws/build/parrot_arsdk/arsdk/src/ARSDKBuildUtils/out/arsdk-native/build/libARController/obj/gen/Sources/ARCONTROLLER_Feature.c.o
                0x000000000016f7f0                ARCONTROLLER_Mapper_NewCmdElementActiveProduct
 .text.ARCONTROLLER_FEATURE_Mapper_ActiveProductCallback
                0x000000000016fd60      0x54d /home/jose/catkin_ws/build/parrot_arsdk/arsdk/src/ARSDKBuildUtils/out/arsdk-native/build/libARController/obj/gen/Sources/ARCONTROLLER_Feature.c.o
                0x000000000016fd60                ARCONTROLLER_FEATURE_Mapper_ActiveProductCallback
 *fill*         0x00000000001702ad        0x3 
 .text.ARCONTROLLER_FEATURE_Mapper_SetNetworkController
                0x00000000001702b0       0x26 /home/jose/catkin_ws/build/parrot_arsdk/arsdk/src/ARSDKBuildUtils/out/arsdk-native/build/libARController/obj/gen/Sources/ARCONTROLLER_Feature.c.o
                0x00000000001702b0                ARCONTROLLER_FEATURE_Mapper_SetNetworkController
 *fill*         0x00000000001702d6        0xa 
 .text.ARCONTROLLER_Mapper_GetCommandElements
                0x00000000001702e0      0x193 /home/jose/catkin_ws/build/parrot_arsdk/arsdk/src/ARSDKBuildUtils/out/arsdk-native/build/libARController/obj/gen/Sources/ARCONTROLLER_Feature.c.o
                0x00000000001702e0                ARCONTROLLER_Mapper_GetCommandElements
 *fill*         0x0000000000170473        0xd 
 .text.ARCONTROLLER_FEATURE_MapperMini_Delete
                0x0000000000170480       0x81 /home/jose/catkin_ws/build/parrot_arsdk/arsdk/src/ARSDKBuildUtils/out/arsdk-native/build/libARController/obj/gen/Sources/ARCONTROLLER_Feature.c.o
                0x0000000000170480                ARCONTROLLER_FEATURE_MapperMini_Delete
 *fill*         0x0000000000170501        0xf 
 .text.ARCONTROLLER_FEATURE_MapperMini_New
                0x0000000000170510       0xdb /home/jose/catkin_ws/build/parrot_arsdk/arsdk/src/ARSDKBuildUtils/out/arsdk-native/build/libARController/obj/gen/Sources/ARCONTROLLER_Feature.c.o
                0x0000000000170510                ARCONTROLLER_FEATURE_MapperMini_New
 *fill*         0x00000000001705eb        0x5 
 .text.ARCONTROLLER_FEATURE_MapperMini_GetDictionary
                0x00000000001705f0       0x37 /home/jose/catkin_ws/build/parrot_arsdk/arsdk/src/ARSDKBuildUtils/out/arsdk-native/build/libARController/obj/gen/Sources/ARCONTROLLER_Feature.c.o
                0x00000000001705f0                ARCONTROLLER_FEATURE_MapperMini_GetDictionary
 *fill*         0x0000000000170627        0x9 
 .text.ARCONTROLLER_FEATURE_MapperMini_AddCallback
                0x0000000000170630       0x26 /home/jose/catkin_ws/build/parrot_arsdk/arsdk/src/ARSDKBuildUtils/out/arsdk-native/build/libARController/obj/gen/Sources/ARCONTROLLER_Feature.c.o
                0x0000000000170630                ARCONTROLLER_FEATURE_MapperMini_AddCallback
 *fill*         0x0000000000170656        0xa 
 .text.ARCONTROLLER_FEATURE_MapperMini_RemoveCallback
                0x0000000000170660       0x26 /home/jose/catkin_ws/build/parrot_arsdk/arsdk/src/ARSDKBuildUtils/out/arsdk-native/build/libARController/obj/gen/Sources/ARCONTROLLER_Feature.c.o
                0x0000000000170660                ARCONTROLLER_FEATURE_MapperMini_RemoveCallback
 *fill*         0x0000000000170686        0xa 
 .text.ARCONTROLLER_FEATURE_MapperMini_RegisterARCommands
                0x0000000000170690       0x65 /home/jose/catkin_ws/build/parrot_arsdk/arsdk/src/ARSDKBuildUtils/out/arsdk-native/build/libARController/obj/gen/Sources/ARCONTROLLER_Feature.c.o
                0x0000000000170690                ARCONTROLLER_FEATURE_MapperMini_RegisterARCommands
 *fill*         0x00000000001706f5        0xb 
 .text.ARCONTROLLER_FEATURE_MapperMini_UnregisterARCommands
                0x0000000000170700       0x5d /home/jose/catkin_ws/build/parrot_arsdk/arsdk/src/ARSDKBuildUtils/out/arsdk-native/build/libARController/obj/gen/Sources/ARCONTROLLER_Feature.c.o
                0x0000000000170700                ARCONTROLLER_FEATURE_MapperMini_UnregisterARCommands
 *fill*         0x000000000017075d        0x3 
 .text.ARCONTROLLER_MapperMini_NewCmdElementButtonMappingItem
                0x0000000000170760     0x1593 /home/jose/catkin_ws/build/parrot_arsdk/arsdk/src/ARSDKBuildUtils/out/arsdk-native/build/libARController/obj/gen/Sources/ARCONTROLLER_Feature.c.o
                0x0000000000170760                ARCONTROLLER_MapperMini_NewCmdElementButtonMappingItem
 *fill*         0x0000000000171cf3        0xd 
 .text.ARCONTROLLER_FEATURE_MapperMini_ButtonMappingItemCallback
                0x0000000000171d00      0xd26 /home/jose/catkin_ws/build/parrot_arsdk/arsdk/src/ARSDKBuildUtils/out/arsdk-native/build/libARController/obj/gen/Sources/ARCONTROLLER_Feature.c.o
                0x0000000000171d00                ARCONTROLLER_FEATURE_MapperMini_ButtonMappingItemCallback
 *fill*         0x0000000000172a26        0xa 
 .text.ARCONTROLLER_MapperMini_NewCmdElementAxisMappingItem
                0x0000000000172a30     0x1a79 /home/jose/catkin_ws/build/parrot_arsdk/arsdk/src/ARSDKBuildUtils/out/arsdk-native/build/libARController/obj/gen/Sources/ARCONTROLLER_Feature.c.o
                0x0000000000172a30                ARCONTROLLER_MapperMini_NewCmdElementAxisMappingItem
 *fill*         0x00000000001744a9        0x7 
 .text.ARCONTROLLER_FEATURE_MapperMini_AxisMappingItemCallback
                0x00000000001744b0      0xd56 /home/jose/catkin_ws/build/parrot_arsdk/arsdk/src/ARSDKBuildUtils/out/arsdk-native/build/libARController/obj/gen/Sources/ARCONTROLLER_Feature.c.o
                0x00000000001744b0                ARCONTROLLER_FEATURE_MapperMini_AxisMappingItemCallback
 *fill*         0x0000000000175206        0xa 
 .text.ARCONTROLLER_FEATURE_MapperMini_SetNetworkController
                0x0000000000175210       0x26 /home/jose/catkin_ws/build/parrot_arsdk/arsdk/src/ARSDKBuildUtils/out/arsdk-native/build/libARController/obj/gen/Sources/ARCONTROLLER_Feature.c.o
                0x0000000000175210                ARCONTROLLER_FEATURE_MapperMini_SetNetworkController
 *fill*         0x0000000000175236        0xa 
 .text.ARCONTROLLER_MapperMini_GetCommandElements
                0x0000000000175240      0x193 /home/jose/catkin_ws/build/parrot_arsdk/arsdk/src/ARSDKBuildUtils/out/arsdk-native/build/libARController/obj/gen/Sources/ARCONTROLLER_Feature.c.o
                0x0000000000175240                ARCONTROLLER_MapperMini_GetCommandElements
 *fill*         0x00000000001753d3        0xd 
 .text.ARCONTROLLER_FEATURE_MiniDrone_Delete
                0x00000000001753e0       0xb9 /home/jose/catkin_ws/build/parrot_arsdk/arsdk/src/ARSDKBuildUtils/out/arsdk-native/build/libARController/obj/gen/Sources/ARCONTROLLER_Feature.c.o
                0x00000000001753e0                ARCONTROLLER_FEATURE_MiniDrone_Delete
 *fill*         0x0000000000175499        0x7 
 .text.ARCONTROLLER_FEATURE_MiniDrone_New
                0x00000000001754a0      0x337 /home/jose/catkin_ws/build/parrot_arsdk/arsdk/src/ARSDKBuildUtils/out/arsdk-native/build/libARController/obj/gen/Sources/ARCONTROLLER_Feature.c.o
                0x00000000001754a0                ARCONTROLLER_FEATURE_MiniDrone_New
 *fill*         0x00000000001757d7        0x9 
 .text.ARCONTROLLER_FEATURE_MiniDrone_GetDictionary
                0x00000000001757e0       0x3f /home/jose/catkin_ws/build/parrot_arsdk/arsdk/src/ARSDKBuildUtils/out/arsdk-native/build/libARController/obj/gen/Sources/ARCONTROLLER_Feature.c.o
                0x00000000001757e0                ARCONTROLLER_FEATURE_MiniDrone_GetDictionary
 *fill*         0x000000000017581f        0x1 
 .text.ARCONTROLLER_FEATURE_MiniDrone_AddCallback
                0x0000000000175820       0x26 /home/jose/catkin_ws/build/parrot_arsdk/arsdk/src/ARSDKBuildUtils/out/arsdk-native/build/libARController/obj/gen/Sources/ARCONTROLLER_Feature.c.o
                0x0000000000175820                ARCONTROLLER_FEATURE_MiniDrone_AddCallback
 *fill*         0x0000000000175846        0xa 
 .text.ARCONTROLLER_FEATURE_MiniDrone_RemoveCallback
                0x0000000000175850       0x26 /home/jose/catkin_ws/build/parrot_arsdk/arsdk/src/ARSDKBuildUtils/out/arsdk-native/build/libARController/obj/gen/Sources/ARCONTROLLER_Feature.c.o
                0x0000000000175850                ARCONTROLLER_FEATURE_MiniDrone_RemoveCallback
 *fill*         0x0000000000175876        0xa 
 .text.ARCONTROLLER_FEATURE_MiniDrone_RegisterARCommands
                0x0000000000175880      0x505 /home/jose/catkin_ws/build/parrot_arsdk/arsdk/src/ARSDKBuildUtils/out/arsdk-native/build/libARController/obj/gen/Sources/ARCONTROLLER_Feature.c.o
                0x0000000000175880                ARCONTROLLER_FEATURE_MiniDrone_RegisterARCommands
 *fill*         0x0000000000175d85        0xb 
 .text.ARCONTROLLER_FEATURE_MiniDrone_UnregisterARCommands
                0x0000000000175d90      0x3dd /home/jose/catkin_ws/build/parrot_arsdk/arsdk/src/ARSDKBuildUtils/out/arsdk-native/build/libARController/obj/gen/Sources/ARCONTROLLER_Feature.c.o
                0x0000000000175d90                ARCONTROLLER_FEATURE_MiniDrone_UnregisterARCommands
 *fill*         0x000000000017616d        0x3 
 .text.ARCONTROLLER_MiniDrone_SendPilotingPCMDStruct
                0x0000000000176170      0x135 /home/jose/catkin_ws/build/parrot_arsdk/arsdk/src/ARSDKBuildUtils/out/arsdk-native/build/libARController/obj/gen/Sources/ARCONTROLLER_Feature.c.o
                0x0000000000176170                ARCONTROLLER_MiniDrone_SendPilotingPCMDStruct
 *fill*         0x00000000001762a5        0xb 
 .text.ARCONTROLLER_MiniDrone_NewCmdElementPilotingStateFlatTrimChanged
                0x00000000001762b0       0xb3 /home/jose/catkin_ws/build/parrot_arsdk/arsdk/src/ARSDKBuildUtils/out/arsdk-native/build/libARController/obj/gen/Sources/ARCONTROLLER_Feature.c.o
                0x00000000001762b0                ARCONTROLLER_MiniDrone_NewCmdElementPilotingStateFlatTrimChanged
 *fill*         0x0000000000176363        0xd 
 .text.ARCONTROLLER_FEATURE_MiniDrone_PilotingStateFlatTrimChangedCallback
                0x0000000000176370      0x55d /home/jose/catkin_ws/build/parrot_arsdk/arsdk/src/ARSDKBuildUtils/out/arsdk-native/build/libARController/obj/gen/Sources/ARCONTROLLER_Feature.c.o
                0x0000000000176370                ARCONTROLLER_FEATURE_MiniDrone_PilotingStateFlatTrimChangedCallback
 *fill*         0x00000000001768cd        0x3 
 .text.ARCONTROLLER_MiniDrone_NewCmdElementPilotingStateFlyingStateChanged
                0x00000000001768d0      0x570 /home/jose/catkin_ws/build/parrot_arsdk/arsdk/src/ARSDKBuildUtils/out/arsdk-native/build/libARController/obj/gen/Sources/ARCONTROLLER_Feature.c.o
                0x00000000001768d0                ARCONTROLLER_MiniDrone_NewCmdElementPilotingStateFlyingStateChanged
 .text.ARCONTROLLER_FEATURE_MiniDrone_PilotingStateFlyingStateChangedCallback
                0x0000000000176e40      0x56d /home/jose/catkin_ws/build/parrot_arsdk/arsdk/src/ARSDKBuildUtils/out/arsdk-native/build/libARController/obj/gen/Sources/ARCONTROLLER_Feature.c.o
                0x0000000000176e40                ARCONTROLLER_FEATURE_MiniDrone_PilotingStateFlyingStateChangedCallback
 *fill*         0x00000000001773ad        0x3 
 .text.ARCONTROLLER_MiniDrone_NewCmdElementPilotingStateAlertStateChanged
                0x00000000001773b0      0x570 /home/jose/catkin_ws/build/parrot_arsdk/arsdk/src/ARSDKBuildUtils/out/arsdk-native/build/libARController/obj/gen/Sources/ARCONTROLLER_Feature.c.o
                0x00000000001773b0                ARCONTROLLER_MiniDrone_NewCmdElementPilotingStateAlertStateChanged
 .text.ARCONTROLLER_FEATURE_MiniDrone_PilotingStateAlertStateChangedCallback
                0x0000000000177920      0x56d /home/jose/catkin_ws/build/parrot_arsdk/arsdk/src/ARSDKBuildUtils/out/arsdk-native/build/libARController/obj/gen/Sources/ARCONTROLLER_Feature.c.o
                0x0000000000177920                ARCONTROLLER_FEATURE_MiniDrone_PilotingStateAlertStateChangedCallback
 *fill*         0x0000000000177e8d        0x3 
 .text.ARCONTROLLER_MiniDrone_NewCmdElementPilotingStateAutoTakeOffModeChanged
                0x0000000000177e90      0x570 /home/jose/catkin_ws/build/parrot_arsdk/arsdk/src/ARSDKBuildUtils/out/arsdk-native/build/libARController/obj/gen/Sources/ARCONTROLLER_Feature.c.o
                0x0000000000177e90                ARCONTROLLER_MiniDrone_NewCmdElementPilotingStateAutoTakeOffModeChanged
 .text.ARCONTROLLER_FEATURE_MiniDrone_PilotingStateAutoTakeOffModeChangedCallback
                0x0000000000178400      0x56d /home/jose/catkin_ws/build/parrot_arsdk/arsdk/src/ARSDKBuildUtils/out/arsdk-native/build/libARController/obj/gen/Sources/ARCONTROLLER_Feature.c.o
                0x0000000000178400                ARCONTROLLER_FEATURE_MiniDrone_PilotingStateAutoTakeOffModeChangedCallback
 *fill*         0x000000000017896d        0x3 
 .text.ARCONTROLLER_MiniDrone_NewCmdElementPilotingStateFlyingModeChanged
                0x0000000000178970      0x570 /home/jose/catkin_ws/build/parrot_arsdk/arsdk/src/ARSDKBuildUtils/out/arsdk-native/build/libARController/obj/gen/Sources/ARCONTROLLER_Feature.c.o
                0x0000000000178970                ARCONTROLLER_MiniDrone_NewCmdElementPilotingStateFlyingModeChanged
 .text.ARCONTROLLER_FEATURE_MiniDrone_PilotingStateFlyingModeChangedCallback
                0x0000000000178ee0      0x56d /home/jose/catkin_ws/build/parrot_arsdk/arsdk/src/ARSDKBuildUtils/out/arsdk-native/build/libARController/obj/gen/Sources/ARCONTROLLER_Feature.c.o
                0x0000000000178ee0                ARCONTROLLER_FEATURE_MiniDrone_PilotingStateFlyingModeChangedCallback
 *fill*         0x000000000017944d        0x3 
 .text.ARCONTROLLER_MiniDrone_NewCmdElementPilotingStatePlaneGearBoxChanged
                0x0000000000179450      0x570 /home/jose/catkin_ws/build/parrot_arsdk/arsdk/src/ARSDKBuildUtils/out/arsdk-native/build/libARController/obj/gen/Sources/ARCONTROLLER_Feature.c.o
                0x0000000000179450                ARCONTROLLER_MiniDrone_NewCmdElementPilotingStatePlaneGearBoxChanged
 .text.ARCONTROLLER_FEATURE_MiniDrone_PilotingStatePlaneGearBoxChangedCallback
                0x00000000001799c0      0x56d /home/jose/catkin_ws/build/parrot_arsdk/arsdk/src/ARSDKBuildUtils/out/arsdk-native/build/libARController/obj/gen/Sources/ARCONTROLLER_Feature.c.o
                0x00000000001799c0                ARCONTROLLER_FEATURE_MiniDrone_PilotingStatePlaneGearBoxChangedCallback
 *fill*         0x0000000000179f2d        0x3 
 .text.ARCONTROLLER_MiniDrone_NewCmdElementPilotingStatePilotingModeChanged
                0x0000000000179f30      0x570 /home/jose/catkin_ws/build/parrot_arsdk/arsdk/src/ARSDKBuildUtils/out/arsdk-native/build/libARController/obj/gen/Sources/ARCONTROLLER_Feature.c.o
                0x0000000000179f30                ARCONTROLLER_MiniDrone_NewCmdElementPilotingStatePilotingModeChanged
 .text.ARCONTROLLER_FEATURE_MiniDrone_PilotingStatePilotingModeChangedCallback
                0x000000000017a4a0      0x56d /home/jose/catkin_ws/build/parrot_arsdk/arsdk/src/ARSDKBuildUtils/out/arsdk-native/build/libARController/obj/gen/Sources/ARCONTROLLER_Feature.c.o
                0x000000000017a4a0                ARCONTROLLER_FEATURE_MiniDrone_PilotingStatePilotingModeChangedCallback
 *fill*         0x000000000017aa0d        0x3 
 .text.ARCONTROLLER_MiniDrone_NewCmdElementMediaRecordStatePictureStateChanged
                0x000000000017aa10      0x9cc /home/jose/catkin_ws/build/parrot_arsdk/arsdk/src/ARSDKBuildUtils/out/arsdk-native/build/libARController/obj/gen/Sources/ARCONTROLLER_Feature.c.o
                0x000000000017aa10                ARCONTROLLER_MiniDrone_NewCmdElementMediaRecordStatePictureStateChanged
 *fill*         0x000000000017b3dc        0x4 
 .text.ARCONTROLLER_FEATURE_MiniDrone_MediaRecordStatePictureStateChangedCallback
                0x000000000017b3e0      0x56d /home/jose/catkin_ws/build/parrot_arsdk/arsdk/src/ARSDKBuildUtils/out/arsdk-native/build/libARController/obj/gen/Sources/ARCONTROLLER_Feature.c.o
                0x000000000017b3e0                ARCONTROLLER_FEATURE_MiniDrone_MediaRecordStatePictureStateChangedCallback
 *fill*         0x000000000017b94d        0x3 
 .text.ARCONTROLLER_MiniDrone_NewCmdElementMediaRecordStatePictureStateChangedV2
                0x000000000017b950      0x9cc /home/jose/catkin_ws/build/parrot_arsdk/arsdk/src/ARSDKBuildUtils/out/arsdk-native/build/libARController/obj/gen/Sources/ARCONTROLLER_Feature.c.o
                0x000000000017b950                ARCONTROLLER_MiniDrone_NewCmdElementMediaRecordStatePictureStateChangedV2
 *fill*         0x000000000017c31c        0x4 
 .text.ARCONTROLLER_FEATURE_MiniDrone_MediaRecordStatePictureStateChangedV2Callback
                0x000000000017c320      0x56d /home/jose/catkin_ws/build/parrot_arsdk/arsdk/src/ARSDKBuildUtils/out/arsdk-native/build/libARController/obj/gen/Sources/ARCONTROLLER_Feature.c.o
                0x000000000017c320                ARCONTROLLER_FEATURE_MiniDrone_MediaRecordStatePictureStateChangedV2Callback
 *fill*         0x000000000017c88d        0x3 
 .text.ARCONTROLLER_MiniDrone_NewCmdElementMediaRecordEventPictureEventChanged
                0x000000000017c890      0x9cc /home/jose/catkin_ws/build/parrot_arsdk/arsdk/src/ARSDKBuildUtils/out/arsdk-native/build/libARController/obj/gen/Sources/ARCONTROLLER_Feature.c.o
                0x000000000017c890                ARCONTROLLER_MiniDrone_NewCmdElementMediaRecordEventPictureEventChanged
 *fill*         0x000000000017d25c        0x4 
 .text.ARCONTROLLER_FEATURE_MiniDrone_MediaRecordEventPictureEventChangedCallback
                0x000000000017d260      0x56d /home/jose/catkin_ws/build/parrot_arsdk/arsdk/src/ARSDKBuildUtils/out/arsdk-native/build/libARController/obj/gen/Sources/ARCONTROLLER_Feature.c.o
                0x000000000017d260                ARCONTROLLER_FEATURE_MiniDrone_MediaRecordEventPictureEventChangedCallback
 *fill*         0x000000000017d7cd        0x3 
 .text.ARCONTROLLER_MiniDrone_NewCmdElementPilotingSettingsStateMaxAltitudeChanged
                0x000000000017d7d0      0xf2c /home/jose/catkin_ws/build/parrot_arsdk/arsdk/src/ARSDKBuildUtils/out/arsdk-native/build/libARController/obj/gen/Sources/ARCONTROLLER_Feature.c.o
                0x000000000017d7d0                ARCONTROLLER_MiniDrone_NewCmdElementPilotingSettingsStateMaxAltitudeChanged
 *fill*         0x000000000017e6fc        0x4 
 .text.ARCONTROLLER_FEATURE_MiniDrone_PilotingSettingsStateMaxAltitudeChangedCallback
                0x000000000017e700      0x5bd /home/jose/catkin_ws/build/parrot_arsdk/arsdk/src/ARSDKBuildUtils/out/arsdk-native/build/libARController/obj/gen/Sources/ARCONTROLLER_Feature.c.o
                0x000000000017e700                ARCONTROLLER_FEATURE_MiniDrone_PilotingSettingsStateMaxAltitudeChangedCallback
 *fill*         0x000000000017ecbd        0x3 
 .text.ARCONTROLLER_MiniDrone_NewCmdElementPilotingSettingsStateMaxTiltChanged
                0x000000000017ecc0      0xf2c /home/jose/catkin_ws/build/parrot_arsdk/arsdk/src/ARSDKBuildUtils/out/arsdk-native/build/libARController/obj/gen/Sources/ARCONTROLLER_Feature.c.o
                0x000000000017ecc0                ARCONTROLLER_MiniDrone_NewCmdElementPilotingSettingsStateMaxTiltChanged
 *fill*         0x000000000017fbec        0x4 
 .text.ARCONTROLLER_FEATURE_MiniDrone_PilotingSettingsStateMaxTiltChangedCallback
                0x000000000017fbf0      0x5bd /home/jose/catkin_ws/build/parrot_arsdk/arsdk/src/ARSDKBuildUtils/out/arsdk-native/build/libARController/obj/gen/Sources/ARCONTROLLER_Feature.c.o
                0x000000000017fbf0                ARCONTROLLER_FEATURE_MiniDrone_PilotingSettingsStateMaxTiltChangedCallback
 *fill*         0x00000000001801ad        0x3 
 .text.ARCONTROLLER_MiniDrone_NewCmdElementPilotingSettingsStateBankedTurnChanged
                0x00000000001801b0      0x570 /home/jose/catkin_ws/build/parrot_arsdk/arsdk/src/ARSDKBuildUtils/out/arsdk-native/build/libARController/obj/gen/Sources/ARCONTROLLER_Feature.c.o
                0x00000000001801b0                ARCONTROLLER_MiniDrone_NewCmdElementPilotingSettingsStateBankedTurnChanged
 .text.ARCONTROLLER_FEATURE_MiniDrone_PilotingSettingsStateBankedTurnChangedCallback
                0x0000000000180720      0x56d /home/jose/catkin_ws/build/parrot_arsdk/arsdk/src/ARSDKBuildUtils/out/arsdk-native/build/libARController/obj/gen/Sources/ARCONTROLLER_Feature.c.o
                0x0000000000180720                ARCONTROLLER_FEATURE_MiniDrone_PilotingSettingsStateBankedTurnChangedCallback
 *fill*         0x0000000000180c8d        0x3 
 .text.ARCONTROLLER_MiniDrone_NewCmdElementPilotingSettingsStateMaxThrottleChanged
                0x0000000000180c90      0x590 /home/jose/catkin_ws/build/parrot_arsdk/arsdk/src/ARSDKBuildUtils/out/arsdk-native/build/libARController/obj/gen/Sources/ARCONTROLLER_Feature.c.o
                0x0000000000180c90                ARCONTROLLER_MiniDrone_NewCmdElementPilotingSettingsStateMaxThrottleChanged
 .text.ARCONTROLLER_FEATURE_MiniDrone_PilotingSettingsStateMaxThrottleChangedCallback
                0x0000000000181220      0x57d /home/jose/catkin_ws/build/parrot_arsdk/arsdk/src/ARSDKBuildUtils/out/arsdk-native/build/libARController/obj/gen/Sources/ARCONTROLLER_Feature.c.o
                0x0000000000181220                ARCONTROLLER_FEATURE_MiniDrone_PilotingSettingsStateMaxThrottleChangedCallback
 *fill*         0x000000000018179d        0x3 
 .text.ARCONTROLLER_MiniDrone_NewCmdElementPilotingSettingsStatePreferredPilotingModeChanged
                0x00000000001817a0      0x570 /home/jose/catkin_ws/build/parrot_arsdk/arsdk/src/ARSDKBuildUtils/out/arsdk-native/build/libARController/obj/gen/Sources/ARCONTROLLER_Feature.c.o
                0x00000000001817a0                ARCONTROLLER_MiniDrone_NewCmdElementPilotingSettingsStatePreferredPilotingModeChanged
 .text.ARCONTROLLER_FEATURE_MiniDrone_PilotingSettingsStatePreferredPilotingModeChangedCallback
                0x0000000000181d10      0x56d /home/jose/catkin_ws/build/parrot_arsdk/arsdk/src/ARSDKBuildUtils/out/arsdk-native/build/libARController/obj/gen/Sources/ARCONTROLLER_Feature.c.o
                0x0000000000181d10                ARCONTROLLER_FEATURE_MiniDrone_PilotingSettingsStatePreferredPilotingModeChangedCallback
 *fill*         0x000000000018227d        0x3 
 .text.ARCONTROLLER_MiniDrone_NewCmdElementSpeedSettingsStateMaxVerticalSpeedChanged
                0x0000000000182280      0xf2c /home/jose/catkin_ws/build/parrot_arsdk/arsdk/src/ARSDKBuildUtils/out/arsdk-native/build/libARController/obj/gen/Sources/ARCONTROLLER_Feature.c.o
                0x0000000000182280                ARCONTROLLER_MiniDrone_NewCmdElementSpeedSettingsStateMaxVerticalSpeedChanged
 *fill*         0x00000000001831ac        0x4 
 .text.ARCONTROLLER_FEATURE_MiniDrone_SpeedSettingsStateMaxVerticalSpeedChangedCallback
                0x00000000001831b0      0x5bd /home/jose/catkin_ws/build/parrot_arsdk/arsdk/src/ARSDKBuildUtils/out/arsdk-native/build/libARController/obj/gen/Sources/ARCONTROLLER_Feature.c.o
                0x00000000001831b0                ARCONTROLLER_FEATURE_MiniDrone_SpeedSettingsStateMaxVerticalSpeedChangedCallback
 *fill*         0x000000000018376d        0x3 
 .text.ARCONTROLLER_MiniDrone_NewCmdElementSpeedSettingsStateMaxRotationSpeedChanged
                0x0000000000183770      0xf2c /home/jose/catkin_ws/build/parrot_arsdk/arsdk/src/ARSDKBuildUtils/out/arsdk-native/build/libARController/obj/gen/Sources/ARCONTROLLER_Feature.c.o
                0x0000000000183770                ARCONTROLLER_MiniDrone_NewCmdElementSpeedSettingsStateMaxRotationSpeedChanged
 *fill*         0x000000000018469c        0x4 
 .text.ARCONTROLLER_FEATURE_MiniDrone_SpeedSettingsStateMaxRotationSpeedChangedCallback
                0x00000000001846a0      0x5bd /home/jose/catkin_ws/build/parrot_arsdk/arsdk/src/ARSDKBuildUtils/out/arsdk-native/build/libARController/obj/gen/Sources/ARCONTROLLER_Feature.c.o
                0x00000000001846a0                ARCONTROLLER_FEATURE_MiniDrone_SpeedSettingsStateMaxRotationSpeedChangedCallback
 *fill*         0x0000000000184c5d        0x3 
 .text.ARCONTROLLER_MiniDrone_NewCmdElementSpeedSettingsStateWheelsChanged
                0x0000000000184c60      0x570 /home/jose/catkin_ws/build/parrot_arsdk/arsdk/src/ARSDKBuildUtils/out/arsdk-native/build/libARController/obj/gen/Sources/ARCONTROLLER_Feature.c.o
                0x0000000000184c60                ARCONTROLLER_MiniDrone_NewCmdElementSpeedSettingsStateWheelsChanged
 .text.ARCONTROLLER_FEATURE_MiniDrone_SpeedSettingsStateWheelsChangedCallback
                0x00000000001851d0      0x56d /home/jose/catkin_ws/build/parrot_arsdk/arsdk/src/ARSDKBuildUtils/out/arsdk-native/build/libARController/obj/gen/Sources/ARCONTROLLER_Feature.c.o
                0x00000000001851d0                ARCONTROLLER_FEATURE_MiniDrone_SpeedSettingsStateWheelsChangedCallback
 *fill*         0x000000000018573d        0x3 
 .text.ARCONTROLLER_MiniDrone_NewCmdElementSpeedSettingsStateMaxHorizontalSpeedChanged
                0x0000000000185740      0xf2c /home/jose/catkin_ws/build/parrot_arsdk/arsdk/src/ARSDKBuildUtils/out/arsdk-native/build/libARController/obj/gen/Sources/ARCONTROLLER_Feature.c.o
                0x0000000000185740                ARCONTROLLER_MiniDrone_NewCmdElementSpeedSettingsStateMaxHorizontalSpeedChanged
 *fill*         0x000000000018666c        0x4 
 .text.ARCONTROLLER_FEATURE_MiniDrone_SpeedSettingsStateMaxHorizontalSpeedChangedCallback
                0x0000000000186670      0x5bd /home/jose/catkin_ws/build/parrot_arsdk/arsdk/src/ARSDKBuildUtils/out/arsdk-native/build/libARController/obj/gen/Sources/ARCONTROLLER_Feature.c.o
                0x0000000000186670                ARCONTROLLER_FEATURE_MiniDrone_SpeedSettingsStateMaxHorizontalSpeedChangedCallback
 *fill*         0x0000000000186c2d        0x3 
 .text.ARCONTROLLER_MiniDrone_NewCmdElementSpeedSettingsStateMaxPlaneModeRotationSpeedChanged
                0x0000000000186c30      0xf2c /home/jose/catkin_ws/build/parrot_arsdk/arsdk/src/ARSDKBuildUtils/out/arsdk-native/build/libARController/obj/gen/Sources/ARCONTROLLER_Feature.c.o
                0x0000000000186c30                ARCONTROLLER_MiniDrone_NewCmdElementSpeedSettingsStateMaxPlaneModeRotationSpeedChanged
 *fill*         0x0000000000187b5c        0x4 
 .text.ARCONTROLLER_FEATURE_MiniDrone_SpeedSettingsStateMaxPlaneModeRotationSpeedChangedCallback
                0x0000000000187b60      0x5bd /home/jose/catkin_ws/build/parrot_arsdk/arsdk/src/ARSDKBuildUtils/out/arsdk-native/build/libARController/obj/gen/Sources/ARCONTROLLER_Feature.c.o
                0x0000000000187b60                ARCONTROLLER_FEATURE_MiniDrone_SpeedSettingsStateMaxPlaneModeRotationSpeedChangedCallback
 *fill*         0x000000000018811d        0x3 
 .text.ARCONTROLLER_MiniDrone_NewCmdElementSettingsStateProductMotorsVersionChanged
                0x0000000000188120     0x14ca /home/jose/catkin_ws/build/parrot_arsdk/arsdk/src/ARSDKBuildUtils/out/arsdk-native/build/libARController/obj/gen/Sources/ARCONTROLLER_Feature.c.o
                0x0000000000188120                ARCONTROLLER_MiniDrone_NewCmdElementSettingsStateProductMotorsVersionChanged
 *fill*         0x00000000001895ea        0x6 
 .text.ARCONTROLLER_FEATURE_MiniDrone_SettingsStateProductMotorsVersionChangedCallback
                0x00000000001895f0      0x57d /home/jose/catkin_ws/build/parrot_arsdk/arsdk/src/ARSDKBuildUtils/out/arsdk-native/build/libARController/obj/gen/Sources/ARCONTROLLER_Feature.c.o
                0x00000000001895f0                ARCONTROLLER_FEATURE_MiniDrone_SettingsStateProductMotorsVersionChangedCallback
 *fill*         0x0000000000189b6d        0x3 
 .text.ARCONTROLLER_MiniDrone_NewCmdElementSettingsStateProductInertialVersionChanged
                0x0000000000189b70      0xa7a /home/jose/catkin_ws/build/parrot_arsdk/arsdk/src/ARSDKBuildUtils/out/arsdk-native/build/libARController/obj/gen/Sources/ARCONTROLLER_Feature.c.o
                0x0000000000189b70                ARCONTROLLER_MiniDrone_NewCmdElementSettingsStateProductInertialVersionChanged
 *fill*         0x000000000018a5ea        0x6 
 .text.ARCONTROLLER_FEATURE_MiniDrone_SettingsStateProductInertialVersionChangedCallback
                0x000000000018a5f0      0x56d /home/jose/catkin_ws/build/parrot_arsdk/arsdk/src/ARSDKBuildUtils/out/arsdk-native/build/libARController/obj/gen/Sources/ARCONTROLLER_Feature.c.o
                0x000000000018a5f0                ARCONTROLLER_FEATURE_MiniDrone_SettingsStateProductInertialVersionChangedCallback
 *fill*         0x000000000018ab5d        0x3 
 .text.ARCONTROLLER_MiniDrone_NewCmdElementSettingsStateCutOutModeChanged
                0x000000000018ab60      0x570 /home/jose/catkin_ws/build/parrot_arsdk/arsdk/src/ARSDKBuildUtils/out/arsdk-native/build/libARController/obj/gen/Sources/ARCONTROLLER_Feature.c.o
                0x000000000018ab60                ARCONTROLLER_MiniDrone_NewCmdElementSettingsStateCutOutModeChanged
 .text.ARCONTROLLER_FEATURE_MiniDrone_SettingsStateCutOutModeChangedCallback
                0x000000000018b0d0      0x56d /home/jose/catkin_ws/build/parrot_arsdk/arsdk/src/ARSDKBuildUtils/out/arsdk-native/build/libARController/obj/gen/Sources/ARCONTROLLER_Feature.c.o
                0x000000000018b0d0                ARCONTROLLER_FEATURE_MiniDrone_SettingsStateCutOutModeChangedCallback
 *fill*         0x000000000018b63d        0x3 
 .text.ARCONTROLLER_MiniDrone_NewCmdElementFloodControlStateFloodControlChanged
                0x000000000018b640      0x570 /home/jose/catkin_ws/build/parrot_arsdk/arsdk/src/ARSDKBuildUtils/out/arsdk-native/build/libARController/obj/gen/Sources/ARCONTROLLER_Feature.c.o
                0x000000000018b640                ARCONTROLLER_MiniDrone_NewCmdElementFloodControlStateFloodControlChanged
 .text.ARCONTROLLER_FEATURE_MiniDrone_FloodControlStateFloodControlChangedCallback
                0x000000000018bbb0      0x56d /home/jose/catkin_ws/build/parrot_arsdk/arsdk/src/ARSDKBuildUtils/out/arsdk-native/build/libARController/obj/gen/Sources/ARCONTROLLER_Feature.c.o
                0x000000000018bbb0                ARCONTROLLER_FEATURE_MiniDrone_FloodControlStateFloodControlChangedCallback
 *fill*         0x000000000018c11d        0x3 
 .text.ARCONTROLLER_MiniDrone_NewCmdElementUsbAccessoryStateLightState
                0x000000000018c120     0x1110 /home/jose/catkin_ws/build/parrot_arsdk/arsdk/src/ARSDKBuildUtils/out/arsdk-native/build/libARController/obj/gen/Sources/ARCONTROLLER_Feature.c.o
                0x000000000018c120                ARCONTROLLER_MiniDrone_NewCmdElementUsbAccessoryStateLightState
 .text.ARCONTROLLER_FEATURE_MiniDrone_UsbAccessoryStateLightStateCallback
                0x000000000018d230      0xda2 /home/jose/catkin_ws/build/parrot_arsdk/arsdk/src/ARSDKBuildUtils/out/arsdk-native/build/libARController/obj/gen/Sources/ARCONTROLLER_Feature.c.o
                0x000000000018d230                ARCONTROLLER_FEATURE_MiniDrone_UsbAccessoryStateLightStateCallback
 *fill*         0x000000000018dfd2        0xe 
 .text.ARCONTROLLER_MiniDrone_NewCmdElementUsbAccessoryStateClawState
                0x000000000018dfe0      0xbf0 /home/jose/catkin_ws/build/parrot_arsdk/arsdk/src/ARSDKBuildUtils/out/arsdk-native/build/libARController/obj/gen/Sources/ARCONTROLLER_Feature.c.o
                0x000000000018dfe0                ARCONTROLLER_MiniDrone_NewCmdElementUsbAccessoryStateClawState
 .text.ARCONTROLLER_FEATURE_MiniDrone_UsbAccessoryStateClawStateCallback
                0x000000000018ebd0      0xd78 /home/jose/catkin_ws/build/parrot_arsdk/arsdk/src/ARSDKBuildUtils/out/arsdk-native/build/libARController/obj/gen/Sources/ARCONTROLLER_Feature.c.o
                0x000000000018ebd0                ARCONTROLLER_FEATURE_MiniDrone_UsbAccessoryStateClawStateCallback
 *fill*         0x000000000018f948        0x8 
 .text.ARCONTROLLER_MiniDrone_NewCmdElementUsbAccessoryStateGunState
                0x000000000018f950      0xbf0 /home/jose/catkin_ws/build/parrot_arsdk/arsdk/src/ARSDKBuildUtils/out/arsdk-native/build/libARController/obj/gen/Sources/ARCONTROLLER_Feature.c.o
                0x000000000018f950                ARCONTROLLER_MiniDrone_NewCmdElementUsbAccessoryStateGunState
 .text.ARCONTROLLER_FEATURE_MiniDrone_UsbAccessoryStateGunStateCallback
                0x0000000000190540      0xd78 /home/jose/catkin_ws/build/parrot_arsdk/arsdk/src/ARSDKBuildUtils/out/arsdk-native/build/libARController/obj/gen/Sources/ARCONTROLLER_Feature.c.o
                0x0000000000190540                ARCONTROLLER_FEATURE_MiniDrone_UsbAccessoryStateGunStateCallback
 *fill*         0x00000000001912b8        0x8 
 .text.ARCONTROLLER_MiniDrone_NewCmdElementNavigationDataStateDronePosition
                0x00000000001912c0     0x18ce /home/jose/catkin_ws/build/parrot_arsdk/arsdk/src/ARSDKBuildUtils/out/arsdk-native/build/libARController/obj/gen/Sources/ARCONTROLLER_Feature.c.o
                0x00000000001912c0                ARCONTROLLER_MiniDrone_NewCmdElementNavigationDataStateDronePosition
 *fill*         0x0000000000192b8e        0x2 
 .text.ARCONTROLLER_FEATURE_MiniDrone_NavigationDataStateDronePositionCallback
                0x0000000000192b90      0x5ad /home/jose/catkin_ws/build/parrot_arsdk/arsdk/src/ARSDKBuildUtils/out/arsdk-native/build/libARController/obj/gen/Sources/ARCONTROLLER_Feature.c.o
                0x0000000000192b90                ARCONTROLLER_FEATURE_MiniDrone_NavigationDataStateDronePositionCallback
 *fill*         0x000000000019313d        0x3 
 .text.ARCONTROLLER_MiniDrone_NewCmdElementNavigationDataStateDroneSpeed
                0x0000000000193140     0x1469 /home/jose/catkin_ws/build/parrot_arsdk/arsdk/src/ARSDKBuildUtils/out/arsdk-native/build/libARController/obj/gen/Sources/ARCONTROLLER_Feature.c.o
                0x0000000000193140                ARCONTROLLER_MiniDrone_NewCmdElementNavigationDataStateDroneSpeed
 *fill*         0x00000000001945a9        0x7 
 .text.ARCONTROLLER_FEATURE_MiniDrone_NavigationDataStateDroneSpeedCallback
                0x00000000001945b0      0x5cd /home/jose/catkin_ws/build/parrot_arsdk/arsdk/src/ARSDKBuildUtils/out/arsdk-native/build/libARController/obj/gen/Sources/ARCONTROLLER_Feature.c.o
                0x00000000001945b0                ARCONTROLLER_FEATURE_MiniDrone_NavigationDataStateDroneSpeedCallback
 *fill*         0x0000000000194b7d        0x3 
 .text.ARCONTROLLER_MiniDrone_NewCmdElementNavigationDataStateDroneAltitude
                0x0000000000194b80      0x9cc /home/jose/catkin_ws/build/parrot_arsdk/arsdk/src/ARSDKBuildUtils/out/arsdk-native/build/libARController/obj/gen/Sources/ARCONTROLLER_Feature.c.o
                0x0000000000194b80                ARCONTROLLER_MiniDrone_NewCmdElementNavigationDataStateDroneAltitude
 *fill*         0x000000000019554c        0x4 
 .text.ARCONTROLLER_FEATURE_MiniDrone_NavigationDataStateDroneAltitudeCallback
                0x0000000000195550      0x57d /home/jose/catkin_ws/build/parrot_arsdk/arsdk/src/ARSDKBuildUtils/out/arsdk-native/build/libARController/obj/gen/Sources/ARCONTROLLER_Feature.c.o
                0x0000000000195550                ARCONTROLLER_FEATURE_MiniDrone_NavigationDataStateDroneAltitudeCallback
 *fill*         0x0000000000195acd        0x3 
 .text.ARCONTROLLER_MiniDrone_NewCmdElementNavigationDataStateDroneQuaternion
                0x0000000000195ad0     0x197e /home/jose/catkin_ws/build/parrot_arsdk/arsdk/src/ARSDKBuildUtils/out/arsdk-native/build/libARController/obj/gen/Sources/ARCONTROLLER_Feature.c.o
                0x0000000000195ad0                ARCONTROLLER_MiniDrone_NewCmdElementNavigationDataStateDroneQuaternion
 *fill*         0x000000000019744e        0x2 
 .text.ARCONTROLLER_FEATURE_MiniDrone_NavigationDataStateDroneQuaternionCallback
                0x0000000000197450      0x5d5 /home/jose/catkin_ws/build/parrot_arsdk/arsdk/src/ARSDKBuildUtils/out/arsdk-native/build/libARController/obj/gen/Sources/ARCONTROLLER_Feature.c.o
                0x0000000000197450                ARCONTROLLER_FEATURE_MiniDrone_NavigationDataStateDroneQuaternionCallback
 *fill*         0x0000000000197a25        0xb 
 .text.ARCONTROLLER_MiniDrone_NewCmdElementMinicamStatePowerModeChanged
                0x0000000000197a30      0x570 /home/jose/catkin_ws/build/parrot_arsdk/arsdk/src/ARSDKBuildUtils/out/arsdk-native/build/libARController/obj/gen/Sources/ARCONTROLLER_Feature.c.o
                0x0000000000197a30                ARCONTROLLER_MiniDrone_NewCmdElementMinicamStatePowerModeChanged
 .text.ARCONTROLLER_FEATURE_MiniDrone_MinicamStatePowerModeChangedCallback
                0x0000000000197fa0      0x56d /home/jose/catkin_ws/build/parrot_arsdk/arsdk/src/ARSDKBuildUtils/out/arsdk-native/build/libARController/obj/gen/Sources/ARCONTROLLER_Feature.c.o
                0x0000000000197fa0                ARCONTROLLER_FEATURE_MiniDrone_MinicamStatePowerModeChangedCallback
 *fill*         0x000000000019850d        0x3 
 .text.ARCONTROLLER_MiniDrone_NewCmdElementMinicamStateProductSerialChanged
                0x0000000000198510      0x5a2 /home/jose/catkin_ws/build/parrot_arsdk/arsdk/src/ARSDKBuildUtils/out/arsdk-native/build/libARController/obj/gen/Sources/ARCONTROLLER_Feature.c.o
                0x0000000000198510                ARCONTROLLER_MiniDrone_NewCmdElementMinicamStateProductSerialChanged
 *fill*         0x0000000000198ab2        0xe 
 .text.ARCONTROLLER_FEATURE_MiniDrone_MinicamStateProductSerialChangedCallback
                0x0000000000198ac0      0x56d /home/jose/catkin_ws/build/parrot_arsdk/arsdk/src/ARSDKBuildUtils/out/arsdk-native/build/libARController/obj/gen/Sources/ARCONTROLLER_Feature.c.o
                0x0000000000198ac0                ARCONTROLLER_FEATURE_MiniDrone_MinicamStateProductSerialChangedCallback
 *fill*         0x000000000019902d        0x3 
 .text.ARCONTROLLER_MiniDrone_NewCmdElementMinicamStateStateChanged
                0x0000000000199030      0x570 /home/jose/catkin_ws/build/parrot_arsdk/arsdk/src/ARSDKBuildUtils/out/arsdk-native/build/libARController/obj/gen/Sources/ARCONTROLLER_Feature.c.o
                0x0000000000199030                ARCONTROLLER_MiniDrone_NewCmdElementMinicamStateStateChanged
 .text.ARCONTROLLER_FEATURE_MiniDrone_MinicamStateStateChangedCallback
                0x00000000001995a0      0x56d /home/jose/catkin_ws/build/parrot_arsdk/arsdk/src/ARSDKBuildUtils/out/arsdk-native/build/libARController/obj/gen/Sources/ARCONTROLLER_Feature.c.o
                0x00000000001995a0                ARCONTROLLER_FEATURE_MiniDrone_MinicamStateStateChangedCallback
 *fill*         0x0000000000199b0d        0x3 
 .text.ARCONTROLLER_MiniDrone_NewCmdElementMinicamStateVersionChanged
                0x0000000000199b10      0xa7a /home/jose/catkin_ws/build/parrot_arsdk/arsdk/src/ARSDKBuildUtils/out/arsdk-native/build/libARController/obj/gen/Sources/ARCONTROLLER_Feature.c.o
                0x0000000000199b10                ARCONTROLLER_MiniDrone_NewCmdElementMinicamStateVersionChanged
 *fill*         0x000000000019a58a        0x6 
 .text.ARCONTROLLER_FEATURE_MiniDrone_MinicamStateVersionChangedCallback
                0x000000000019a590      0x56d /home/jose/catkin_ws/build/parrot_arsdk/arsdk/src/ARSDKBuildUtils/out/arsdk-native/build/libARController/obj/gen/Sources/ARCONTROLLER_Feature.c.o
                0x000000000019a590                ARCONTROLLER_FEATURE_MiniDrone_MinicamStateVersionChangedCallback
 *fill*         0x000000000019aafd        0x3 
 .text.ARCONTROLLER_MiniDrone_NewCmdElementMinicamStatePictureChanged
                0x000000000019ab00      0x9cc /home/jose/catkin_ws/build/parrot_arsdk/arsdk/src/ARSDKBuildUtils/out/arsdk-native/build/libARController/obj/gen/Sources/ARCONTROLLER_Feature.c.o
                0x000000000019ab00                ARCONTROLLER_MiniDrone_NewCmdElementMinicamStatePictureChanged
 *fill*         0x000000000019b4cc        0x4 
 .text.ARCONTROLLER_FEATURE_MiniDrone_MinicamStatePictureChangedCallback
                0x000000000019b4d0      0x56d /home/jose/catkin_ws/build/parrot_arsdk/arsdk/src/ARSDKBuildUtils/out/arsdk-native/build/libARController/obj/gen/Sources/ARCONTROLLER_Feature.c.o
                0x000000000019b4d0                ARCONTROLLER_FEATURE_MiniDrone_MinicamStatePictureChangedCallback
 *fill*         0x000000000019ba3d        0x3 
 .text.ARCONTROLLER_MiniDrone_NewCmdElementMinicamStateVideoStateChanged
                0x000000000019ba40      0x9cc /home/jose/catkin_ws/build/parrot_arsdk/arsdk/src/ARSDKBuildUtils/out/arsdk-native/build/libARController/obj/gen/Sources/ARCONTROLLER_Feature.c.o
                0x000000000019ba40                ARCONTROLLER_MiniDrone_NewCmdElementMinicamStateVideoStateChanged
 *fill*         0x000000000019c40c        0x4 
 .text.ARCONTROLLER_FEATURE_MiniDrone_MinicamStateVideoStateChangedCallback
                0x000000000019c410      0x56d /home/jose/catkin_ws/build/parrot_arsdk/arsdk/src/ARSDKBuildUtils/out/arsdk-native/build/libARController/obj/gen/Sources/ARCONTROLLER_Feature.c.o
                0x000000000019c410                ARCONTROLLER_FEATURE_MiniDrone_MinicamStateVideoStateChangedCallback
 *fill*         0x000000000019c97d        0x3 
 .text.ARCONTROLLER_MiniDrone_NewCmdElementMinicamStateMassStorageFormatChanged
                0x000000000019c980      0x570 /home/jose/catkin_ws/build/parrot_arsdk/arsdk/src/ARSDKBuildUtils/out/arsdk-native/build/libARController/obj/gen/Sources/ARCONTROLLER_Feature.c.o
                0x000000000019c980                ARCONTROLLER_MiniDrone_NewCmdElementMinicamStateMassStorageFormatChanged
 .text.ARCONTROLLER_FEATURE_MiniDrone_MinicamStateMassStorageFormatChangedCallback
                0x000000000019cef0      0x56d /home/jose/catkin_ws/build/parrot_arsdk/arsdk/src/ARSDKBuildUtils/out/arsdk-native/build/libARController/obj/gen/Sources/ARCONTROLLER_Feature.c.o
                0x000000000019cef0                ARCONTROLLER_FEATURE_MiniDrone_MinicamStateMassStorageFormatChangedCallback
 *fill*         0x000000000019d45d        0x3 
 .text.ARCONTROLLER_MiniDrone_NewCmdElementVideoSettingsStateAutorecordChanged
                0x000000000019d460      0x570 /home/jose/catkin_ws/build/parrot_arsdk/arsdk/src/ARSDKBuildUtils/out/arsdk-native/build/libARController/obj/gen/Sources/ARCONTROLLER_Feature.c.o
                0x000000000019d460                ARCONTROLLER_MiniDrone_NewCmdElementVideoSettingsStateAutorecordChanged
 .text.ARCONTROLLER_FEATURE_MiniDrone_VideoSettingsStateAutorecordChangedCallback
                0x000000000019d9d0      0x56d /home/jose/catkin_ws/build/parrot_arsdk/arsdk/src/ARSDKBuildUtils/out/arsdk-native/build/libARController/obj/gen/Sources/ARCONTROLLER_Feature.c.o
                0x000000000019d9d0                ARCONTROLLER_FEATURE_MiniDrone_VideoSettingsStateAutorecordChangedCallback
 *fill*         0x000000000019df3d        0x3 
 .text.ARCONTROLLER_MiniDrone_NewCmdElementVideoSettingsStateElectricFrequencyChanged
                0x000000000019df40      0x570 /home/jose/catkin_ws/build/parrot_arsdk/arsdk/src/ARSDKBuildUtils/out/arsdk-native/build/libARController/obj/gen/Sources/ARCONTROLLER_Feature.c.o
                0x000000000019df40                ARCONTROLLER_MiniDrone_NewCmdElementVideoSettingsStateElectricFrequencyChanged
 .text.ARCONTROLLER_FEATURE_MiniDrone_VideoSettingsStateElectricFrequencyChangedCallback
                0x000000000019e4b0      0x56d /home/jose/catkin_ws/build/parrot_arsdk/arsdk/src/ARSDKBuildUtils/out/arsdk-native/build/libARController/obj/gen/Sources/ARCONTROLLER_Feature.c.o
                0x000000000019e4b0                ARCONTROLLER_FEATURE_MiniDrone_VideoSettingsStateElectricFrequencyChangedCallback
 *fill*         0x000000000019ea1d        0x3 
 .text.ARCONTROLLER_MiniDrone_NewCmdElementVideoSettingsStateVideoResolutionChanged
                0x000000000019ea20      0x570 /home/jose/catkin_ws/build/parrot_arsdk/arsdk/src/ARSDKBuildUtils/out/arsdk-native/build/libARController/obj/gen/Sources/ARCONTROLLER_Feature.c.o
                0x000000000019ea20                ARCONTROLLER_MiniDrone_NewCmdElementVideoSettingsStateVideoResolutionChanged
 .text.ARCONTROLLER_FEATURE_MiniDrone_VideoSettingsStateVideoResolutionChangedCallback
                0x000000000019ef90      0x56d /home/jose/catkin_ws/build/parrot_arsdk/arsdk/src/ARSDKBuildUtils/out/arsdk-native/build/libARController/obj/gen/Sources/ARCONTROLLER_Feature.c.o
                0x000000000019ef90                ARCONTROLLER_FEATURE_MiniDrone_VideoSettingsStateVideoResolutionChangedCallback
 *fill*         0x000000000019f4fd        0x3 
 .text.ARCONTROLLER_MiniDrone_NewCmdElementRemoteControllerStateConnectionChanged
                0x000000000019f500      0x570 /home/jose/catkin_ws/build/parrot_arsdk/arsdk/src/ARSDKBuildUtils/out/arsdk-native/build/libARController/obj/gen/Sources/ARCONTROLLER_Feature.c.o
                0x000000000019f500                ARCONTROLLER_MiniDrone_NewCmdElementRemoteControllerStateConnectionChanged
 .text.ARCONTROLLER_FEATURE_MiniDrone_RemoteControllerStateConnectionChangedCallback
                0x000000000019fa70      0x56d /home/jose/catkin_ws/build/parrot_arsdk/arsdk/src/ARSDKBuildUtils/out/arsdk-native/build/libARController/obj/gen/Sources/ARCONTROLLER_Feature.c.o
                0x000000000019fa70                ARCONTROLLER_FEATURE_MiniDrone_RemoteControllerStateConnectionChangedCallback
 *fill*         0x000000000019ffdd        0x3 
 .text.ARCONTROLLER_FEATURE_MiniDrone_SetNetworkController
                0x000000000019ffe0       0x26 /home/jose/catkin_ws/build/parrot_arsdk/arsdk/src/ARSDKBuildUtils/out/arsdk-native/build/libARController/obj/gen/Sources/ARCONTROLLER_Feature.c.o
                0x000000000019ffe0                ARCONTROLLER_FEATURE_MiniDrone_SetNetworkController
 *fill*         0x00000000001a0006        0xa 
 .text.ARCONTROLLER_MiniDrone_GetCommandElements
                0x00000000001a0010      0x1a3 /home/jose/catkin_ws/build/parrot_arsdk/arsdk/src/ARSDKBuildUtils/out/arsdk-native/build/libARController/obj/gen/Sources/ARCONTROLLER_Feature.c.o
                0x00000000001a0010                ARCONTROLLER_MiniDrone_GetCommandElements
 *fill*         0x00000000001a01b3        0xd 
 .text.ARCONTROLLER_FEATURE_Powerup_Delete
                0x00000000001a01c0       0xb9 /home/jose/catkin_ws/build/parrot_arsdk/arsdk/src/ARSDKBuildUtils/out/arsdk-native/build/libARController/obj/gen/Sources/ARCONTROLLER_Feature.c.o
                0x00000000001a01c0                ARCONTROLLER_FEATURE_Powerup_Delete
 *fill*         0x00000000001a0279        0x7 
 .text.ARCONTROLLER_FEATURE_Powerup_New
                0x00000000001a0280      0x1af /home/jose/catkin_ws/build/parrot_arsdk/arsdk/src/ARSDKBuildUtils/out/arsdk-native/build/libARController/obj/gen/Sources/ARCONTROLLER_Feature.c.o
                0x00000000001a0280                ARCONTROLLER_FEATURE_Powerup_New
 *fill*         0x00000000001a042f        0x1 
 .text.ARCONTROLLER_FEATURE_Powerup_GetDictionary
                0x00000000001a0430       0x3f /home/jose/catkin_ws/build/parrot_arsdk/arsdk/src/ARSDKBuildUtils/out/arsdk-native/build/libARController/obj/gen/Sources/ARCONTROLLER_Feature.c.o
                0x00000000001a0430                ARCONTROLLER_FEATURE_Powerup_GetDictionary
 *fill*         0x00000000001a046f        0x1 
 .text.ARCONTROLLER_FEATURE_Powerup_AddCallback
                0x00000000001a0470       0x26 /home/jose/catkin_ws/build/parrot_arsdk/arsdk/src/ARSDKBuildUtils/out/arsdk-native/build/libARController/obj/gen/Sources/ARCONTROLLER_Feature.c.o
                0x00000000001a0470                ARCONTROLLER_FEATURE_Powerup_AddCallback
 *fill*         0x00000000001a0496        0xa 
 .text.ARCONTROLLER_FEATURE_Powerup_RemoveCallback
                0x00000000001a04a0       0x26 /home/jose/catkin_ws/build/parrot_arsdk/arsdk/src/ARSDKBuildUtils/out/arsdk-native/build/libARController/obj/gen/Sources/ARCONTROLLER_Feature.c.o
                0x00000000001a04a0                ARCONTROLLER_FEATURE_Powerup_RemoveCallback
 *fill*         0x00000000001a04c6        0xa 
 .text.ARCONTROLLER_FEATURE_Powerup_RegisterARCommands
                0x00000000001a04d0      0x285 /home/jose/catkin_ws/build/parrot_arsdk/arsdk/src/ARSDKBuildUtils/out/arsdk-native/build/libARController/obj/gen/Sources/ARCONTROLLER_Feature.c.o
                0x00000000001a04d0                ARCONTROLLER_FEATURE_Powerup_RegisterARCommands
 *fill*         0x00000000001a0755        0xb 
 .text.ARCONTROLLER_FEATURE_Powerup_UnregisterARCommands
                0x00000000001a0760      0x1fd /home/jose/catkin_ws/build/parrot_arsdk/arsdk/src/ARSDKBuildUtils/out/arsdk-native/build/libARController/obj/gen/Sources/ARCONTROLLER_Feature.c.o
                0x00000000001a0760                ARCONTROLLER_FEATURE_Powerup_UnregisterARCommands
 *fill*         0x00000000001a095d        0x3 
 .text.ARCONTROLLER_Powerup_SendPilotingPCMDStruct
                0x00000000001a0960      0x115 /home/jose/catkin_ws/build/parrot_arsdk/arsdk/src/ARSDKBuildUtils/out/arsdk-native/build/libARController/obj/gen/Sources/ARCONTROLLER_Feature.c.o
                0x00000000001a0960                ARCONTROLLER_Powerup_SendPilotingPCMDStruct
 *fill*         0x00000000001a0a75        0xb 
 .text.ARCONTROLLER_Powerup_NewCmdElementPilotingStateAlertStateChanged
                0x00000000001a0a80      0x570 /home/jose/catkin_ws/build/parrot_arsdk/arsdk/src/ARSDKBuildUtils/out/arsdk-native/build/libARController/obj/gen/Sources/ARCONTROLLER_Feature.c.o
                0x00000000001a0a80                ARCONTROLLER_Powerup_NewCmdElementPilotingStateAlertStateChanged
 .text.ARCONTROLLER_FEATURE_Powerup_PilotingStateAlertStateChangedCallback
                0x00000000001a0ff0      0x56d /home/jose/catkin_ws/build/parrot_arsdk/arsdk/src/ARSDKBuildUtils/out/arsdk-native/build/libARController/obj/gen/Sources/ARCONTROLLER_Feature.c.o
                0x00000000001a0ff0                ARCONTROLLER_FEATURE_Powerup_PilotingStateAlertStateChangedCallback
 *fill*         0x00000000001a155d        0x3 
 .text.ARCONTROLLER_Powerup_NewCmdElementPilotingStateFlyingStateChanged
                0x00000000001a1560      0x570 /home/jose/catkin_ws/build/parrot_arsdk/arsdk/src/ARSDKBuildUtils/out/arsdk-native/build/libARController/obj/gen/Sources/ARCONTROLLER_Feature.c.o
                0x00000000001a1560                ARCONTROLLER_Powerup_NewCmdElementPilotingStateFlyingStateChanged
 .text.ARCONTROLLER_FEATURE_Powerup_PilotingStateFlyingStateChangedCallback
                0x00000000001a1ad0      0x56d /home/jose/catkin_ws/build/parrot_arsdk/arsdk/src/ARSDKBuildUtils/out/arsdk-native/build/libARController/obj/gen/Sources/ARCONTROLLER_Feature.c.o
                0x00000000001a1ad0                ARCONTROLLER_FEATURE_Powerup_PilotingStateFlyingStateChangedCallback
 *fill*         0x00000000001a203d        0x3 
 .text.ARCONTROLLER_Powerup_NewCmdElementPilotingStateMotorModeChanged
                0x00000000001a2040      0x570 /home/jose/catkin_ws/build/parrot_arsdk/arsdk/src/ARSDKBuildUtils/out/arsdk-native/build/libARController/obj/gen/Sources/ARCONTROLLER_Feature.c.o
                0x00000000001a2040                ARCONTROLLER_Powerup_NewCmdElementPilotingStateMotorModeChanged
 .text.ARCONTROLLER_FEATURE_Powerup_PilotingStateMotorModeChangedCallback
                0x00000000001a25b0      0x56d /home/jose/catkin_ws/build/parrot_arsdk/arsdk/src/ARSDKBuildUtils/out/arsdk-native/build/libARController/obj/gen/Sources/ARCONTROLLER_Feature.c.o
                0x00000000001a25b0                ARCONTROLLER_FEATURE_Powerup_PilotingStateMotorModeChangedCallback
 *fill*         0x00000000001a2b1d        0x3 
 .text.ARCONTROLLER_Powerup_NewCmdElementPilotingStateAttitudeChanged
                0x00000000001a2b20      0xf2c /home/jose/catkin_ws/build/parrot_arsdk/arsdk/src/ARSDKBuildUtils/out/arsdk-native/build/libARController/obj/gen/Sources/ARCONTROLLER_Feature.c.o
                0x00000000001a2b20                ARCONTROLLER_Powerup_NewCmdElementPilotingStateAttitudeChanged
 *fill*         0x00000000001a3a4c        0x4 
 .text.ARCONTROLLER_FEATURE_Powerup_PilotingStateAttitudeChangedCallback
                0x00000000001a3a50      0x5bd /home/jose/catkin_ws/build/parrot_arsdk/arsdk/src/ARSDKBuildUtils/out/arsdk-native/build/libARController/obj/gen/Sources/ARCONTROLLER_Feature.c.o
                0x00000000001a3a50                ARCONTROLLER_FEATURE_Powerup_PilotingStateAttitudeChangedCallback
 *fill*         0x00000000001a400d        0x3 
 .text.ARCONTROLLER_Powerup_NewCmdElementPilotingStateAltitudeChanged
                0x00000000001a4010      0x590 /home/jose/catkin_ws/build/parrot_arsdk/arsdk/src/ARSDKBuildUtils/out/arsdk-native/build/libARController/obj/gen/Sources/ARCONTROLLER_Feature.c.o
                0x00000000001a4010                ARCONTROLLER_Powerup_NewCmdElementPilotingStateAltitudeChanged
 .text.ARCONTROLLER_FEATURE_Powerup_PilotingStateAltitudeChangedCallback
                0x00000000001a45a0      0x57d /home/jose/catkin_ws/build/parrot_arsdk/arsdk/src/ARSDKBuildUtils/out/arsdk-native/build/libARController/obj/gen/Sources/ARCONTROLLER_Feature.c.o
                0x00000000001a45a0                ARCONTROLLER_FEATURE_Powerup_PilotingStateAltitudeChangedCallback
 *fill*         0x00000000001a4b1d        0x3 
 .text.ARCONTROLLER_Powerup_NewCmdElementPilotingSettingsStateSettingChanged
                0x00000000001a4b20     0x15e6 /home/jose/catkin_ws/build/parrot_arsdk/arsdk/src/ARSDKBuildUtils/out/arsdk-native/build/libARController/obj/gen/Sources/ARCONTROLLER_Feature.c.o
                0x00000000001a4b20                ARCONTROLLER_Powerup_NewCmdElementPilotingSettingsStateSettingChanged
 *fill*         0x00000000001a6106        0xa 
 .text.ARCONTROLLER_FEATURE_Powerup_PilotingSettingsStateSettingChangedCallback
                0x00000000001a6110      0xd35 /home/jose/catkin_ws/build/parrot_arsdk/arsdk/src/ARSDKBuildUtils/out/arsdk-native/build/libARController/obj/gen/Sources/ARCONTROLLER_Feature.c.o
                0x00000000001a6110                ARCONTROLLER_FEATURE_Powerup_PilotingSettingsStateSettingChangedCallback
 *fill*         0x00000000001a6e45        0xb 
 .text.ARCONTROLLER_Powerup_NewCmdElementMediaRecordStatePictureStateChangedV2
                0x00000000001a6e50      0x9cc /home/jose/catkin_ws/build/parrot_arsdk/arsdk/src/ARSDKBuildUtils/out/arsdk-native/build/libARController/obj/gen/Sources/ARCONTROLLER_Feature.c.o
                0x00000000001a6e50                ARCONTROLLER_Powerup_NewCmdElementMediaRecordStatePictureStateChangedV2
 *fill*         0x00000000001a781c        0x4 
 .text.ARCONTROLLER_FEATURE_Powerup_MediaRecordStatePictureStateChangedV2Callback
                0x00000000001a7820      0x56d /home/jose/catkin_ws/build/parrot_arsdk/arsdk/src/ARSDKBuildUtils/out/arsdk-native/build/libARController/obj/gen/Sources/ARCONTROLLER_Feature.c.o
                0x00000000001a7820                ARCONTROLLER_FEATURE_Powerup_MediaRecordStatePictureStateChangedV2Callback
 *fill*         0x00000000001a7d8d        0x3 
 .text.ARCONTROLLER_Powerup_NewCmdElementMediaRecordStateVideoStateChangedV2
                0x00000000001a7d90      0x9cc /home/jose/catkin_ws/build/parrot_arsdk/arsdk/src/ARSDKBuildUtils/out/arsdk-native/build/libARController/obj/gen/Sources/ARCONTROLLER_Feature.c.o
                0x00000000001a7d90                ARCONTROLLER_Powerup_NewCmdElementMediaRecordStateVideoStateChangedV2
 *fill*         0x00000000001a875c        0x4 
 .text.ARCONTROLLER_FEATURE_Powerup_MediaRecordStateVideoStateChangedV2Callback
                0x00000000001a8760      0x56d /home/jose/catkin_ws/build/parrot_arsdk/arsdk/src/ARSDKBuildUtils/out/arsdk-native/build/libARController/obj/gen/Sources/ARCONTROLLER_Feature.c.o
                0x00000000001a8760                ARCONTROLLER_FEATURE_Powerup_MediaRecordStateVideoStateChangedV2Callback
 *fill*         0x00000000001a8ccd        0x3 
 .text.ARCONTROLLER_Powerup_NewCmdElementMediaRecordEventPictureEventChanged
                0x00000000001a8cd0      0x9cc /home/jose/catkin_ws/build/parrot_arsdk/arsdk/src/ARSDKBuildUtils/out/arsdk-native/build/libARController/obj/gen/Sources/ARCONTROLLER_Feature.c.o
                0x00000000001a8cd0                ARCONTROLLER_Powerup_NewCmdElementMediaRecordEventPictureEventChanged
 *fill*         0x00000000001a969c        0x4 
 .text.ARCONTROLLER_FEATURE_Powerup_MediaRecordEventPictureEventChangedCallback
                0x00000000001a96a0      0x56d /home/jose/catkin_ws/build/parrot_arsdk/arsdk/src/ARSDKBuildUtils/out/arsdk-native/build/libARController/obj/gen/Sources/ARCONTROLLER_Feature.c.o
                0x00000000001a96a0                ARCONTROLLER_FEATURE_Powerup_MediaRecordEventPictureEventChangedCallback
 *fill*         0x00000000001a9c0d        0x3 
 .text.ARCONTROLLER_Powerup_NewCmdElementMediaRecordEventVideoEventChanged
                0x00000000001a9c10      0x9cc /home/jose/catkin_ws/build/parrot_arsdk/arsdk/src/ARSDKBuildUtils/out/arsdk-native/build/libARController/obj/gen/Sources/ARCONTROLLER_Feature.c.o
                0x00000000001a9c10                ARCONTROLLER_Powerup_NewCmdElementMediaRecordEventVideoEventChanged
 *fill*         0x00000000001aa5dc        0x4 
 .text.ARCONTROLLER_FEATURE_Powerup_MediaRecordEventVideoEventChangedCallback
                0x00000000001aa5e0      0x56d /home/jose/catkin_ws/build/parrot_arsdk/arsdk/src/ARSDKBuildUtils/out/arsdk-native/build/libARController/obj/gen/Sources/ARCONTROLLER_Feature.c.o
                0x00000000001aa5e0                ARCONTROLLER_FEATURE_Powerup_MediaRecordEventVideoEventChangedCallback
 *fill*         0x00000000001aab4d        0x3 
 .text.ARCONTROLLER_Powerup_NewCmdElementNetworkSettingsStateWifiSelectionChanged
                0x00000000001aab50      0xf1b /home/jose/catkin_ws/build/parrot_arsdk/arsdk/src/ARSDKBuildUtils/out/arsdk-native/build/libARController/obj/gen/Sources/ARCONTROLLER_Feature.c.o
                0x00000000001aab50                ARCONTROLLER_Powerup_NewCmdElementNetworkSettingsStateWifiSelectionChanged
 *fill*         0x00000000001aba6b        0x5 
 .text.ARCONTROLLER_FEATURE_Powerup_NetworkSettingsStateWifiSelectionChangedCallback
                0x00000000001aba70      0x56d /home/jose/catkin_ws/build/parrot_arsdk/arsdk/src/ARSDKBuildUtils/out/arsdk-native/build/libARController/obj/gen/Sources/ARCONTROLLER_Feature.c.o
                0x00000000001aba70                ARCONTROLLER_FEATURE_Powerup_NetworkSettingsStateWifiSelectionChangedCallback
 *fill*         0x00000000001abfdd        0x3 
 .text.ARCONTROLLER_Powerup_NewCmdElementNetworkStateWifiScanListChanged
                0x00000000001abfe0     0x1466 /home/jose/catkin_ws/build/parrot_arsdk/arsdk/src/ARSDKBuildUtils/out/arsdk-native/build/libARController/obj/gen/Sources/ARCONTROLLER_Feature.c.o
                0x00000000001abfe0                ARCONTROLLER_Powerup_NewCmdElementNetworkStateWifiScanListChanged
 *fill*         0x00000000001ad446        0xa 
 .text.ARCONTROLLER_FEATURE_Powerup_NetworkStateWifiScanListChangedCallback
                0x00000000001ad450      0x57d /home/jose/catkin_ws/build/parrot_arsdk/arsdk/src/ARSDKBuildUtils/out/arsdk-native/build/libARController/obj/gen/Sources/ARCONTROLLER_Feature.c.o
                0x00000000001ad450                ARCONTROLLER_FEATURE_Powerup_NetworkStateWifiScanListChangedCallback
 *fill*         0x00000000001ad9cd        0x3 
 .text.ARCONTROLLER_Powerup_NewCmdElementNetworkStateAllWifiScanChanged
                0x00000000001ad9d0       0xb3 /home/jose/catkin_ws/build/parrot_arsdk/arsdk/src/ARSDKBuildUtils/out/arsdk-native/build/libARController/obj/gen/Sources/ARCONTROLLER_Feature.c.o
                0x00000000001ad9d0                ARCONTROLLER_Powerup_NewCmdElementNetworkStateAllWifiScanChanged
 *fill*         0x00000000001ada83        0xd 
 .text.ARCONTROLLER_FEATURE_Powerup_NetworkStateAllWifiScanChangedCallback
                0x00000000001ada90      0x55d /home/jose/catkin_ws/build/parrot_arsdk/arsdk/src/ARSDKBuildUtils/out/arsdk-native/build/libARController/obj/gen/Sources/ARCONTROLLER_Feature.c.o
                0x00000000001ada90                ARCONTROLLER_FEATURE_Powerup_NetworkStateAllWifiScanChangedCallback
 *fill*         0x00000000001adfed        0x3 
 .text.ARCONTROLLER_Powerup_NewCmdElementNetworkStateWifiAuthChannelListChanged
                0x00000000001adff0     0x111d /home/jose/catkin_ws/build/parrot_arsdk/arsdk/src/ARSDKBuildUtils/out/arsdk-native/build/libARController/obj/gen/Sources/ARCONTROLLER_Feature.c.o
                0x00000000001adff0                ARCONTROLLER_Powerup_NewCmdElementNetworkStateWifiAuthChannelListChanged
 *fill*         0x00000000001af10d        0x3 
 .text.ARCONTROLLER_FEATURE_Powerup_NetworkStateWifiAuthChannelListChangedCallback
                0x00000000001af110      0x585 /home/jose/catkin_ws/build/parrot_arsdk/arsdk/src/ARSDKBuildUtils/out/arsdk-native/build/libARController/obj/gen/Sources/ARCONTROLLER_Feature.c.o
                0x00000000001af110                ARCONTROLLER_FEATURE_Powerup_NetworkStateWifiAuthChannelListChangedCallback
 *fill*         0x00000000001af695        0xb 
 .text.ARCONTROLLER_Powerup_NewCmdElementNetworkStateAllWifiAuthChannelChanged
                0x00000000001af6a0        0x9 /home/jose/catkin_ws/build/parrot_arsdk/arsdk/src/ARSDKBuildUtils/out/arsdk-native/build/libARController/obj/gen/Sources/ARCONTROLLER_Feature.c.o
                0x00000000001af6a0                ARCONTROLLER_Powerup_NewCmdElementNetworkStateAllWifiAuthChannelChanged
 *fill*         0x00000000001af6a9        0x7 
 .text.ARCONTROLLER_FEATURE_Powerup_NetworkStateAllWifiAuthChannelChangedCallback
                0x00000000001af6b0      0x55d /home/jose/catkin_ws/build/parrot_arsdk/arsdk/src/ARSDKBuildUtils/out/arsdk-native/build/libARController/obj/gen/Sources/ARCONTROLLER_Feature.c.o
                0x00000000001af6b0                ARCONTROLLER_FEATURE_Powerup_NetworkStateAllWifiAuthChannelChangedCallback
 *fill*         0x00000000001afc0d        0x3 
 .text.ARCONTROLLER_Powerup_NewCmdElementNetworkStateLinkQualityChanged
                0x00000000001afc10      0x570 /home/jose/catkin_ws/build/parrot_arsdk/arsdk/src/ARSDKBuildUtils/out/arsdk-native/build/libARController/obj/gen/Sources/ARCONTROLLER_Feature.c.o
                0x00000000001afc10                ARCONTROLLER_Powerup_NewCmdElementNetworkStateLinkQualityChanged
 .text.ARCONTROLLER_FEATURE_Powerup_NetworkStateLinkQualityChangedCallback
                0x00000000001b0180      0x56d /home/jose/catkin_ws/build/parrot_arsdk/arsdk/src/ARSDKBuildUtils/out/arsdk-native/build/libARController/obj/gen/Sources/ARCONTROLLER_Feature.c.o
                0x00000000001b0180                ARCONTROLLER_FEATURE_Powerup_NetworkStateLinkQualityChangedCallback
 *fill*         0x00000000001b06ed        0x3 
 .text.ARCONTROLLER_Powerup_NewCmdElementMediaStreamingStateVideoEnableChanged
                0x00000000001b06f0      0x570 /home/jose/catkin_ws/build/parrot_arsdk/arsdk/src/ARSDKBuildUtils/out/arsdk-native/build/libARController/obj/gen/Sources/ARCONTROLLER_Feature.c.o
                0x00000000001b06f0                ARCONTROLLER_Powerup_NewCmdElementMediaStreamingStateVideoEnableChanged
 .text.ARCONTROLLER_FEATURE_Powerup_MediaStreamingStateVideoEnableChangedCallback
                0x00000000001b0c60      0x56d /home/jose/catkin_ws/build/parrot_arsdk/arsdk/src/ARSDKBuildUtils/out/arsdk-native/build/libARController/obj/gen/Sources/ARCONTROLLER_Feature.c.o
                0x00000000001b0c60                ARCONTROLLER_FEATURE_Powerup_MediaStreamingStateVideoEnableChangedCallback
 *fill*         0x00000000001b11cd        0x3 
 .text.ARCONTROLLER_Powerup_NewCmdElementVideoSettingsStateAutorecordChanged
                0x00000000001b11d0      0x570 /home/jose/catkin_ws/build/parrot_arsdk/arsdk/src/ARSDKBuildUtils/out/arsdk-native/build/libARController/obj/gen/Sources/ARCONTROLLER_Feature.c.o
                0x00000000001b11d0                ARCONTROLLER_Powerup_NewCmdElementVideoSettingsStateAutorecordChanged
 .text.ARCONTROLLER_FEATURE_Powerup_VideoSettingsStateAutorecordChangedCallback
                0x00000000001b1740      0x56d /home/jose/catkin_ws/build/parrot_arsdk/arsdk/src/ARSDKBuildUtils/out/arsdk-native/build/libARController/obj/gen/Sources/ARCONTROLLER_Feature.c.o
                0x00000000001b1740                ARCONTROLLER_FEATURE_Powerup_VideoSettingsStateAutorecordChangedCallback
 *fill*         0x00000000001b1cad        0x3 
 .text.ARCONTROLLER_Powerup_NewCmdElementVideoSettingsStateVideoModeChanged
                0x00000000001b1cb0      0x570 /home/jose/catkin_ws/build/parrot_arsdk/arsdk/src/ARSDKBuildUtils/out/arsdk-native/build/libARController/obj/gen/Sources/ARCONTROLLER_Feature.c.o
                0x00000000001b1cb0                ARCONTROLLER_Powerup_NewCmdElementVideoSettingsStateVideoModeChanged
 .text.ARCONTROLLER_FEATURE_Powerup_VideoSettingsStateVideoModeChangedCallback
                0x00000000001b2220      0x56d /home/jose/catkin_ws/build/parrot_arsdk/arsdk/src/ARSDKBuildUtils/out/arsdk-native/build/libARController/obj/gen/Sources/ARCONTROLLER_Feature.c.o
                0x00000000001b2220                ARCONTROLLER_FEATURE_Powerup_VideoSettingsStateVideoModeChangedCallback
 *fill*         0x00000000001b278d        0x3 
 .text.ARCONTROLLER_Powerup_NewCmdElementSoundsStateBuzzChanged
                0x00000000001b2790      0x570 /home/jose/catkin_ws/build/parrot_arsdk/arsdk/src/ARSDKBuildUtils/out/arsdk-native/build/libARController/obj/gen/Sources/ARCONTROLLER_Feature.c.o
                0x00000000001b2790                ARCONTROLLER_Powerup_NewCmdElementSoundsStateBuzzChanged
 .text.ARCONTROLLER_FEATURE_Powerup_SoundsStateBuzzChangedCallback
                0x00000000001b2d00      0x56d /home/jose/catkin_ws/build/parrot_arsdk/arsdk/src/ARSDKBuildUtils/out/arsdk-native/build/libARController/obj/gen/Sources/ARCONTROLLER_Feature.c.o
                0x00000000001b2d00                ARCONTROLLER_FEATURE_Powerup_SoundsStateBuzzChangedCallback
 *fill*         0x00000000001b326d        0x3 
 .text.ARCONTROLLER_FEATURE_Powerup_SetNetworkController
                0x00000000001b3270       0x26 /home/jose/catkin_ws/build/parrot_arsdk/arsdk/src/ARSDKBuildUtils/out/arsdk-native/build/libARController/obj/gen/Sources/ARCONTROLLER_Feature.c.o
                0x00000000001b3270                ARCONTROLLER_FEATURE_Powerup_SetNetworkController
 *fill*         0x00000000001b3296        0xa 
 .text.ARCONTROLLER_Powerup_GetCommandElements
                0x00000000001b32a0      0x1a3 /home/jose/catkin_ws/build/parrot_arsdk/arsdk/src/ARSDKBuildUtils/out/arsdk-native/build/libARController/obj/gen/Sources/ARCONTROLLER_Feature.c.o
                0x00000000001b32a0                ARCONTROLLER_Powerup_GetCommandElements
 *fill*         0x00000000001b3443        0xd 
 .text.ARCONTROLLER_FEATURE_Rc_Delete
                0x00000000001b3450       0x81 /home/jose/catkin_ws/build/parrot_arsdk/arsdk/src/ARSDKBuildUtils/out/arsdk-native/build/libARController/obj/gen/Sources/ARCONTROLLER_Feature.c.o
                0x00000000001b3450                ARCONTROLLER_FEATURE_Rc_Delete
 *fill*         0x00000000001b34d1        0xf 
 .text.ARCONTROLLER_FEATURE_Rc_New
                0x00000000001b34e0       0xfb /home/jose/catkin_ws/build/parrot_arsdk/arsdk/src/ARSDKBuildUtils/out/arsdk-native/build/libARController/obj/gen/Sources/ARCONTROLLER_Feature.c.o
                0x00000000001b34e0                ARCONTROLLER_FEATURE_Rc_New
 *fill*         0x00000000001b35db        0x5 
 .text.ARCONTROLLER_FEATURE_Rc_GetDictionary
                0x00000000001b35e0       0x37 /home/jose/catkin_ws/build/parrot_arsdk/arsdk/src/ARSDKBuildUtils/out/arsdk-native/build/libARController/obj/gen/Sources/ARCONTROLLER_Feature.c.o
                0x00000000001b35e0                ARCONTROLLER_FEATURE_Rc_GetDictionary
 *fill*         0x00000000001b3617        0x9 
 .text.ARCONTROLLER_FEATURE_Rc_AddCallback
                0x00000000001b3620       0x26 /home/jose/catkin_ws/build/parrot_arsdk/arsdk/src/ARSDKBuildUtils/out/arsdk-native/build/libARController/obj/gen/Sources/ARCONTROLLER_Feature.c.o
                0x00000000001b3620                ARCONTROLLER_FEATURE_Rc_AddCallback
 *fill*         0x00000000001b3646        0xa 
 .text.ARCONTROLLER_FEATURE_Rc_RemoveCallback
                0x00000000001b3650       0x26 /home/jose/catkin_ws/build/parrot_arsdk/arsdk/src/ARSDKBuildUtils/out/arsdk-native/build/libARController/obj/gen/Sources/ARCONTROLLER_Feature.c.o
                0x00000000001b3650                ARCONTROLLER_FEATURE_Rc_RemoveCallback
 *fill*         0x00000000001b3676        0xa 
 .text.ARCONTROLLER_FEATURE_Rc_RegisterARCommands
                0x00000000001b3680       0xbd /home/jose/catkin_ws/build/parrot_arsdk/arsdk/src/ARSDKBuildUtils/out/arsdk-native/build/libARController/obj/gen/Sources/ARCONTROLLER_Feature.c.o
                0x00000000001b3680                ARCONTROLLER_FEATURE_Rc_RegisterARCommands
 *fill*         0x00000000001b373d        0x3 
 .text.ARCONTROLLER_FEATURE_Rc_UnregisterARCommands
                0x00000000001b3740       0x8d /home/jose/catkin_ws/build/parrot_arsdk/arsdk/src/ARSDKBuildUtils/out/arsdk-native/build/libARController/obj/gen/Sources/ARCONTROLLER_Feature.c.o
                0x00000000001b3740                ARCONTROLLER_FEATURE_Rc_UnregisterARCommands
 *fill*         0x00000000001b37cd        0x3 
 .text.ARCONTROLLER_Rc_NewCmdElementReceiverState
                0x00000000001b37d0      0xf6b /home/jose/catkin_ws/build/parrot_arsdk/arsdk/src/ARSDKBuildUtils/out/arsdk-native/build/libARController/obj/gen/Sources/ARCONTROLLER_Feature.c.o
                0x00000000001b37d0                ARCONTROLLER_Rc_NewCmdElementReceiverState
 *fill*         0x00000000001b473b        0x5 
 .text.ARCONTROLLER_FEATURE_Rc_ReceiverStateCallback
                0x00000000001b4740      0x55d /home/jose/catkin_ws/build/parrot_arsdk/arsdk/src/ARSDKBuildUtils/out/arsdk-native/build/libARController/obj/gen/Sources/ARCONTROLLER_Feature.c.o
                0x00000000001b4740                ARCONTROLLER_FEATURE_Rc_ReceiverStateCallback
 *fill*         0x00000000001b4c9d        0x3 
 .text.ARCONTROLLER_Rc_NewCmdElementChannelsMonitorState
                0x00000000001b4ca0      0x570 /home/jose/catkin_ws/build/parrot_arsdk/arsdk/src/ARSDKBuildUtils/out/arsdk-native/build/libARController/obj/gen/Sources/ARCONTROLLER_Feature.c.o
                0x00000000001b4ca0                ARCONTROLLER_Rc_NewCmdElementChannelsMonitorState
 .text.ARCONTROLLER_FEATURE_Rc_ChannelsMonitorStateCallback
                0x00000000001b5210      0x54d /home/jose/catkin_ws/build/parrot_arsdk/arsdk/src/ARSDKBuildUtils/out/arsdk-native/build/libARController/obj/gen/Sources/ARCONTROLLER_Feature.c.o
                0x00000000001b5210                ARCONTROLLER_FEATURE_Rc_ChannelsMonitorStateCallback
 *fill*         0x00000000001b575d        0x3 
 .text.ARCONTROLLER_Rc_NewCmdElementChannelValue
                0x00000000001b5760     0x1110 /home/jose/catkin_ws/build/parrot_arsdk/arsdk/src/ARSDKBuildUtils/out/arsdk-native/build/libARController/obj/gen/Sources/ARCONTROLLER_Feature.c.o
                0x00000000001b5760                ARCONTROLLER_Rc_NewCmdElementChannelValue
 .text.ARCONTROLLER_FEATURE_Rc_ChannelValueCallback
                0x00000000001b6870      0xd39 /home/jose/catkin_ws/build/parrot_arsdk/arsdk/src/ARSDKBuildUtils/out/arsdk-native/build/libARController/obj/gen/Sources/ARCONTROLLER_Feature.c.o
                0x00000000001b6870                ARCONTROLLER_FEATURE_Rc_ChannelValueCallback
 *fill*         0x00000000001b75a9        0x7 
 .text.ARCONTROLLER_Rc_NewCmdElementCalibrationState
                0x00000000001b75b0     0x190c /home/jose/catkin_ws/build/parrot_arsdk/arsdk/src/ARSDKBuildUtils/out/arsdk-native/build/libARController/obj/gen/Sources/ARCONTROLLER_Feature.c.o
                0x00000000001b75b0                ARCONTROLLER_Rc_NewCmdElementCalibrationState
 *fill*         0x00000000001b8ebc        0x4 
 .text.ARCONTROLLER_FEATURE_Rc_CalibrationStateCallback
                0x00000000001b8ec0      0x590 /home/jose/catkin_ws/build/parrot_arsdk/arsdk/src/ARSDKBuildUtils/out/arsdk-native/build/libARController/obj/gen/Sources/ARCONTROLLER_Feature.c.o
                0x00000000001b8ec0                ARCONTROLLER_FEATURE_Rc_CalibrationStateCallback
 .text.ARCONTROLLER_Rc_NewCmdElementChannelActionItem
                0x00000000001b9450     0x1643 /home/jose/catkin_ws/build/parrot_arsdk/arsdk/src/ARSDKBuildUtils/out/arsdk-native/build/libARController/obj/gen/Sources/ARCONTROLLER_Feature.c.o
                0x00000000001b9450                ARCONTROLLER_Rc_NewCmdElementChannelActionItem
 *fill*         0x00000000001baa93        0xd 
 .text.ARCONTROLLER_FEATURE_Rc_ChannelActionItemCallback
                0x00000000001baaa0      0x55d /home/jose/catkin_ws/build/parrot_arsdk/arsdk/src/ARSDKBuildUtils/out/arsdk-native/build/libARController/obj/gen/Sources/ARCONTROLLER_Feature.c.o
                0x00000000001baaa0                ARCONTROLLER_FEATURE_Rc_ChannelActionItemCallback
 *fill*         0x00000000001baffd        0x3 
 .text.ARCONTROLLER_FEATURE_Rc_SetNetworkController
                0x00000000001bb000       0x26 /home/jose/catkin_ws/build/parrot_arsdk/arsdk/src/ARSDKBuildUtils/out/arsdk-native/build/libARController/obj/gen/Sources/ARCONTROLLER_Feature.c.o
                0x00000000001bb000                ARCONTROLLER_FEATURE_Rc_SetNetworkController
 *fill*         0x00000000001bb026        0xa 
 .text.ARCONTROLLER_Rc_GetCommandElements
                0x00000000001bb030      0x193 /home/jose/catkin_ws/build/parrot_arsdk/arsdk/src/ARSDKBuildUtils/out/arsdk-native/build/libARController/obj/gen/Sources/ARCONTROLLER_Feature.c.o
                0x00000000001bb030                ARCONTROLLER_Rc_GetCommandElements
 *fill*         0x00000000001bb1c3        0xd 
 .text.ARCONTROLLER_FEATURE_SequoiaCam_Delete
                0x00000000001bb1d0       0x81 /home/jose/catkin_ws/build/parrot_arsdk/arsdk/src/ARSDKBuildUtils/out/arsdk-native/build/libARController/obj/gen/Sources/ARCONTROLLER_Feature.c.o
                0x00000000001bb1d0                ARCONTROLLER_FEATURE_SequoiaCam_Delete
 *fill*         0x00000000001bb251        0xf 
 .text.ARCONTROLLER_FEATURE_SequoiaCam_New
                0x00000000001bb260       0xbb /home/jose/catkin_ws/build/parrot_arsdk/arsdk/src/ARSDKBuildUtils/out/arsdk-native/build/libARController/obj/gen/Sources/ARCONTROLLER_Feature.c.o
                0x00000000001bb260                ARCONTROLLER_FEATURE_SequoiaCam_New
 *fill*         0x00000000001bb31b        0x5 
 .text.ARCONTROLLER_FEATURE_SequoiaCam_GetDictionary
                0x00000000001bb320       0x37 /home/jose/catkin_ws/build/parrot_arsdk/arsdk/src/ARSDKBuildUtils/out/arsdk-native/build/libARController/obj/gen/Sources/ARCONTROLLER_Feature.c.o
                0x00000000001bb320                ARCONTROLLER_FEATURE_SequoiaCam_GetDictionary
 *fill*         0x00000000001bb357        0x9 
 .text.ARCONTROLLER_FEATURE_SequoiaCam_AddCallback
                0x00000000001bb360       0x26 /home/jose/catkin_ws/build/parrot_arsdk/arsdk/src/ARSDKBuildUtils/out/arsdk-native/build/libARController/obj/gen/Sources/ARCONTROLLER_Feature.c.o
                0x00000000001bb360                ARCONTROLLER_FEATURE_SequoiaCam_AddCallback
 *fill*         0x00000000001bb386        0xa 
 .text.ARCONTROLLER_FEATURE_SequoiaCam_RemoveCallback
                0x00000000001bb390       0x26 /home/jose/catkin_ws/build/parrot_arsdk/arsdk/src/ARSDKBuildUtils/out/arsdk-native/build/libARController/obj/gen/Sources/ARCONTROLLER_Feature.c.o
                0x00000000001bb390                ARCONTROLLER_FEATURE_SequoiaCam_RemoveCallback
 *fill*         0x00000000001bb3b6        0xa 
 .text.ARCONTROLLER_FEATURE_SequoiaCam_RegisterARCommands
                0x00000000001bb3c0       0x65 /home/jose/catkin_ws/build/parrot_arsdk/arsdk/src/ARSDKBuildUtils/out/arsdk-native/build/libARController/obj/gen/Sources/ARCONTROLLER_Feature.c.o
                0x00000000001bb3c0                ARCONTROLLER_FEATURE_SequoiaCam_RegisterARCommands
 *fill*         0x00000000001bb425        0xb 
 .text.ARCONTROLLER_FEATURE_SequoiaCam_UnregisterARCommands
                0x00000000001bb430       0x5d /home/jose/catkin_ws/build/parrot_arsdk/arsdk/src/ARSDKBuildUtils/out/arsdk-native/build/libARController/obj/gen/Sources/ARCONTROLLER_Feature.c.o
                0x00000000001bb430                ARCONTROLLER_FEATURE_SequoiaCam_UnregisterARCommands
 *fill*         0x00000000001bb48d        0x3 
 .text.ARCONTROLLER_SequoiaCam_NewCmdElementRadiometricCalibStatus
                0x00000000001bb490      0xbf0 /home/jose/catkin_ws/build/parrot_arsdk/arsdk/src/ARSDKBuildUtils/out/arsdk-native/build/libARController/obj/gen/Sources/ARCONTROLLER_Feature.c.o
                0x00000000001bb490                ARCONTROLLER_SequoiaCam_NewCmdElementRadiometricCalibStatus
 .text.ARCONTROLLER_FEATURE_SequoiaCam_RadiometricCalibStatusCallback
                0x00000000001bc080      0xd1f /home/jose/catkin_ws/build/parrot_arsdk/arsdk/src/ARSDKBuildUtils/out/arsdk-native/build/libARController/obj/gen/Sources/ARCONTROLLER_Feature.c.o
                0x00000000001bc080                ARCONTROLLER_FEATURE_SequoiaCam_RadiometricCalibStatusCallback
 *fill*         0x00000000001bcd9f        0x1 
 .text.ARCONTROLLER_SequoiaCam_NewCmdElementRadiometricCalibResult
                0x00000000001bcda0      0xbf0 /home/jose/catkin_ws/build/parrot_arsdk/arsdk/src/ARSDKBuildUtils/out/arsdk-native/build/libARController/obj/gen/Sources/ARCONTROLLER_Feature.c.o
                0x00000000001bcda0                ARCONTROLLER_SequoiaCam_NewCmdElementRadiometricCalibResult
 .text.ARCONTROLLER_FEATURE_SequoiaCam_RadiometricCalibResultCallback
                0x00000000001bd990      0xd1f /home/jose/catkin_ws/build/parrot_arsdk/arsdk/src/ARSDKBuildUtils/out/arsdk-native/build/libARController/obj/gen/Sources/ARCONTROLLER_Feature.c.o
                0x00000000001bd990                ARCONTROLLER_FEATURE_SequoiaCam_RadiometricCalibResultCallback
 *fill*         0x00000000001be6af        0x1 
 .text.ARCONTROLLER_FEATURE_SequoiaCam_SetNetworkController
                0x00000000001be6b0       0x26 /home/jose/catkin_ws/build/parrot_arsdk/arsdk/src/ARSDKBuildUtils/out/arsdk-native/build/libARController/obj/gen/Sources/ARCONTROLLER_Feature.c.o
                0x00000000001be6b0                ARCONTROLLER_FEATURE_SequoiaCam_SetNetworkController
 *fill*         0x00000000001be6d6        0xa 
 .text.ARCONTROLLER_SequoiaCam_GetCommandElements
                0x00000000001be6e0      0x193 /home/jose/catkin_ws/build/parrot_arsdk/arsdk/src/ARSDKBuildUtils/out/arsdk-native/build/libARController/obj/gen/Sources/ARCONTROLLER_Feature.c.o
                0x00000000001be6e0                ARCONTROLLER_SequoiaCam_GetCommandElements
 *fill*         0x00000000001be873        0xd 
 .text.ARCONTROLLER_FEATURE_SkyController_Delete
                0x00000000001be880       0x91 /home/jose/catkin_ws/build/parrot_arsdk/arsdk/src/ARSDKBuildUtils/out/arsdk-native/build/libARController/obj/gen/Sources/ARCONTROLLER_Feature.c.o
                0x00000000001be880                ARCONTROLLER_FEATURE_SkyController_Delete
 *fill*         0x00000000001be911        0xf 
 .text.ARCONTROLLER_FEATURE_SkyController_New
                0x00000000001be920      0x263 /home/jose/catkin_ws/build/parrot_arsdk/arsdk/src/ARSDKBuildUtils/out/arsdk-native/build/libARController/obj/gen/Sources/ARCONTROLLER_Feature.c.o
                0x00000000001be920                ARCONTROLLER_FEATURE_SkyController_New
 *fill*         0x00000000001beb83        0xd 
 .text.ARCONTROLLER_FEATURE_SkyController_GetDictionary
                0x00000000001beb90       0x3f /home/jose/catkin_ws/build/parrot_arsdk/arsdk/src/ARSDKBuildUtils/out/arsdk-native/build/libARController/obj/gen/Sources/ARCONTROLLER_Feature.c.o
                0x00000000001beb90                ARCONTROLLER_FEATURE_SkyController_GetDictionary
 *fill*         0x00000000001bebcf        0x1 
 .text.ARCONTROLLER_FEATURE_SkyController_AddCallback
                0x00000000001bebd0       0x26 /home/jose/catkin_ws/build/parrot_arsdk/arsdk/src/ARSDKBuildUtils/out/arsdk-native/build/libARController/obj/gen/Sources/ARCONTROLLER_Feature.c.o
                0x00000000001bebd0                ARCONTROLLER_FEATURE_SkyController_AddCallback
 *fill*         0x00000000001bebf6        0xa 
 .text.ARCONTROLLER_FEATURE_SkyController_RemoveCallback
                0x00000000001bec00       0x26 /home/jose/catkin_ws/build/parrot_arsdk/arsdk/src/ARSDKBuildUtils/out/arsdk-native/build/libARController/obj/gen/Sources/ARCONTROLLER_Feature.c.o
                0x00000000001bec00                ARCONTROLLER_FEATURE_SkyController_RemoveCallback
 *fill*         0x00000000001bec26        0xa 
 .text.ARCONTROLLER_FEATURE_SkyController_RegisterARCommands
                0x00000000001bec30      0x57d /home/jose/catkin_ws/build/parrot_arsdk/arsdk/src/ARSDKBuildUtils/out/arsdk-native/build/libARController/obj/gen/Sources/ARCONTROLLER_Feature.c.o
                0x00000000001bec30                ARCONTROLLER_FEATURE_SkyController_RegisterARCommands
 *fill*         0x00000000001bf1ad        0x3 
 .text.ARCONTROLLER_FEATURE_SkyController_UnregisterARCommands
                0x00000000001bf1b0      0x435 /home/jose/catkin_ws/build/parrot_arsdk/arsdk/src/ARSDKBuildUtils/out/arsdk-native/build/libARController/obj/gen/Sources/ARCONTROLLER_Feature.c.o
                0x00000000001bf1b0                ARCONTROLLER_FEATURE_SkyController_UnregisterARCommands
 *fill*         0x00000000001bf5e5        0xb 
 .text.ARCONTROLLER_SkyController_NewCmdElementWifiStateWifiList
                0x00000000001bf5f0     0x1eb8 /home/jose/catkin_ws/build/parrot_arsdk/arsdk/src/ARSDKBuildUtils/out/arsdk-native/build/libARController/obj/gen/Sources/ARCONTROLLER_Feature.c.o
                0x00000000001bf5f0                ARCONTROLLER_SkyController_NewCmdElementWifiStateWifiList
 *fill*         0x00000000001c14a8        0x8 
 .text.ARCONTROLLER_FEATURE_SkyController_WifiStateWifiListCallback
                0x00000000001c14b0      0x5c0 /home/jose/catkin_ws/build/parrot_arsdk/arsdk/src/ARSDKBuildUtils/out/arsdk-native/build/libARController/obj/gen/Sources/ARCONTROLLER_Feature.c.o
                0x00000000001c14b0                ARCONTROLLER_FEATURE_SkyController_WifiStateWifiListCallback
 .text.ARCONTROLLER_SkyController_NewCmdElementWifiStateConnexionChanged
                0x00000000001c1a70      0xa3a /home/jose/catkin_ws/build/parrot_arsdk/arsdk/src/ARSDKBuildUtils/out/arsdk-native/build/libARController/obj/gen/Sources/ARCONTROLLER_Feature.c.o
                0x00000000001c1a70                ARCONTROLLER_SkyController_NewCmdElementWifiStateConnexionChanged
 *fill*         0x00000000001c24aa        0x6 
 .text.ARCONTROLLER_FEATURE_SkyController_WifiStateConnexionChangedCallback
                0x00000000001c24b0      0x56d /home/jose/catkin_ws/build/parrot_arsdk/arsdk/src/ARSDKBuildUtils/out/arsdk-native/build/libARController/obj/gen/Sources/ARCONTROLLER_Feature.c.o
                0x00000000001c24b0                ARCONTROLLER_FEATURE_SkyController_WifiStateConnexionChangedCallback
 *fill*         0x00000000001c2a1d        0x3 
 .text.ARCONTROLLER_SkyController_NewCmdElementWifiStateWifiAuthChannelListChanged
                0x00000000001c2a20     0x111d /home/jose/catkin_ws/build/parrot_arsdk/arsdk/src/ARSDKBuildUtils/out/arsdk-native/build/libARController/obj/gen/Sources/ARCONTROLLER_Feature.c.o
                0x00000000001c2a20                ARCONTROLLER_SkyController_NewCmdElementWifiStateWifiAuthChannelListChanged
 *fill*         0x00000000001c3b3d        0x3 
 .text.ARCONTROLLER_FEATURE_SkyController_WifiStateWifiAuthChannelListChangedCallback
                0x00000000001c3b40      0x585 /home/jose/catkin_ws/build/parrot_arsdk/arsdk/src/ARSDKBuildUtils/out/arsdk-native/build/libARController/obj/gen/Sources/ARCONTROLLER_Feature.c.o
                0x00000000001c3b40                ARCONTROLLER_FEATURE_SkyController_WifiStateWifiAuthChannelListChangedCallback
 *fill*         0x00000000001c40c5        0xb 
 .text.ARCONTROLLER_SkyController_NewCmdElementWifiStateAllWifiAuthChannelChanged
                0x00000000001c40d0       0xb3 /home/jose/catkin_ws/build/parrot_arsdk/arsdk/src/ARSDKBuildUtils/out/arsdk-native/build/libARController/obj/gen/Sources/ARCONTROLLER_Feature.c.o
                0x00000000001c40d0                ARCONTROLLER_SkyController_NewCmdElementWifiStateAllWifiAuthChannelChanged
 *fill*         0x00000000001c4183        0xd 
 .text.ARCONTROLLER_FEATURE_SkyController_WifiStateAllWifiAuthChannelChangedCallback
                0x00000000001c4190      0x55d /home/jose/catkin_ws/build/parrot_arsdk/arsdk/src/ARSDKBuildUtils/out/arsdk-native/build/libARController/obj/gen/Sources/ARCONTROLLER_Feature.c.o
                0x00000000001c4190                ARCONTROLLER_FEATURE_SkyController_WifiStateAllWifiAuthChannelChangedCallback
 *fill*         0x00000000001c46ed        0x3 
 .text.ARCONTROLLER_SkyController_NewCmdElementWifiStateWifiSignalChanged
                0x00000000001c46f0      0x570 /home/jose/catkin_ws/build/parrot_arsdk/arsdk/src/ARSDKBuildUtils/out/arsdk-native/build/libARController/obj/gen/Sources/ARCONTROLLER_Feature.c.o
                0x00000000001c46f0                ARCONTROLLER_SkyController_NewCmdElementWifiStateWifiSignalChanged
 .text.ARCONTROLLER_FEATURE_SkyController_WifiStateWifiSignalChangedCallback
                0x00000000001c4c60      0x56d /home/jose/catkin_ws/build/parrot_arsdk/arsdk/src/ARSDKBuildUtils/out/arsdk-native/build/libARController/obj/gen/Sources/ARCONTROLLER_Feature.c.o
                0x00000000001c4c60                ARCONTROLLER_FEATURE_SkyController_WifiStateWifiSignalChangedCallback
 *fill*         0x00000000001c51cd        0x3 
 .text.ARCONTROLLER_SkyController_NewCmdElementWifiStateWifiAuthChannelListChangedV2
                0x00000000001c51d0     0x10df /home/jose/catkin_ws/build/parrot_arsdk/arsdk/src/ARSDKBuildUtils/out/arsdk-native/build/libARController/obj/gen/Sources/ARCONTROLLER_Feature.c.o
                0x00000000001c51d0                ARCONTROLLER_SkyController_NewCmdElementWifiStateWifiAuthChannelListChangedV2
 *fill*         0x00000000001c62af        0x1 
 .text.ARCONTROLLER_FEATURE_SkyController_WifiStateWifiAuthChannelListChangedV2Callback
                0x00000000001c62b0      0x7e1 /home/jose/catkin_ws/build/parrot_arsdk/arsdk/src/ARSDKBuildUtils/out/arsdk-native/build/libARController/obj/gen/Sources/ARCONTROLLER_Feature.c.o
                0x00000000001c62b0                ARCONTROLLER_FEATURE_SkyController_WifiStateWifiAuthChannelListChangedV2Callback
 *fill*         0x00000000001c6a91        0xf 
 .text.ARCONTROLLER_SkyController_NewCmdElementWifiStateWifiCountryChanged
                0x00000000001c6aa0      0x5a2 /home/jose/catkin_ws/build/parrot_arsdk/arsdk/src/ARSDKBuildUtils/out/arsdk-native/build/libARController/obj/gen/Sources/ARCONTROLLER_Feature.c.o
                0x00000000001c6aa0                ARCONTROLLER_SkyController_NewCmdElementWifiStateWifiCountryChanged
 *fill*         0x00000000001c7042        0xe 
 .text.ARCONTROLLER_FEATURE_SkyController_WifiStateWifiCountryChangedCallback
                0x00000000001c7050      0x56d /home/jose/catkin_ws/build/parrot_arsdk/arsdk/src/ARSDKBuildUtils/out/arsdk-native/build/libARController/obj/gen/Sources/ARCONTROLLER_Feature.c.o
                0x00000000001c7050                ARCONTROLLER_FEATURE_SkyController_WifiStateWifiCountryChangedCallback
 *fill*         0x00000000001c75bd        0x3 
 .text.ARCONTROLLER_SkyController_NewCmdElementWifiStateWifiEnvironmentChanged
                0x00000000001c75c0      0x570 /home/jose/catkin_ws/build/parrot_arsdk/arsdk/src/ARSDKBuildUtils/out/arsdk-native/build/libARController/obj/gen/Sources/ARCONTROLLER_Feature.c.o
                0x00000000001c75c0                ARCONTROLLER_SkyController_NewCmdElementWifiStateWifiEnvironmentChanged
 .text.ARCONTROLLER_FEATURE_SkyController_WifiStateWifiEnvironmentChangedCallback
                0x00000000001c7b30      0x56d /home/jose/catkin_ws/build/parrot_arsdk/arsdk/src/ARSDKBuildUtils/out/arsdk-native/build/libARController/obj/gen/Sources/ARCONTROLLER_Feature.c.o
                0x00000000001c7b30                ARCONTROLLER_FEATURE_SkyController_WifiStateWifiEnvironmentChangedCallback
 *fill*         0x00000000001c809d        0x3 
 .text.ARCONTROLLER_SkyController_NewCmdElementDeviceStateDeviceList
                0x00000000001c80a0      0x712 /home/jose/catkin_ws/build/parrot_arsdk/arsdk/src/ARSDKBuildUtils/out/arsdk-native/build/libARController/obj/gen/Sources/ARCONTROLLER_Feature.c.o
                0x00000000001c80a0                ARCONTROLLER_SkyController_NewCmdElementDeviceStateDeviceList
 *fill*         0x00000000001c87b2        0xe 
 .text.ARCONTROLLER_FEATURE_SkyController_DeviceStateDeviceListCallback
                0x00000000001c87c0      0x575 /home/jose/catkin_ws/build/parrot_arsdk/arsdk/src/ARSDKBuildUtils/out/arsdk-native/build/libARController/obj/gen/Sources/ARCONTROLLER_Feature.c.o
                0x00000000001c87c0                ARCONTROLLER_FEATURE_SkyController_DeviceStateDeviceListCallback
 *fill*         0x00000000001c8d35        0xb 
 .text.ARCONTROLLER_SkyController_NewCmdElementDeviceStateConnexionChanged
                0x00000000001c8d40      0xf7b /home/jose/catkin_ws/build/parrot_arsdk/arsdk/src/ARSDKBuildUtils/out/arsdk-native/build/libARController/obj/gen/Sources/ARCONTROLLER_Feature.c.o
                0x00000000001c8d40                ARCONTROLLER_SkyController_NewCmdElementDeviceStateConnexionChanged
 *fill*         0x00000000001c9cbb        0x5 
 .text.ARCONTROLLER_FEATURE_SkyController_DeviceStateConnexionChangedCallback
                0x00000000001c9cc0      0x56d /home/jose/catkin_ws/build/parrot_arsdk/arsdk/src/ARSDKBuildUtils/out/arsdk-native/build/libARController/obj/gen/Sources/ARCONTROLLER_Feature.c.o
                0x00000000001c9cc0                ARCONTROLLER_FEATURE_SkyController_DeviceStateConnexionChangedCallback
 *fill*         0x00000000001ca22d        0x3 
 .text.ARCONTROLLER_SkyController_NewCmdElementSettingsStateAllSettingsChanged
                0x00000000001ca230        0x9 /home/jose/catkin_ws/build/parrot_arsdk/arsdk/src/ARSDKBuildUtils/out/arsdk-native/build/libARController/obj/gen/Sources/ARCONTROLLER_Feature.c.o
                0x00000000001ca230                ARCONTROLLER_SkyController_NewCmdElementSettingsStateAllSettingsChanged
 *fill*         0x00000000001ca239        0x7 
 .text.ARCONTROLLER_FEATURE_SkyController_SettingsStateAllSettingsChangedCallback
                0x00000000001ca240      0x55d /home/jose/catkin_ws/build/parrot_arsdk/arsdk/src/ARSDKBuildUtils/out/arsdk-native/build/libARController/obj/gen/Sources/ARCONTROLLER_Feature.c.o
                0x00000000001ca240                ARCONTROLLER_FEATURE_SkyController_SettingsStateAllSettingsChangedCallback
 *fill*         0x00000000001ca79d        0x3 
 .text.ARCONTROLLER_SkyController_NewCmdElementSettingsStateResetChanged
                0x00000000001ca7a0        0x9 /home/jose/catkin_ws/build/parrot_arsdk/arsdk/src/ARSDKBuildUtils/out/arsdk-native/build/libARController/obj/gen/Sources/ARCONTROLLER_Feature.c.o
                0x00000000001ca7a0                ARCONTROLLER_SkyController_NewCmdElementSettingsStateResetChanged
 *fill*         0x00000000001ca7a9        0x7 
 .text.ARCONTROLLER_FEATURE_SkyController_SettingsStateResetChangedCallback
                0x00000000001ca7b0      0x55d /home/jose/catkin_ws/build/parrot_arsdk/arsdk/src/ARSDKBuildUtils/out/arsdk-native/build/libARController/obj/gen/Sources/ARCONTROLLER_Feature.c.o
                0x00000000001ca7b0                ARCONTROLLER_FEATURE_SkyController_SettingsStateResetChangedCallback
 *fill*         0x00000000001cad0d        0x3 
 .text.ARCONTROLLER_SkyController_NewCmdElementSettingsStateProductSerialChanged
                0x00000000001cad10      0x5a2 /home/jose/catkin_ws/build/parrot_arsdk/arsdk/src/ARSDKBuildUtils/out/arsdk-native/build/libARController/obj/gen/Sources/ARCONTROLLER_Feature.c.o
                0x00000000001cad10                ARCONTROLLER_SkyController_NewCmdElementSettingsStateProductSerialChanged
 *fill*         0x00000000001cb2b2        0xe 
 .text.ARCONTROLLER_FEATURE_SkyController_SettingsStateProductSerialChangedCallback
                0x00000000001cb2c0      0x56d /home/jose/catkin_ws/build/parrot_arsdk/arsdk/src/ARSDKBuildUtils/out/arsdk-native/build/libARController/obj/gen/Sources/ARCONTROLLER_Feature.c.o
                0x00000000001cb2c0                ARCONTROLLER_FEATURE_SkyController_SettingsStateProductSerialChangedCallback
 *fill*         0x00000000001cb82d        0x3 
 .text.ARCONTROLLER_SkyController_NewCmdElementSettingsStateProductVariantChanged
                0x00000000001cb830      0x570 /home/jose/catkin_ws/build/parrot_arsdk/arsdk/src/ARSDKBuildUtils/out/arsdk-native/build/libARController/obj/gen/Sources/ARCONTROLLER_Feature.c.o
                0x00000000001cb830                ARCONTROLLER_SkyController_NewCmdElementSettingsStateProductVariantChanged
 .text.ARCONTROLLER_FEATURE_SkyController_SettingsStateProductVariantChangedCallback
                0x00000000001cbda0      0x56d /home/jose/catkin_ws/build/parrot_arsdk/arsdk/src/ARSDKBuildUtils/out/arsdk-native/build/libARController/obj/gen/Sources/ARCONTROLLER_Feature.c.o
                0x00000000001cbda0                ARCONTROLLER_FEATURE_SkyController_SettingsStateProductVariantChangedCallback
 *fill*         0x00000000001cc30d        0x3 
 .text.ARCONTROLLER_SkyController_NewCmdElementSettingsStateProductVersionChanged
                0x00000000001cc310      0xa7a /home/jose/catkin_ws/build/parrot_arsdk/arsdk/src/ARSDKBuildUtils/out/arsdk-native/build/libARController/obj/gen/Sources/ARCONTROLLER_Feature.c.o
                0x00000000001cc310                ARCONTROLLER_SkyController_NewCmdElementSettingsStateProductVersionChanged
 *fill*         0x00000000001ccd8a        0x6 
 .text.ARCONTROLLER_FEATURE_SkyController_SettingsStateProductVersionChangedCallback
                0x00000000001ccd90      0x56d /home/jose/catkin_ws/build/parrot_arsdk/arsdk/src/ARSDKBuildUtils/out/arsdk-native/build/libARController/obj/gen/Sources/ARCONTROLLER_Feature.c.o
                0x00000000001ccd90                ARCONTROLLER_FEATURE_SkyController_SettingsStateProductVersionChangedCallback
 *fill*         0x00000000001cd2fd        0x3 
 .text.ARCONTROLLER_SkyController_NewCmdElementSettingsStateCPUID
                0x00000000001cd300      0x5a2 /home/jose/catkin_ws/build/parrot_arsdk/arsdk/src/ARSDKBuildUtils/out/arsdk-native/build/libARController/obj/gen/Sources/ARCONTROLLER_Feature.c.o
                0x00000000001cd300                ARCONTROLLER_SkyController_NewCmdElementSettingsStateCPUID
 *fill*         0x00000000001cd8a2        0xe 
 .text.ARCONTROLLER_FEATURE_SkyController_SettingsStateCPUIDCallback
                0x00000000001cd8b0      0x56d /home/jose/catkin_ws/build/parrot_arsdk/arsdk/src/ARSDKBuildUtils/out/arsdk-native/build/libARController/obj/gen/Sources/ARCONTROLLER_Feature.c.o
                0x00000000001cd8b0                ARCONTROLLER_FEATURE_SkyController_SettingsStateCPUIDCallback
 *fill*         0x00000000001cde1d        0x3 
 .text.ARCONTROLLER_SkyController_NewCmdElementCommonStateAllStatesChanged
                0x00000000001cde20        0x9 /home/jose/catkin_ws/build/parrot_arsdk/arsdk/src/ARSDKBuildUtils/out/arsdk-native/build/libARController/obj/gen/Sources/ARCONTROLLER_Feature.c.o
                0x00000000001cde20                ARCONTROLLER_SkyController_NewCmdElementCommonStateAllStatesChanged
 *fill*         0x00000000001cde29        0x7 
 .text.ARCONTROLLER_FEATURE_SkyController_CommonStateAllStatesChangedCallback
                0x00000000001cde30      0x55d /home/jose/catkin_ws/build/parrot_arsdk/arsdk/src/ARSDKBuildUtils/out/arsdk-native/build/libARController/obj/gen/Sources/ARCONTROLLER_Feature.c.o
                0x00000000001cde30                ARCONTROLLER_FEATURE_SkyController_CommonStateAllStatesChangedCallback
 *fill*         0x00000000001ce38d        0x3 
 .text.ARCONTROLLER_SkyController_NewCmdElementSkyControllerStateBatteryChanged
                0x00000000001ce390      0x570 /home/jose/catkin_ws/build/parrot_arsdk/arsdk/src/ARSDKBuildUtils/out/arsdk-native/build/libARController/obj/gen/Sources/ARCONTROLLER_Feature.c.o
                0x00000000001ce390                ARCONTROLLER_SkyController_NewCmdElementSkyControllerStateBatteryChanged
 .text.ARCONTROLLER_FEATURE_SkyController_SkyControllerStateBatteryChangedCallback
                0x00000000001ce900      0x56d /home/jose/catkin_ws/build/parrot_arsdk/arsdk/src/ARSDKBuildUtils/out/arsdk-native/build/libARController/obj/gen/Sources/ARCONTROLLER_Feature.c.o
                0x00000000001ce900                ARCONTROLLER_FEATURE_SkyController_SkyControllerStateBatteryChangedCallback
 *fill*         0x00000000001cee6d        0x3 
 .text.ARCONTROLLER_SkyController_NewCmdElementSkyControllerStateGpsFixChanged
                0x00000000001cee70      0x570 /home/jose/catkin_ws/build/parrot_arsdk/arsdk/src/ARSDKBuildUtils/out/arsdk-native/build/libARController/obj/gen/Sources/ARCONTROLLER_Feature.c.o
                0x00000000001cee70                ARCONTROLLER_SkyController_NewCmdElementSkyControllerStateGpsFixChanged
 .text.ARCONTROLLER_FEATURE_SkyController_SkyControllerStateGpsFixChangedCallback
                0x00000000001cf3e0      0x56d /home/jose/catkin_ws/build/parrot_arsdk/arsdk/src/ARSDKBuildUtils/out/arsdk-native/build/libARController/obj/gen/Sources/ARCONTROLLER_Feature.c.o
                0x00000000001cf3e0                ARCONTROLLER_FEATURE_SkyController_SkyControllerStateGpsFixChangedCallback
 *fill*         0x00000000001cf94d        0x3 
 .text.ARCONTROLLER_SkyController_NewCmdElementSkyControllerStateGpsPositionChanged
                0x00000000001cf950     0x1458 /home/jose/catkin_ws/build/parrot_arsdk/arsdk/src/ARSDKBuildUtils/out/arsdk-native/build/libARController/obj/gen/Sources/ARCONTROLLER_Feature.c.o
                0x00000000001cf950                ARCONTROLLER_SkyController_NewCmdElementSkyControllerStateGpsPositionChanged
 *fill*         0x00000000001d0da8        0x8 
 .text.ARCONTROLLER_FEATURE_SkyController_SkyControllerStateGpsPositionChangedCallback
                0x00000000001d0db0      0x5d5 /home/jose/catkin_ws/build/parrot_arsdk/arsdk/src/ARSDKBuildUtils/out/arsdk-native/build/libARController/obj/gen/Sources/ARCONTROLLER_Feature.c.o
                0x00000000001d0db0                ARCONTROLLER_FEATURE_SkyController_SkyControllerStateGpsPositionChangedCallback
 *fill*         0x00000000001d1385        0xb 
 .text.ARCONTROLLER_SkyController_NewCmdElementSkyControllerStateBatteryState
                0x00000000001d1390      0x570 /home/jose/catkin_ws/build/parrot_arsdk/arsdk/src/ARSDKBuildUtils/out/arsdk-native/build/libARController/obj/gen/Sources/ARCONTROLLER_Feature.c.o
                0x00000000001d1390                ARCONTROLLER_SkyController_NewCmdElementSkyControllerStateBatteryState
 .text.ARCONTROLLER_FEATURE_SkyController_SkyControllerStateBatteryStateCallback
                0x00000000001d1900      0x56d /home/jose/catkin_ws/build/parrot_arsdk/arsdk/src/ARSDKBuildUtils/out/arsdk-native/build/libARController/obj/gen/Sources/ARCONTROLLER_Feature.c.o
                0x00000000001d1900                ARCONTROLLER_FEATURE_SkyController_SkyControllerStateBatteryStateCallback
 *fill*         0x00000000001d1e6d        0x3 
 .text.ARCONTROLLER_SkyController_NewCmdElementSkyControllerStateAttitudeChanged
                0x00000000001d1e70     0x145a /home/jose/catkin_ws/build/parrot_arsdk/arsdk/src/ARSDKBuildUtils/out/arsdk-native/build/libARController/obj/gen/Sources/ARCONTROLLER_Feature.c.o
                0x00000000001d1e70                ARCONTROLLER_SkyController_NewCmdElementSkyControllerStateAttitudeChanged
 *fill*         0x00000000001d32ca        0x6 
 .text.ARCONTROLLER_FEATURE_SkyController_SkyControllerStateAttitudeChangedCallback
                0x00000000001d32d0      0x5d5 /home/jose/catkin_ws/build/parrot_arsdk/arsdk/src/ARSDKBuildUtils/out/arsdk-native/build/libARController/obj/gen/Sources/ARCONTROLLER_Feature.c.o
                0x00000000001d32d0                ARCONTROLLER_FEATURE_SkyController_SkyControllerStateAttitudeChangedCallback
 *fill*         0x00000000001d38a5        0xb 
 .text.ARCONTROLLER_SkyController_NewCmdElementAccessPointSettingsStateAccessPointSSIDChanged
                0x00000000001d38b0      0x5a2 /home/jose/catkin_ws/build/parrot_arsdk/arsdk/src/ARSDKBuildUtils/out/arsdk-native/build/libARController/obj/gen/Sources/ARCONTROLLER_Feature.c.o
                0x00000000001d38b0                ARCONTROLLER_SkyController_NewCmdElementAccessPointSettingsStateAccessPointSSIDChanged
 *fill*         0x00000000001d3e52        0xe 
 .text.ARCONTROLLER_FEATURE_SkyController_AccessPointSettingsStateAccessPointSSIDChangedCallback
                0x00000000001d3e60      0x56d /home/jose/catkin_ws/build/parrot_arsdk/arsdk/src/ARSDKBuildUtils/out/arsdk-native/build/libARController/obj/gen/Sources/ARCONTROLLER_Feature.c.o
                0x00000000001d3e60                ARCONTROLLER_FEATURE_SkyController_AccessPointSettingsStateAccessPointSSIDChangedCallback
 *fill*         0x00000000001d43cd        0x3 
 .text.ARCONTROLLER_SkyController_NewCmdElementAccessPointSettingsStateAccessPointChannelChanged
                0x00000000001d43d0      0x570 /home/jose/catkin_ws/build/parrot_arsdk/arsdk/src/ARSDKBuildUtils/out/arsdk-native/build/libARController/obj/gen/Sources/ARCONTROLLER_Feature.c.o
                0x00000000001d43d0                ARCONTROLLER_SkyController_NewCmdElementAccessPointSettingsStateAccessPointChannelChanged
 .text.ARCONTROLLER_FEATURE_SkyController_AccessPointSettingsStateAccessPointChannelChangedCallback
                0x00000000001d4940      0x56d /home/jose/catkin_ws/build/parrot_arsdk/arsdk/src/ARSDKBuildUtils/out/arsdk-native/build/libARController/obj/gen/Sources/ARCONTROLLER_Feature.c.o
                0x00000000001d4940                ARCONTROLLER_FEATURE_SkyController_AccessPointSettingsStateAccessPointChannelChangedCallback
 *fill*         0x00000000001d4ead        0x3 
 .text.ARCONTROLLER_SkyController_NewCmdElementAccessPointSettingsStateWifiSelectionChanged
                0x00000000001d4eb0      0xf1b /home/jose/catkin_ws/build/parrot_arsdk/arsdk/src/ARSDKBuildUtils/out/arsdk-native/build/libARController/obj/gen/Sources/ARCONTROLLER_Feature.c.o
                0x00000000001d4eb0                ARCONTROLLER_SkyController_NewCmdElementAccessPointSettingsStateWifiSelectionChanged
 *fill*         0x00000000001d5dcb        0x5 
 .text.ARCONTROLLER_FEATURE_SkyController_AccessPointSettingsStateWifiSelectionChangedCallback
                0x00000000001d5dd0      0x56d /home/jose/catkin_ws/build/parrot_arsdk/arsdk/src/ARSDKBuildUtils/out/arsdk-native/build/libARController/obj/gen/Sources/ARCONTROLLER_Feature.c.o
                0x00000000001d5dd0                ARCONTROLLER_FEATURE_SkyController_AccessPointSettingsStateWifiSelectionChangedCallback
 *fill*         0x00000000001d633d        0x3 
 .text.ARCONTROLLER_SkyController_NewCmdElementAccessPointSettingsStateWifiSecurityChanged
                0x00000000001d6340      0xa1b /home/jose/catkin_ws/build/parrot_arsdk/arsdk/src/ARSDKBuildUtils/out/arsdk-native/build/libARController/obj/gen/Sources/ARCONTROLLER_Feature.c.o
                0x00000000001d6340                ARCONTROLLER_SkyController_NewCmdElementAccessPointSettingsStateWifiSecurityChanged
 *fill*         0x00000000001d6d5b        0x5 
 .text.ARCONTROLLER_FEATURE_SkyController_AccessPointSettingsStateWifiSecurityChangedCallback
                0x00000000001d6d60      0x56d /home/jose/catkin_ws/build/parrot_arsdk/arsdk/src/ARSDKBuildUtils/out/arsdk-native/build/libARController/obj/gen/Sources/ARCONTROLLER_Feature.c.o
                0x00000000001d6d60                ARCONTROLLER_FEATURE_SkyController_AccessPointSettingsStateWifiSecurityChangedCallback
 *fill*         0x00000000001d72cd        0x3 
 .text.ARCONTROLLER_SkyController_NewCmdElementGamepadInfosStateGamepadControl
                0x00000000001d72d0     0x1180 /home/jose/catkin_ws/build/parrot_arsdk/arsdk/src/ARSDKBuildUtils/out/arsdk-native/build/libARController/obj/gen/Sources/ARCONTROLLER_Feature.c.o
                0x00000000001d72d0                ARCONTROLLER_SkyController_NewCmdElementGamepadInfosStateGamepadControl
 .text.ARCONTROLLER_FEATURE_SkyController_GamepadInfosStateGamepadControlCallback
                0x00000000001d8450      0x585 /home/jose/catkin_ws/build/parrot_arsdk/arsdk/src/ARSDKBuildUtils/out/arsdk-native/build/libARController/obj/gen/Sources/ARCONTROLLER_Feature.c.o
                0x00000000001d8450                ARCONTROLLER_FEATURE_SkyController_GamepadInfosStateGamepadControlCallback
 *fill*         0x00000000001d89d5        0xb 
 .text.ARCONTROLLER_SkyController_NewCmdElementGamepadInfosStateAllGamepadControlsSent
                0x00000000001d89e0        0x9 /home/jose/catkin_ws/build/parrot_arsdk/arsdk/src/ARSDKBuildUtils/out/arsdk-native/build/libARController/obj/gen/Sources/ARCONTROLLER_Feature.c.o
                0x00000000001d89e0                ARCONTROLLER_SkyController_NewCmdElementGamepadInfosStateAllGamepadControlsSent
 *fill*         0x00000000001d89e9        0x7 
 .text.ARCONTROLLER_FEATURE_SkyController_GamepadInfosStateAllGamepadControlsSentCallback
                0x00000000001d89f0      0x55d /home/jose/catkin_ws/build/parrot_arsdk/arsdk/src/ARSDKBuildUtils/out/arsdk-native/build/libARController/obj/gen/Sources/ARCONTROLLER_Feature.c.o
                0x00000000001d89f0                ARCONTROLLER_FEATURE_SkyController_GamepadInfosStateAllGamepadControlsSentCallback
 *fill*         0x00000000001d8f4d        0x3 
 .text.ARCONTROLLER_SkyController_NewCmdElementButtonMappingsStateCurrentButtonMappings
                0x00000000001d8f50      0xc42 /home/jose/catkin_ws/build/parrot_arsdk/arsdk/src/ARSDKBuildUtils/out/arsdk-native/build/libARController/obj/gen/Sources/ARCONTROLLER_Feature.c.o
                0x00000000001d8f50                ARCONTROLLER_SkyController_NewCmdElementButtonMappingsStateCurrentButtonMappings
 *fill*         0x00000000001d9b92        0xe 
 .text.ARCONTROLLER_FEATURE_SkyController_ButtonMappingsStateCurrentButtonMappingsCallback
                0x00000000001d9ba0      0x56d /home/jose/catkin_ws/build/parrot_arsdk/arsdk/src/ARSDKBuildUtils/out/arsdk-native/build/libARController/obj/gen/Sources/ARCONTROLLER_Feature.c.o
                0x00000000001d9ba0                ARCONTROLLER_FEATURE_SkyController_ButtonMappingsStateCurrentButtonMappingsCallback
 *fill*         0x00000000001da10d        0x3 
 .text.ARCONTROLLER_SkyController_NewCmdElementButtonMappingsStateAllCurrentButtonMappingsSent
                0x00000000001da110        0x9 /home/jose/catkin_ws/build/parrot_arsdk/arsdk/src/ARSDKBuildUtils/out/arsdk-native/build/libARController/obj/gen/Sources/ARCONTROLLER_Feature.c.o
                0x00000000001da110                ARCONTROLLER_SkyController_NewCmdElementButtonMappingsStateAllCurrentButtonMappingsSent
 *fill*         0x00000000001da119        0x7 
 .text.ARCONTROLLER_FEATURE_SkyController_ButtonMappingsStateAllCurrentButtonMappingsSentCallback
                0x00000000001da120      0x55d /home/jose/catkin_ws/build/parrot_arsdk/arsdk/src/ARSDKBuildUtils/out/arsdk-native/build/libARController/obj/gen/Sources/ARCONTROLLER_Feature.c.o
                0x00000000001da120                ARCONTROLLER_FEATURE_SkyController_ButtonMappingsStateAllCurrentButtonMappingsSentCallback
 *fill*         0x00000000001da67d        0x3 
 .text.ARCONTROLLER_SkyController_NewCmdElementButtonMappingsStateAvailableButtonMappings
                0x00000000001da680      0xa5a /home/jose/catkin_ws/build/parrot_arsdk/arsdk/src/ARSDKBuildUtils/out/arsdk-native/build/libARController/obj/gen/Sources/ARCONTROLLER_Feature.c.o
                0x00000000001da680                ARCONTROLLER_SkyController_NewCmdElementButtonMappingsStateAvailableButtonMappings
 *fill*         0x00000000001db0da        0x6 
 .text.ARCONTROLLER_FEATURE_SkyController_ButtonMappingsStateAvailableButtonMappingsCallback
                0x00000000001db0e0      0x56d /home/jose/catkin_ws/build/parrot_arsdk/arsdk/src/ARSDKBuildUtils/out/arsdk-native/build/libARController/obj/gen/Sources/ARCONTROLLER_Feature.c.o
                0x00000000001db0e0                ARCONTROLLER_FEATURE_SkyController_ButtonMappingsStateAvailableButtonMappingsCallback
 *fill*         0x00000000001db64d        0x3 
 .text.ARCONTROLLER_SkyController_NewCmdElementButtonMappingsStateAllAvailableButtonsMappingsSent
                0x00000000001db650        0x9 /home/jose/catkin_ws/build/parrot_arsdk/arsdk/src/ARSDKBuildUtils/out/arsdk-native/build/libARController/obj/gen/Sources/ARCONTROLLER_Feature.c.o
                0x00000000001db650                ARCONTROLLER_SkyController_NewCmdElementButtonMappingsStateAllAvailableButtonsMappingsSent
 *fill*         0x00000000001db659        0x7 
 .text.ARCONTROLLER_FEATURE_SkyController_ButtonMappingsStateAllAvailableButtonsMappingsSentCallback
                0x00000000001db660      0x55d /home/jose/catkin_ws/build/parrot_arsdk/arsdk/src/ARSDKBuildUtils/out/arsdk-native/build/libARController/obj/gen/Sources/ARCONTROLLER_Feature.c.o
                0x00000000001db660                ARCONTROLLER_FEATURE_SkyController_ButtonMappingsStateAllAvailableButtonsMappingsSentCallback
 *fill*         0x00000000001dbbbd        0x3 
 .text.ARCONTROLLER_SkyController_NewCmdElementAxisMappingsStateCurrentAxisMappings
                0x00000000001dbbc0      0xc42 /home/jose/catkin_ws/build/parrot_arsdk/arsdk/src/ARSDKBuildUtils/out/arsdk-native/build/libARController/obj/gen/Sources/ARCONTROLLER_Feature.c.o
                0x00000000001dbbc0                ARCONTROLLER_SkyController_NewCmdElementAxisMappingsStateCurrentAxisMappings
 *fill*         0x00000000001dc802        0xe 
 .text.ARCONTROLLER_FEATURE_SkyController_AxisMappingsStateCurrentAxisMappingsCallback
                0x00000000001dc810      0x56d /home/jose/catkin_ws/build/parrot_arsdk/arsdk/src/ARSDKBuildUtils/out/arsdk-native/build/libARController/obj/gen/Sources/ARCONTROLLER_Feature.c.o
                0x00000000001dc810                ARCONTROLLER_FEATURE_SkyController_AxisMappingsStateCurrentAxisMappingsCallback
 *fill*         0x00000000001dcd7d        0x3 
 .text.ARCONTROLLER_SkyController_NewCmdElementAxisMappingsStateAllCurrentAxisMappingsSent
                0x00000000001dcd80        0x9 /home/jose/catkin_ws/build/parrot_arsdk/arsdk/src/ARSDKBuildUtils/out/arsdk-native/build/libARController/obj/gen/Sources/ARCONTROLLER_Feature.c.o
                0x00000000001dcd80                ARCONTROLLER_SkyController_NewCmdElementAxisMappingsStateAllCurrentAxisMappingsSent
 *fill*         0x00000000001dcd89        0x7 
 .text.ARCONTROLLER_FEATURE_SkyController_AxisMappingsStateAllCurrentAxisMappingsSentCallback
                0x00000000001dcd90      0x55d /home/jose/catkin_ws/build/parrot_arsdk/arsdk/src/ARSDKBuildUtils/out/arsdk-native/build/libARController/obj/gen/Sources/ARCONTROLLER_Feature.c.o
                0x00000000001dcd90                ARCONTROLLER_FEATURE_SkyController_AxisMappingsStateAllCurrentAxisMappingsSentCallback
 *fill*         0x00000000001dd2ed        0x3 
 .text.ARCONTROLLER_SkyController_NewCmdElementAxisMappingsStateAvailableAxisMappings
                0x00000000001dd2f0      0xa5a /home/jose/catkin_ws/build/parrot_arsdk/arsdk/src/ARSDKBuildUtils/out/arsdk-native/build/libARController/obj/gen/Sources/ARCONTROLLER_Feature.c.o
                0x00000000001dd2f0                ARCONTROLLER_SkyController_NewCmdElementAxisMappingsStateAvailableAxisMappings
 *fill*         0x00000000001ddd4a        0x6 
 .text.ARCONTROLLER_FEATURE_SkyController_AxisMappingsStateAvailableAxisMappingsCallback
                0x00000000001ddd50      0x56d /home/jose/catkin_ws/build/parrot_arsdk/arsdk/src/ARSDKBuildUtils/out/arsdk-native/build/libARController/obj/gen/Sources/ARCONTROLLER_Feature.c.o
                0x00000000001ddd50                ARCONTROLLER_FEATURE_SkyController_AxisMappingsStateAvailableAxisMappingsCallback
 *fill*         0x00000000001de2bd        0x3 
 .text.ARCONTROLLER_SkyController_NewCmdElementAxisMappingsStateAllAvailableAxisMappingsSent
                0x00000000001de2c0        0x9 /home/jose/catkin_ws/build/parrot_arsdk/arsdk/src/ARSDKBuildUtils/out/arsdk-native/build/libARController/obj/gen/Sources/ARCONTROLLER_Feature.c.o
                0x00000000001de2c0                ARCONTROLLER_SkyController_NewCmdElementAxisMappingsStateAllAvailableAxisMappingsSent
 *fill*         0x00000000001de2c9        0x7 
 .text.ARCONTROLLER_FEATURE_SkyController_AxisMappingsStateAllAvailableAxisMappingsSentCallback
                0x00000000001de2d0      0x55d /home/jose/catkin_ws/build/parrot_arsdk/arsdk/src/ARSDKBuildUtils/out/arsdk-native/build/libARController/obj/gen/Sources/ARCONTROLLER_Feature.c.o
                0x00000000001de2d0                ARCONTROLLER_FEATURE_SkyController_AxisMappingsStateAllAvailableAxisMappingsSentCallback
 *fill*         0x00000000001de82d        0x3 
 .text.ARCONTROLLER_SkyController_NewCmdElementAxisFiltersStateCurrentAxisFilters
                0x00000000001de830      0xc42 /home/jose/catkin_ws/build/parrot_arsdk/arsdk/src/ARSDKBuildUtils/out/arsdk-native/build/libARController/obj/gen/Sources/ARCONTROLLER_Feature.c.o
                0x00000000001de830                ARCONTROLLER_SkyController_NewCmdElementAxisFiltersStateCurrentAxisFilters
 *fill*         0x00000000001df472        0xe 
 .text.ARCONTROLLER_FEATURE_SkyController_AxisFiltersStateCurrentAxisFiltersCallback
                0x00000000001df480      0x56d /home/jose/catkin_ws/build/parrot_arsdk/arsdk/src/ARSDKBuildUtils/out/arsdk-native/build/libARController/obj/gen/Sources/ARCONTROLLER_Feature.c.o
                0x00000000001df480                ARCONTROLLER_FEATURE_SkyController_AxisFiltersStateCurrentAxisFiltersCallback
 *fill*         0x00000000001df9ed        0x3 
 .text.ARCONTROLLER_SkyController_NewCmdElementAxisFiltersStateAllCurrentFiltersSent
                0x00000000001df9f0        0x9 /home/jose/catkin_ws/build/parrot_arsdk/arsdk/src/ARSDKBuildUtils/out/arsdk-native/build/libARController/obj/gen/Sources/ARCONTROLLER_Feature.c.o
                0x00000000001df9f0                ARCONTROLLER_SkyController_NewCmdElementAxisFiltersStateAllCurrentFiltersSent
 *fill*         0x00000000001df9f9        0x7 
 .text.ARCONTROLLER_FEATURE_SkyController_AxisFiltersStateAllCurrentFiltersSentCallback
                0x00000000001dfa00      0x55d /home/jose/catkin_ws/build/parrot_arsdk/arsdk/src/ARSDKBuildUtils/out/arsdk-native/build/libARController/obj/gen/Sources/ARCONTROLLER_Feature.c.o
                0x00000000001dfa00                ARCONTROLLER_FEATURE_SkyController_AxisFiltersStateAllCurrentFiltersSentCallback
 *fill*         0x00000000001dff5d        0x3 
 .text.ARCONTROLLER_SkyController_NewCmdElementAxisFiltersStatePresetAxisFilters
                0x00000000001dff60      0xa5a /home/jose/catkin_ws/build/parrot_arsdk/arsdk/src/ARSDKBuildUtils/out/arsdk-native/build/libARController/obj/gen/Sources/ARCONTROLLER_Feature.c.o
                0x00000000001dff60                ARCONTROLLER_SkyController_NewCmdElementAxisFiltersStatePresetAxisFilters
 *fill*         0x00000000001e09ba        0x6 
 .text.ARCONTROLLER_FEATURE_SkyController_AxisFiltersStatePresetAxisFiltersCallback
                0x00000000001e09c0      0x56d /home/jose/catkin_ws/build/parrot_arsdk/arsdk/src/ARSDKBuildUtils/out/arsdk-native/build/libARController/obj/gen/Sources/ARCONTROLLER_Feature.c.o
                0x00000000001e09c0                ARCONTROLLER_FEATURE_SkyController_AxisFiltersStatePresetAxisFiltersCallback
 *fill*         0x00000000001e0f2d        0x3 
 .text.ARCONTROLLER_SkyController_NewCmdElementAxisFiltersStateAllPresetFiltersSent
                0x00000000001e0f30        0x9 /home/jose/catkin_ws/build/parrot_arsdk/arsdk/src/ARSDKBuildUtils/out/arsdk-native/build/libARController/obj/gen/Sources/ARCONTROLLER_Feature.c.o
                0x00000000001e0f30                ARCONTROLLER_SkyController_NewCmdElementAxisFiltersStateAllPresetFiltersSent
 *fill*         0x00000000001e0f39        0x7 
 .text.ARCONTROLLER_FEATURE_SkyController_AxisFiltersStateAllPresetFiltersSentCallback
                0x00000000001e0f40      0x55d /home/jose/catkin_ws/build/parrot_arsdk/arsdk/src/ARSDKBuildUtils/out/arsdk-native/build/libARController/obj/gen/Sources/ARCONTROLLER_Feature.c.o
                0x00000000001e0f40                ARCONTROLLER_FEATURE_SkyController_AxisFiltersStateAllPresetFiltersSentCallback
 *fill*         0x00000000001e149d        0x3 
 .text.ARCONTROLLER_SkyController_NewCmdElementCoPilotingStatePilotingSource
                0x00000000001e14a0      0x570 /home/jose/catkin_ws/build/parrot_arsdk/arsdk/src/ARSDKBuildUtils/out/arsdk-native/build/libARController/obj/gen/Sources/ARCONTROLLER_Feature.c.o
                0x00000000001e14a0                ARCONTROLLER_SkyController_NewCmdElementCoPilotingStatePilotingSource
 .text.ARCONTROLLER_FEATURE_SkyController_CoPilotingStatePilotingSourceCallback
                0x00000000001e1a10      0x56d /home/jose/catkin_ws/build/parrot_arsdk/arsdk/src/ARSDKBuildUtils/out/arsdk-native/build/libARController/obj/gen/Sources/ARCONTROLLER_Feature.c.o
                0x00000000001e1a10                ARCONTROLLER_FEATURE_SkyController_CoPilotingStatePilotingSourceCallback
 *fill*         0x00000000001e1f7d        0x3 
 .text.ARCONTROLLER_SkyController_NewCmdElementCalibrationStateMagnetoCalibrationState
                0x00000000001e1f80     0x1436 /home/jose/catkin_ws/build/parrot_arsdk/arsdk/src/ARSDKBuildUtils/out/arsdk-native/build/libARController/obj/gen/Sources/ARCONTROLLER_Feature.c.o
                0x00000000001e1f80                ARCONTROLLER_SkyController_NewCmdElementCalibrationStateMagnetoCalibrationState
 *fill*         0x00000000001e33b6        0xa 
 .text.ARCONTROLLER_FEATURE_SkyController_CalibrationStateMagnetoCalibrationStateCallback
                0x00000000001e33c0      0x57d /home/jose/catkin_ws/build/parrot_arsdk/arsdk/src/ARSDKBuildUtils/out/arsdk-native/build/libARController/obj/gen/Sources/ARCONTROLLER_Feature.c.o
                0x00000000001e33c0                ARCONTROLLER_FEATURE_SkyController_CalibrationStateMagnetoCalibrationStateCallback
 *fill*         0x00000000001e393d        0x3 
 .text.ARCONTROLLER_SkyController_NewCmdElementCalibrationStateMagnetoCalibrationQualityUpdatesState
                0x00000000001e3940      0x570 /home/jose/catkin_ws/build/parrot_arsdk/arsdk/src/ARSDKBuildUtils/out/arsdk-native/build/libARController/obj/gen/Sources/ARCONTROLLER_Feature.c.o
                0x00000000001e3940                ARCONTROLLER_SkyController_NewCmdElementCalibrationStateMagnetoCalibrationQualityUpdatesState
 .text.ARCONTROLLER_FEATURE_SkyController_CalibrationStateMagnetoCalibrationQualityUpdatesStateCallback
                0x00000000001e3eb0      0x56d /home/jose/catkin_ws/build/parrot_arsdk/arsdk/src/ARSDKBuildUtils/out/arsdk-native/build/libARController/obj/gen/Sources/ARCONTROLLER_Feature.c.o
                0x00000000001e3eb0                ARCONTROLLER_FEATURE_SkyController_CalibrationStateMagnetoCalibrationQualityUpdatesStateCallback
 *fill*         0x00000000001e441d        0x3 
 .text.ARCONTROLLER_SkyController_NewCmdElementCalibrationStateMagnetoCalibrationStateV2
                0x00000000001e4420      0x570 /home/jose/catkin_ws/build/parrot_arsdk/arsdk/src/ARSDKBuildUtils/out/arsdk-native/build/libARController/obj/gen/Sources/ARCONTROLLER_Feature.c.o
                0x00000000001e4420                ARCONTROLLER_SkyController_NewCmdElementCalibrationStateMagnetoCalibrationStateV2
 .text.ARCONTROLLER_FEATURE_SkyController_CalibrationStateMagnetoCalibrationStateV2Callback
                0x00000000001e4990      0x56d /home/jose/catkin_ws/build/parrot_arsdk/arsdk/src/ARSDKBuildUtils/out/arsdk-native/build/libARController/obj/gen/Sources/ARCONTROLLER_Feature.c.o
                0x00000000001e4990                ARCONTROLLER_FEATURE_SkyController_CalibrationStateMagnetoCalibrationStateV2Callback
 *fill*         0x00000000001e4efd        0x3 
 .text.ARCONTROLLER_SkyController_NewCmdElementButtonEventsSettings
                0x00000000001e4f00        0x9 /home/jose/catkin_ws/build/parrot_arsdk/arsdk/src/ARSDKBuildUtils/out/arsdk-native/build/libARController/obj/gen/Sources/ARCONTROLLER_Feature.c.o
                0x00000000001e4f00                ARCONTROLLER_SkyController_NewCmdElementButtonEventsSettings
 *fill*         0x00000000001e4f09        0x7 
 .text.ARCONTROLLER_FEATURE_SkyController_ButtonEventsSettingsCallback
                0x00000000001e4f10      0x55d /home/jose/catkin_ws/build/parrot_arsdk/arsdk/src/ARSDKBuildUtils/out/arsdk-native/build/libARController/obj/gen/Sources/ARCONTROLLER_Feature.c.o
                0x00000000001e4f10                ARCONTROLLER_FEATURE_SkyController_ButtonEventsSettingsCallback
 *fill*         0x00000000001e546d        0x3 
 .text.ARCONTROLLER_SkyController_NewCmdElementCommonEventStateShutdown
                0x00000000001e5470      0x570 /home/jose/catkin_ws/build/parrot_arsdk/arsdk/src/ARSDKBuildUtils/out/arsdk-native/build/libARController/obj/gen/Sources/ARCONTROLLER_Feature.c.o
                0x00000000001e5470                ARCONTROLLER_SkyController_NewCmdElementCommonEventStateShutdown
 .text.ARCONTROLLER_FEATURE_SkyController_CommonEventStateShutdownCallback
                0x00000000001e59e0      0x56d /home/jose/catkin_ws/build/parrot_arsdk/arsdk/src/ARSDKBuildUtils/out/arsdk-native/build/libARController/obj/gen/Sources/ARCONTROLLER_Feature.c.o
                0x00000000001e59e0                ARCONTROLLER_FEATURE_SkyController_CommonEventStateShutdownCallback
 *fill*         0x00000000001e5f4d        0x3 
 .text.ARCONTROLLER_FEATURE_SkyController_SetNetworkController
                0x00000000001e5f50       0x26 /home/jose/catkin_ws/build/parrot_arsdk/arsdk/src/ARSDKBuildUtils/out/arsdk-native/build/libARController/obj/gen/Sources/ARCONTROLLER_Feature.c.o
                0x00000000001e5f50                ARCONTROLLER_FEATURE_SkyController_SetNetworkController
 *fill*         0x00000000001e5f76        0xa 
 .text.ARCONTROLLER_SkyController_GetCommandElements
                0x00000000001e5f80      0x1a3 /home/jose/catkin_ws/build/parrot_arsdk/arsdk/src/ARSDKBuildUtils/out/arsdk-native/build/libARController/obj/gen/Sources/ARCONTROLLER_Feature.c.o
                0x00000000001e5f80                ARCONTROLLER_SkyController_GetCommandElements
 *fill*         0x00000000001e6123        0xd 
 .text.ARCONTROLLER_FEATURE_ThermalCam_Delete
                0x00000000001e6130       0x81 /home/jose/catkin_ws/build/parrot_arsdk/arsdk/src/ARSDKBuildUtils/out/arsdk-native/build/libARController/obj/gen/Sources/ARCONTROLLER_Feature.c.o
                0x00000000001e6130                ARCONTROLLER_FEATURE_ThermalCam_Delete
 *fill*         0x00000000001e61b1        0xf 
 .text.ARCONTROLLER_FEATURE_ThermalCam_New
                0x00000000001e61c0       0xdb /home/jose/catkin_ws/build/parrot_arsdk/arsdk/src/ARSDKBuildUtils/out/arsdk-native/build/libARController/obj/gen/Sources/ARCONTROLLER_Feature.c.o
                0x00000000001e61c0                ARCONTROLLER_FEATURE_ThermalCam_New
 *fill*         0x00000000001e629b        0x5 
 .text.ARCONTROLLER_FEATURE_ThermalCam_GetDictionary
                0x00000000001e62a0       0x37 /home/jose/catkin_ws/build/parrot_arsdk/arsdk/src/ARSDKBuildUtils/out/arsdk-native/build/libARController/obj/gen/Sources/ARCONTROLLER_Feature.c.o
                0x00000000001e62a0                ARCONTROLLER_FEATURE_ThermalCam_GetDictionary
 *fill*         0x00000000001e62d7        0x9 
 .text.ARCONTROLLER_FEATURE_ThermalCam_AddCallback
                0x00000000001e62e0       0x26 /home/jose/catkin_ws/build/parrot_arsdk/arsdk/src/ARSDKBuildUtils/out/arsdk-native/build/libARController/obj/gen/Sources/ARCONTROLLER_Feature.c.o
                0x00000000001e62e0                ARCONTROLLER_FEATURE_ThermalCam_AddCallback
 *fill*         0x00000000001e6306        0xa 
 .text.ARCONTROLLER_FEATURE_ThermalCam_RemoveCallback
                0x00000000001e6310       0x26 /home/jose/catkin_ws/build/parrot_arsdk/arsdk/src/ARSDKBuildUtils/out/arsdk-native/build/libARController/obj/gen/Sources/ARCONTROLLER_Feature.c.o
                0x00000000001e6310                ARCONTROLLER_FEATURE_ThermalCam_RemoveCallback
 *fill*         0x00000000001e6336        0xa 
 .text.ARCONTROLLER_FEATURE_ThermalCam_RegisterARCommands
                0x00000000001e6340       0x7d /home/jose/catkin_ws/build/parrot_arsdk/arsdk/src/ARSDKBuildUtils/out/arsdk-native/build/libARController/obj/gen/Sources/ARCONTROLLER_Feature.c.o
                0x00000000001e6340                ARCONTROLLER_FEATURE_ThermalCam_RegisterARCommands
 *fill*         0x00000000001e63bd        0x3 
 .text.ARCONTROLLER_FEATURE_ThermalCam_UnregisterARCommands
                0x00000000001e63c0       0x6d /home/jose/catkin_ws/build/parrot_arsdk/arsdk/src/ARSDKBuildUtils/out/arsdk-native/build/libARController/obj/gen/Sources/ARCONTROLLER_Feature.c.o
                0x00000000001e63c0                ARCONTROLLER_FEATURE_ThermalCam_UnregisterARCommands
 *fill*         0x00000000001e642d        0x3 
 .text.ARCONTROLLER_ThermalCam_NewCmdElementCameraState
                0x00000000001e6430      0xbf0 /home/jose/catkin_ws/build/parrot_arsdk/arsdk/src/ARSDKBuildUtils/out/arsdk-native/build/libARController/obj/gen/Sources/ARCONTROLLER_Feature.c.o
                0x00000000001e6430                ARCONTROLLER_ThermalCam_NewCmdElementCameraState
 .text.ARCONTROLLER_FEATURE_ThermalCam_CameraStateCallback
                0x00000000001e7020      0xd1f /home/jose/catkin_ws/build/parrot_arsdk/arsdk/src/ARSDKBuildUtils/out/arsdk-native/build/libARController/obj/gen/Sources/ARCONTROLLER_Feature.c.o
                0x00000000001e7020                ARCONTROLLER_FEATURE_ThermalCam_CameraStateCallback
 *fill*         0x00000000001e7d3f        0x1 
 .text.ARCONTROLLER_ThermalCam_NewCmdElementSensitivity
                0x00000000001e7d40     0x1110 /home/jose/catkin_ws/build/parrot_arsdk/arsdk/src/ARSDKBuildUtils/out/arsdk-native/build/libARController/obj/gen/Sources/ARCONTROLLER_Feature.c.o
                0x00000000001e7d40                ARCONTROLLER_ThermalCam_NewCmdElementSensitivity
 .text.ARCONTROLLER_FEATURE_ThermalCam_SensitivityCallback
                0x00000000001e8e50      0xd39 /home/jose/catkin_ws/build/parrot_arsdk/arsdk/src/ARSDKBuildUtils/out/arsdk-native/build/libARController/obj/gen/Sources/ARCONTROLLER_Feature.c.o
                0x00000000001e8e50                ARCONTROLLER_FEATURE_ThermalCam_SensitivityCallback
 *fill*         0x00000000001e9b89        0x7 
 .text.ARCONTROLLER_ThermalCam_NewCmdElementCalibrationInfos
                0x00000000001e9b90     0x15e6 /home/jose/catkin_ws/build/parrot_arsdk/arsdk/src/ARSDKBuildUtils/out/arsdk-native/build/libARController/obj/gen/Sources/ARCONTROLLER_Feature.c.o
                0x00000000001e9b90                ARCONTROLLER_ThermalCam_NewCmdElementCalibrationInfos
 *fill*         0x00000000001eb176        0xa 
 .text.ARCONTROLLER_FEATURE_ThermalCam_CalibrationInfosCallback
                0x00000000001eb180      0xd0c /home/jose/catkin_ws/build/parrot_arsdk/arsdk/src/ARSDKBuildUtils/out/arsdk-native/build/libARController/obj/gen/Sources/ARCONTROLLER_Feature.c.o
                0x00000000001eb180                ARCONTROLLER_FEATURE_ThermalCam_CalibrationInfosCallback
 *fill*         0x00000000001ebe8c        0x4 
 .text.ARCONTROLLER_FEATURE_ThermalCam_SetNetworkController
                0x00000000001ebe90       0x26 /home/jose/catkin_ws/build/parrot_arsdk/arsdk/src/ARSDKBuildUtils/out/arsdk-native/build/libARController/obj/gen/Sources/ARCONTROLLER_Feature.c.o
                0x00000000001ebe90                ARCONTROLLER_FEATURE_ThermalCam_SetNetworkController
 *fill*         0x00000000001ebeb6        0xa 
 .text.ARCONTROLLER_ThermalCam_GetCommandElements
                0x00000000001ebec0      0x193 /home/jose/catkin_ws/build/parrot_arsdk/arsdk/src/ARSDKBuildUtils/out/arsdk-native/build/libARController/obj/gen/Sources/ARCONTROLLER_Feature.c.o
                0x00000000001ebec0                ARCONTROLLER_ThermalCam_GetCommandElements
 *fill*         0x00000000001ec053        0xd 
 .text.ARCONTROLLER_FEATURE_Wifi_Delete
                0x00000000001ec060       0x81 /home/jose/catkin_ws/build/parrot_arsdk/arsdk/src/ARSDKBuildUtils/out/arsdk-native/build/libARController/obj/gen/Sources/ARCONTROLLER_Feature.c.o
                0x00000000001ec060                ARCONTROLLER_FEATURE_Wifi_Delete
 *fill*         0x00000000001ec0e1        0xf 
 .text.ARCONTROLLER_FEATURE_Wifi_New
                0x00000000001ec0f0       0xfb /home/jose/catkin_ws/build/parrot_arsdk/arsdk/src/ARSDKBuildUtils/out/arsdk-native/build/libARController/obj/gen/Sources/ARCONTROLLER_Feature.c.o
                0x00000000001ec0f0                ARCONTROLLER_FEATURE_Wifi_New
 *fill*         0x00000000001ec1eb        0x5 
 .text.ARCONTROLLER_FEATURE_Wifi_GetDictionary
                0x00000000001ec1f0       0x37 /home/jose/catkin_ws/build/parrot_arsdk/arsdk/src/ARSDKBuildUtils/out/arsdk-native/build/libARController/obj/gen/Sources/ARCONTROLLER_Feature.c.o
                0x00000000001ec1f0                ARCONTROLLER_FEATURE_Wifi_GetDictionary
 *fill*         0x00000000001ec227        0x9 
 .text.ARCONTROLLER_FEATURE_Wifi_AddCallback
                0x00000000001ec230       0x26 /home/jose/catkin_ws/build/parrot_arsdk/arsdk/src/ARSDKBuildUtils/out/arsdk-native/build/libARController/obj/gen/Sources/ARCONTROLLER_Feature.c.o
                0x00000000001ec230                ARCONTROLLER_FEATURE_Wifi_AddCallback
 *fill*         0x00000000001ec256        0xa 
 .text.ARCONTROLLER_FEATURE_Wifi_RemoveCallback
                0x00000000001ec260       0x26 /home/jose/catkin_ws/build/parrot_arsdk/arsdk/src/ARSDKBuildUtils/out/arsdk-native/build/libARController/obj/gen/Sources/ARCONTROLLER_Feature.c.o
                0x00000000001ec260                ARCONTROLLER_FEATURE_Wifi_RemoveCallback
 *fill*         0x00000000001ec286        0xa 
 .text.ARCONTROLLER_FEATURE_Wifi_RegisterARCommands
                0x00000000001ec290      0x115 /home/jose/catkin_ws/build/parrot_arsdk/arsdk/src/ARSDKBuildUtils/out/arsdk-native/build/libARController/obj/gen/Sources/ARCONTROLLER_Feature.c.o
                0x00000000001ec290                ARCONTROLLER_FEATURE_Wifi_RegisterARCommands
 *fill*         0x00000000001ec3a5        0xb 
 .text.ARCONTROLLER_FEATURE_Wifi_UnregisterARCommands
                0x00000000001ec3b0       0xdd /home/jose/catkin_ws/build/parrot_arsdk/arsdk/src/ARSDKBuildUtils/out/arsdk-native/build/libARController/obj/gen/Sources/ARCONTROLLER_Feature.c.o
                0x00000000001ec3b0                ARCONTROLLER_FEATURE_Wifi_UnregisterARCommands
 *fill*         0x00000000001ec48d        0x3 
 .text.ARCONTROLLER_Wifi_NewCmdElementScannedItem
                0x00000000001ec490     0x1453 /home/jose/catkin_ws/build/parrot_arsdk/arsdk/src/ARSDKBuildUtils/out/arsdk-native/build/libARController/obj/gen/Sources/ARCONTROLLER_Feature.c.o
                0x00000000001ec490                ARCONTROLLER_Wifi_NewCmdElementScannedItem
 *fill*         0x00000000001ed8e3        0xd 
 .text.ARCONTROLLER_FEATURE_Wifi_ScannedItemCallback
                0x00000000001ed8f0      0xc9b /home/jose/catkin_ws/build/parrot_arsdk/arsdk/src/ARSDKBuildUtils/out/arsdk-native/build/libARController/obj/gen/Sources/ARCONTROLLER_Feature.c.o
                0x00000000001ed8f0                ARCONTROLLER_FEATURE_Wifi_ScannedItemCallback
 *fill*         0x00000000001ee58b        0x5 
 .text.ARCONTROLLER_Wifi_NewCmdElementAuthorizedChannel
                0x00000000001ee590     0x10cf /home/jose/catkin_ws/build/parrot_arsdk/arsdk/src/ARSDKBuildUtils/out/arsdk-native/build/libARController/obj/gen/Sources/ARCONTROLLER_Feature.c.o
                0x00000000001ee590                ARCONTROLLER_Wifi_NewCmdElementAuthorizedChannel
 *fill*         0x00000000001ef65f        0x1 
 .text.ARCONTROLLER_FEATURE_Wifi_AuthorizedChannelCallback
                0x00000000001ef660      0x7a8 /home/jose/catkin_ws/build/parrot_arsdk/arsdk/src/ARSDKBuildUtils/out/arsdk-native/build/libARController/obj/gen/Sources/ARCONTROLLER_Feature.c.o
                0x00000000001ef660                ARCONTROLLER_FEATURE_Wifi_AuthorizedChannelCallback
 *fill*         0x00000000001efe08        0x8 
 .text.ARCONTROLLER_Wifi_NewCmdElementApChannelChanged
                0x00000000001efe10      0xf1b /home/jose/catkin_ws/build/parrot_arsdk/arsdk/src/ARSDKBuildUtils/out/arsdk-native/build/libARController/obj/gen/Sources/ARCONTROLLER_Feature.c.o
                0x00000000001efe10                ARCONTROLLER_Wifi_NewCmdElementApChannelChanged
 *fill*         0x00000000001f0d2b        0x5 
 .text.ARCONTROLLER_FEATURE_Wifi_ApChannelChangedCallback
                0x00000000001f0d30      0x55d /home/jose/catkin_ws/build/parrot_arsdk/arsdk/src/ARSDKBuildUtils/out/arsdk-native/build/libARController/obj/gen/Sources/ARCONTROLLER_Feature.c.o
                0x00000000001f0d30                ARCONTROLLER_FEATURE_Wifi_ApChannelChangedCallback
 *fill*         0x00000000001f128d        0x3 
 .text.ARCONTROLLER_Wifi_NewCmdElementSecurityChanged
                0x00000000001f1290      0xa3a /home/jose/catkin_ws/build/parrot_arsdk/arsdk/src/ARSDKBuildUtils/out/arsdk-native/build/libARController/obj/gen/Sources/ARCONTROLLER_Feature.c.o
                0x00000000001f1290                ARCONTROLLER_Wifi_NewCmdElementSecurityChanged
 *fill*         0x00000000001f1cca        0x6 
 .text.ARCONTROLLER_FEATURE_Wifi_SecurityChangedCallback
                0x00000000001f1cd0      0x54d /home/jose/catkin_ws/build/parrot_arsdk/arsdk/src/ARSDKBuildUtils/out/arsdk-native/build/libARController/obj/gen/Sources/ARCONTROLLER_Feature.c.o
                0x00000000001f1cd0                ARCONTROLLER_FEATURE_Wifi_SecurityChangedCallback
 *fill*         0x00000000001f221d        0x3 
 .text.ARCONTROLLER_Wifi_NewCmdElementCountryChanged
                0x00000000001f2220      0xa1b /home/jose/catkin_ws/build/parrot_arsdk/arsdk/src/ARSDKBuildUtils/out/arsdk-native/build/libARController/obj/gen/Sources/ARCONTROLLER_Feature.c.o
                0x00000000001f2220                ARCONTROLLER_Wifi_NewCmdElementCountryChanged
 *fill*         0x00000000001f2c3b        0x5 
 .text.ARCONTROLLER_FEATURE_Wifi_CountryChangedCallback
                0x00000000001f2c40      0x54d /home/jose/catkin_ws/build/parrot_arsdk/arsdk/src/ARSDKBuildUtils/out/arsdk-native/build/libARController/obj/gen/Sources/ARCONTROLLER_Feature.c.o
                0x00000000001f2c40                ARCONTROLLER_FEATURE_Wifi_CountryChangedCallback
 *fill*         0x00000000001f318d        0x3 
 .text.ARCONTROLLER_Wifi_NewCmdElementEnvironmentChanged
                0x00000000001f3190      0x570 /home/jose/catkin_ws/build/parrot_arsdk/arsdk/src/ARSDKBuildUtils/out/arsdk-native/build/libARController/obj/gen/Sources/ARCONTROLLER_Feature.c.o
                0x00000000001f3190                ARCONTROLLER_Wifi_NewCmdElementEnvironmentChanged
 .text.ARCONTROLLER_FEATURE_Wifi_EnvironmentChangedCallback
                0x00000000001f3700      0x54d /home/jose/catkin_ws/build/parrot_arsdk/arsdk/src/ARSDKBuildUtils/out/arsdk-native/build/libARController/obj/gen/Sources/ARCONTROLLER_Feature.c.o
                0x00000000001f3700                ARCONTROLLER_FEATURE_Wifi_EnvironmentChangedCallback
 *fill*         0x00000000001f3c4d        0x3 
 .text.ARCONTROLLER_Wifi_NewCmdElementRssiChanged
                0x00000000001f3c50      0x570 /home/jose/catkin_ws/build/parrot_arsdk/arsdk/src/ARSDKBuildUtils/out/arsdk-native/build/libARController/obj/gen/Sources/ARCONTROLLER_Feature.c.o
                0x00000000001f3c50                ARCONTROLLER_Wifi_NewCmdElementRssiChanged
 .text.ARCONTROLLER_FEATURE_Wifi_RssiChangedCallback
                0x00000000001f41c0      0x54d /home/jose/catkin_ws/build/parrot_arsdk/arsdk/src/ARSDKBuildUtils/out/arsdk-native/build/libARController/obj/gen/Sources/ARCONTROLLER_Feature.c.o
                0x00000000001f41c0                ARCONTROLLER_FEATURE_Wifi_RssiChangedCallback
 *fill*         0x00000000001f470d        0x3 
 .text.ARCONTROLLER_Wifi_NewCmdElementSupportedCountries
                0x00000000001f4710      0x5a2 /home/jose/catkin_ws/build/parrot_arsdk/arsdk/src/ARSDKBuildUtils/out/arsdk-native/build/libARController/obj/gen/Sources/ARCONTROLLER_Feature.c.o
                0x00000000001f4710                ARCONTROLLER_Wifi_NewCmdElementSupportedCountries
 *fill*         0x00000000001f4cb2        0xe 
 .text.ARCONTROLLER_FEATURE_Wifi_SupportedCountriesCallback
                0x00000000001f4cc0      0x54d /home/jose/catkin_ws/build/parrot_arsdk/arsdk/src/ARSDKBuildUtils/out/arsdk-native/build/libARController/obj/gen/Sources/ARCONTROLLER_Feature.c.o
                0x00000000001f4cc0                ARCONTROLLER_FEATURE_Wifi_SupportedCountriesCallback
 *fill*         0x00000000001f520d        0x3 
 .text.ARCONTROLLER_FEATURE_Wifi_SetNetworkController
                0x00000000001f5210       0x26 /home/jose/catkin_ws/build/parrot_arsdk/arsdk/src/ARSDKBuildUtils/out/arsdk-native/build/libARController/obj/gen/Sources/ARCONTROLLER_Feature.c.o
                0x00000000001f5210                ARCONTROLLER_FEATURE_Wifi_SetNetworkController
 *fill*         0x00000000001f5236        0xa 
 .text.ARCONTROLLER_Wifi_GetCommandElements
                0x00000000001f5240      0x193 /home/jose/catkin_ws/build/parrot_arsdk/arsdk/src/ARSDKBuildUtils/out/arsdk-native/build/libARController/obj/gen/Sources/ARCONTROLLER_Feature.c.o
                0x00000000001f5240                ARCONTROLLER_Wifi_GetCommandElements
 *(.gnu.warning)

.fini           0x00000000001f53d4        0xd
 *(SORT_NONE(.fini))
 .fini          0x00000000001f53d4        0x8 /usr/lib/gcc/x86_64-linux-gnu/9/../../../x86_64-linux-gnu/crti.o
                0x00000000001f53d4                _fini
 .fini          0x00000000001f53dc        0x5 /usr/lib/gcc/x86_64-linux-gnu/9/../../../x86_64-linux-gnu/crtn.o
                [!provide]                        PROVIDE (__etext = .)
                [!provide]                        PROVIDE (_etext = .)
                [!provide]                        PROVIDE (etext = .)
                0x00000000001f6000                . = ALIGN (CONSTANT (MAXPAGESIZE))
                0x00000000001f6000                . = SEGMENT_START ("rodata-segment", (ALIGN (CONSTANT (MAXPAGESIZE)) + (. & (CONSTANT (MAXPAGESIZE) - 0x1))))

.rodata         0x00000000001f6000    0x19bb0
 *(.rodata .rodata.* .gnu.linkonce.r.*)
 .rodata.str1.8
                0x00000000001f6000       0x3b /home/jose/catkin_ws/build/parrot_arsdk/arsdk/src/ARSDKBuildUtils/out/arsdk-native/build/libARController/obj/Sources/ARCONTROLLER_Dictionary.c.o
 .rodata.str1.1
                0x00000000001f603b       0x34 /home/jose/catkin_ws/build/parrot_arsdk/arsdk/src/ARSDKBuildUtils/out/arsdk-native/build/libARController/obj/Sources/ARCONTROLLER_Dictionary.c.o
 *fill*         0x00000000001f606f       0x11 
 .rodata        0x00000000001f6080       0x6b /home/jose/catkin_ws/build/parrot_arsdk/arsdk/src/ARSDKBuildUtils/out/arsdk-native/build/libARController/obj/Sources/ARCONTROLLER_Dictionary.c.o
 *fill*         0x00000000001f60eb        0x5 
 .rodata.str1.8
                0x00000000001f60f0      0x208 /home/jose/catkin_ws/build/parrot_arsdk/arsdk/src/ARSDKBuildUtils/out/arsdk-native/build/libARController/obj/Sources/ARCONTROLLER_Network.c.o
 .rodata.str1.1
                0x00000000001f62f8       0xc2 /home/jose/catkin_ws/build/parrot_arsdk/arsdk/src/ARSDKBuildUtils/out/arsdk-native/build/libARController/obj/Sources/ARCONTROLLER_Network.c.o
                                         0xcc (size before relaxing)
 *fill*         0x00000000001f63ba        0x6 
 .rodata        0x00000000001f63c0      0x1a9 /home/jose/catkin_ws/build/parrot_arsdk/arsdk/src/ARSDKBuildUtils/out/arsdk-native/build/libARController/obj/Sources/ARCONTROLLER_Network.c.o
 *fill*         0x00000000001f6569        0x7 
 .rodata.str1.8
                0x00000000001f6570       0x96 /home/jose/catkin_ws/build/parrot_arsdk/arsdk/src/ARSDKBuildUtils/out/arsdk-native/build/libARController/obj/Sources/ARCONTROLLER_StreamQueue.c.o
 .rodata.str1.1
                0x00000000001f6606       0x16 /home/jose/catkin_ws/build/parrot_arsdk/arsdk/src/ARSDKBuildUtils/out/arsdk-native/build/libARController/obj/Sources/ARCONTROLLER_StreamQueue.c.o
 *fill*         0x00000000001f661c        0x4 
 .rodata        0x00000000001f6620       0x67 /home/jose/catkin_ws/build/parrot_arsdk/arsdk/src/ARSDKBuildUtils/out/arsdk-native/build/libARController/obj/Sources/ARCONTROLLER_StreamQueue.c.o
 .rodata.str1.1
                0x00000000001f6687       0xbf /home/jose/catkin_ws/build/parrot_arsdk/arsdk/src/ARSDKBuildUtils/out/arsdk-native/build/libARController/obj/Sources/ARCONTROLLER_Stream1.c.o
 *fill*         0x00000000001f6746        0x2 
 .rodata.str1.8
                0x00000000001f6748       0xd2 /home/jose/catkin_ws/build/parrot_arsdk/arsdk/src/ARSDKBuildUtils/out/arsdk-native/build/libARController/obj/Sources/ARCONTROLLER_Stream1.c.o
                                         0xfa (size before relaxing)
 *fill*         0x00000000001f681a        0x6 
 .rodata        0x00000000001f6820      0x14b /home/jose/catkin_ws/build/parrot_arsdk/arsdk/src/ARSDKBuildUtils/out/arsdk-native/build/libARController/obj/Sources/ARCONTROLLER_Stream1.c.o
 *fill*         0x00000000001f696b        0x5 
 .rodata.str1.8
                0x00000000001f6970      0x145 /home/jose/catkin_ws/build/parrot_arsdk/arsdk/src/ARSDKBuildUtils/out/arsdk-native/build/libARController/obj/Sources/ARCONTROLLER_Stream2.c.o
                                        0x22d (size before relaxing)
 .rodata.str1.1
                0x00000000001f6ab5       0xea /home/jose/catkin_ws/build/parrot_arsdk/arsdk/src/ARSDKBuildUtils/out/arsdk-native/build/libARController/obj/Sources/ARCONTROLLER_Stream2.c.o
                                        0x108 (size before relaxing)
 *fill*         0x00000000001f6b9f        0x1 
 .rodata        0x00000000001f6ba0       0xe1 /home/jose/catkin_ws/build/parrot_arsdk/arsdk/src/ARSDKBuildUtils/out/arsdk-native/build/libARController/obj/Sources/ARCONTROLLER_Stream2.c.o
 *fill*         0x00000000001f6c81        0x7 
 .rodata.str1.8
                0x00000000001f6c88       0x1f /home/jose/catkin_ws/build/parrot_arsdk/arsdk/src/ARSDKBuildUtils/out/arsdk-native/build/libARController/obj/Sources/ARCONTROLLER_StreamSender.c.o
                                         0x81 (size before relaxing)
 .rodata.str1.1
                0x00000000001f6ca7       0x4e /home/jose/catkin_ws/build/parrot_arsdk/arsdk/src/ARSDKBuildUtils/out/arsdk-native/build/libARController/obj/Sources/ARCONTROLLER_StreamSender.c.o
                                         0x7f (size before relaxing)
 *fill*         0x00000000001f6cf5        0xb 
 .rodata        0x00000000001f6d00       0x60 /home/jose/catkin_ws/build/parrot_arsdk/arsdk/src/ARSDKBuildUtils/out/arsdk-native/build/libARController/obj/Sources/ARCONTROLLER_StreamSender.c.o
 .rodata.str1.1
                0x00000000001f6d60      0x138 /home/jose/catkin_ws/build/parrot_arsdk/arsdk/src/ARSDKBuildUtils/out/arsdk-native/build/libARController/obj/gen/Sources/ARCONTROLLER_Device.c.o
                                        0x152 (size before relaxing)
 .rodata.str1.8
                0x00000000001f6e98     0x1d00 /home/jose/catkin_ws/build/parrot_arsdk/arsdk/src/ARSDKBuildUtils/out/arsdk-native/build/libARController/obj/gen/Sources/ARCONTROLLER_Device.c.o
 *fill*         0x00000000001f8b98        0x8 
 .rodata        0x00000000001f8ba0      0x708 /home/jose/catkin_ws/build/parrot_arsdk/arsdk/src/ARSDKBuildUtils/out/arsdk-native/build/libARController/obj/gen/Sources/ARCONTROLLER_Device.c.o
 .rodata.str1.1
                0x00000000001f92a8      0x21f /home/jose/catkin_ws/build/parrot_arsdk/arsdk/src/ARSDKBuildUtils/out/arsdk-native/build/libARController/obj/gen/Sources/ARCONTROLLER_Error.c.o
 *fill*         0x00000000001f94c7        0x1 
 .rodata.str1.8
                0x00000000001f94c8      0x380 /home/jose/catkin_ws/build/parrot_arsdk/arsdk/src/ARSDKBuildUtils/out/arsdk-native/build/libARController/obj/gen/Sources/ARCONTROLLER_Error.c.o
 .rodata        0x00000000001f9848       0x64 /home/jose/catkin_ws/build/parrot_arsdk/arsdk/src/ARSDKBuildUtils/out/arsdk-native/build/libARController/obj/gen/Sources/ARCONTROLLER_Error.c.o
 *fill*         0x00000000001f98ac       0x14 
 .rodata        0x00000000001f98c0     0x898d /home/jose/catkin_ws/build/parrot_arsdk/arsdk/src/ARSDKBuildUtils/out/arsdk-native/build/libARController/obj/gen/Sources/ARCONTROLLER_Feature.c.o
 .rodata.str1.1
                0x000000000020224d       0x33 /home/jose/catkin_ws/build/parrot_arsdk/arsdk/src/ARSDKBuildUtils/out/arsdk-native/build/libARController/obj/gen/Sources/ARCONTROLLER_Feature.c.o
                                         0x39 (size before relaxing)
 .rodata.str1.8
                0x0000000000202280     0xd90a /home/jose/catkin_ws/build/parrot_arsdk/arsdk/src/ARSDKBuildUtils/out/arsdk-native/build/libARController/obj/gen/Sources/ARCONTROLLER_Feature.c.o
 *fill*         0x000000000020fb8a        0x6 
 .rodata.cst16  0x000000000020fb90       0x20 /home/jose/catkin_ws/build/parrot_arsdk/arsdk/src/ARSDKBuildUtils/out/arsdk-native/build/libARController/obj/gen/Sources/ARCONTROLLER_Feature.c.o

.rodata1
 *(.rodata1)

.eh_frame_hdr   0x000000000020fbb0     0x2aec
 *(.eh_frame_hdr)
 .eh_frame_hdr  0x000000000020fbb0     0x2aec /home/jose/catkin_ws/build/parrot_arsdk/arsdk/src/ARSDKBuildUtils/out/arsdk-native/build/libARController/obj/Sources/ARCONTROLLER_Dictionary.c.o
                0x000000000020fbb0                __GNU_EH_FRAME_HDR
 *(.eh_frame_entry .eh_frame_entry.*)

.eh_frame       0x00000000002126a0    0x13b7c
 *(.eh_frame)
 .eh_frame      0x00000000002126a0       0x40 /usr/lib/gcc/x86_64-linux-gnu/9/../../../x86_64-linux-gnu/crti.o
 .eh_frame      0x00000000002126e0       0x18 /usr/lib/gcc/x86_64-linux-gnu/9/../../../x86_64-linux-gnu/crti.o
                                         0x30 (size before relaxing)
 .eh_frame      0x00000000002126f8       0x18 /usr/lib/gcc/x86_64-linux-gnu/9/../../../x86_64-linux-gnu/crti.o
                                         0x30 (size before relaxing)
 .eh_frame      0x0000000000212710      0x230 /home/jose/catkin_ws/build/parrot_arsdk/arsdk/src/ARSDKBuildUtils/out/arsdk-native/build/libARController/obj/Sources/ARCONTROLLER_Dictionary.c.o
                                        0x248 (size before relaxing)
 .eh_frame      0x0000000000212940       0xc0 /home/jose/catkin_ws/build/parrot_arsdk/arsdk/src/ARSDKBuildUtils/out/arsdk-native/build/libARController/obj/Sources/ARCONTROLLER_Frame.c.o
                                         0xd8 (size before relaxing)
 .eh_frame      0x0000000000212a00      0x530 /home/jose/catkin_ws/build/parrot_arsdk/arsdk/src/ARSDKBuildUtils/out/arsdk-native/build/libARController/obj/Sources/ARCONTROLLER_Network.c.o
                                        0x548 (size before relaxing)
 .eh_frame      0x0000000000212f30      0x1e0 /home/jose/catkin_ws/build/parrot_arsdk/arsdk/src/ARSDKBuildUtils/out/arsdk-native/build/libARController/obj/Sources/ARCONTROLLER_Stream.c.o
                                        0x1f8 (size before relaxing)
 .eh_frame      0x0000000000213110       0x98 /home/jose/catkin_ws/build/parrot_arsdk/arsdk/src/ARSDKBuildUtils/out/arsdk-native/build/libARController/obj/Sources/ARCONTROLLER_StreamPool.c.o
                                         0xb0 (size before relaxing)
 .eh_frame      0x00000000002131a8      0x1c8 /home/jose/catkin_ws/build/parrot_arsdk/arsdk/src/ARSDKBuildUtils/out/arsdk-native/build/libARController/obj/Sources/ARCONTROLLER_StreamQueue.c.o
                                        0x1e0 (size before relaxing)
 .eh_frame      0x0000000000213370      0x330 /home/jose/catkin_ws/build/parrot_arsdk/arsdk/src/ARSDKBuildUtils/out/arsdk-native/build/libARController/obj/Sources/ARCONTROLLER_Stream1.c.o
                                        0x348 (size before relaxing)
 .eh_frame      0x00000000002136a0      0x320 /home/jose/catkin_ws/build/parrot_arsdk/arsdk/src/ARSDKBuildUtils/out/arsdk-native/build/libARController/obj/Sources/ARCONTROLLER_Stream2.c.o
                                        0x338 (size before relaxing)
 .eh_frame      0x00000000002139c0      0x150 /home/jose/catkin_ws/build/parrot_arsdk/arsdk/src/ARSDKBuildUtils/out/arsdk-native/build/libARController/obj/Sources/ARCONTROLLER_StreamSender.c.o
                                        0x168 (size before relaxing)
 .eh_frame      0x0000000000213b10      0x270 /home/jose/catkin_ws/build/parrot_arsdk/arsdk/src/ARSDKBuildUtils/out/arsdk-native/build/libARController/obj/Sources/ARCONTROLLER_NAckCbs.c.o
                                        0x288 (size before relaxing)
 .eh_frame      0x0000000000213d80      0xe98 /home/jose/catkin_ws/build/parrot_arsdk/arsdk/src/ARSDKBuildUtils/out/arsdk-native/build/libARController/obj/gen/Sources/ARCONTROLLER_Device.c.o
                                        0xeb0 (size before relaxing)
 .eh_frame      0x0000000000214c18       0x18 /home/jose/catkin_ws/build/parrot_arsdk/arsdk/src/ARSDKBuildUtils/out/arsdk-native/build/libARController/obj/gen/Sources/ARCONTROLLER_DICTIONARY_Key.c.o
                                         0x30 (size before relaxing)
 .eh_frame      0x0000000000214c30       0x18 /home/jose/catkin_ws/build/parrot_arsdk/arsdk/src/ARSDKBuildUtils/out/arsdk-native/build/libARController/obj/gen/Sources/ARCONTROLLER_Error.c.o
                                         0x30 (size before relaxing)
 .eh_frame      0x0000000000214c48    0x115d0 /home/jose/catkin_ws/build/parrot_arsdk/arsdk/src/ARSDKBuildUtils/out/arsdk-native/build/libARController/obj/gen/Sources/ARCONTROLLER_Feature.c.o
                                      0x115e8 (size before relaxing)
 .eh_frame      0x0000000000226218        0x4 /usr/lib/gcc/x86_64-linux-gnu/9/crtendS.o
 *(.eh_frame.*)

.gcc_except_table
 *(.gcc_except_table .gcc_except_table.*)

.gnu_extab
 *(.gnu_extab*)

.exception_ranges
 *(.exception_ranges*)
                0x0000000000227230                . = DATA_SEGMENT_ALIGN (CONSTANT (MAXPAGESIZE), CONSTANT (COMMONPAGESIZE))

.eh_frame
 *(.eh_frame)
 *(.eh_frame.*)

.gnu_extab
 *(.gnu_extab)

.gcc_except_table
 *(.gcc_except_table .gcc_except_table.*)

.exception_ranges
 *(.exception_ranges*)

.tdata
 *(.tdata .tdata.* .gnu.linkonce.td.*)

.tbss
 *(.tbss .tbss.* .gnu.linkonce.tb.*)
 *(.tcommon)

.preinit_array
 *(.preinit_array)

.init_array     0x0000000000227230        0x8
 *(SORT_BY_INIT_PRIORITY(.init_array.*) SORT_BY_INIT_PRIORITY(.ctors.*))
 *(.init_array EXCLUDE_FILE(*crtend?.o *crtend.o *crtbegin?.o *crtbegin.o) .ctors)
 .init_array    0x0000000000227230        0x8 /usr/lib/gcc/x86_64-linux-gnu/9/crtbeginS.o

.fini_array     0x0000000000227238        0x8
 *(SORT_BY_INIT_PRIORITY(.fini_array.*) SORT_BY_INIT_PRIORITY(.dtors.*))
 *(.fini_array EXCLUDE_FILE(*crtend?.o *crtend.o *crtbegin?.o *crtbegin.o) .dtors)
 .fini_array    0x0000000000227238        0x8 /usr/lib/gcc/x86_64-linux-gnu/9/crtbeginS.o

.ctors
 *crtbegin.o(.ctors)
 *crtbegin?.o(.ctors)
 *(EXCLUDE_FILE(*crtend?.o *crtend.o) .ctors)
 *(SORT_BY_NAME(.ctors.*))
 *(.ctors)

.dtors
 *crtbegin.o(.dtors)
 *crtbegin?.o(.dtors)
 *(EXCLUDE_FILE(*crtend?.o *crtend.o) .dtors)
 *(SORT_BY_NAME(.dtors.*))
 *(.dtors)

.jcr
 *(.jcr)

.data.rel.ro    0x0000000000227240        0x0
 *(.data.rel.ro.local* .gnu.linkonce.d.rel.ro.local.*)
 *(.data.rel.ro .data.rel.ro.* .gnu.linkonce.d.rel.ro.*)
 .data.rel.ro   0x0000000000227240        0x0 /usr/lib/gcc/x86_64-linux-gnu/9/../../../x86_64-linux-gnu/crti.o

.dynamic        0x0000000000227240      0x2a0
 *(.dynamic)
 .dynamic       0x0000000000227240      0x2a0 /usr/lib/gcc/x86_64-linux-gnu/9/../../../x86_64-linux-gnu/crti.o
                0x0000000000227240                _DYNAMIC

.got            0x00000000002274e0     0x2b20
 *(.got)
 .got           0x00000000002274e0     0x2b20 /usr/lib/gcc/x86_64-linux-gnu/9/../../../x86_64-linux-gnu/crti.o
 *(.igot)
                0x000000000022afe8                . = DATA_SEGMENT_RELRO_END (., (SIZEOF (.got.plt) >= 0x18)?0x18:0x0)

.got.plt        0x000000000022a000     0x2a60
 *(.got.plt)
 .got.plt       0x000000000022a000     0x2a60 /usr/lib/gcc/x86_64-linux-gnu/9/../../../x86_64-linux-gnu/crti.o
                0x000000000022a000                _GLOBAL_OFFSET_TABLE_
 *(.igot.plt)

.data           0x000000000022ca60     0x15d8
 *(.data .data.* .gnu.linkonce.d.*)
 .data.rel.local
                0x000000000022ca60        0x8 /usr/lib/gcc/x86_64-linux-gnu/9/crtbeginS.o
                0x000000000022ca60                __dso_handle
 .data.rel.local
                0x000000000022ca68     0x15d0 /home/jose/catkin_ws/build/parrot_arsdk/arsdk/src/ARSDKBuildUtils/out/arsdk-native/build/libARController/obj/gen/Sources/ARCONTROLLER_Feature.c.o
                0x000000000022ca68                ARCONTROLLER_DICTIONARY_KEY_WIFI_SUPPORTEDCOUNTRIES_COUNTRIES
                0x000000000022ca70                ARCONTROLLER_DICTIONARY_KEY_WIFI_RSSICHANGED_RSSI
                0x000000000022ca78                ARCONTROLLER_DICTIONARY_KEY_WIFI_ENVIRONMENTCHANGED_ENVIRONMENT
                0x000000000022ca80                ARCONTROLLER_DICTIONARY_KEY_WIFI_COUNTRYCHANGED_CODE
                0x000000000022ca88                ARCONTROLLER_DICTIONARY_KEY_WIFI_COUNTRYCHANGED_SELECTION_MODE
                0x000000000022ca90                ARCONTROLLER_DICTIONARY_KEY_WIFI_SECURITYCHANGED_KEY_TYPE
                0x000000000022ca98                ARCONTROLLER_DICTIONARY_KEY_WIFI_SECURITYCHANGED_KEY
                0x000000000022caa0                ARCONTROLLER_DICTIONARY_KEY_WIFI_APCHANNELCHANGED_CHANNEL
                0x000000000022caa8                ARCONTROLLER_DICTIONARY_KEY_WIFI_APCHANNELCHANGED_BAND
                0x000000000022cab0                ARCONTROLLER_DICTIONARY_KEY_WIFI_APCHANNELCHANGED_TYPE
                0x000000000022cab8                ARCONTROLLER_DICTIONARY_KEY_WIFI_AUTHORIZEDCHANNEL_ENVIRONMENT
                0x000000000022cac0                ARCONTROLLER_DICTIONARY_KEY_WIFI_AUTHORIZEDCHANNEL_CHANNEL
                0x000000000022cac8                ARCONTROLLER_DICTIONARY_KEY_WIFI_AUTHORIZEDCHANNEL_BAND
                0x000000000022cad0                ARCONTROLLER_DICTIONARY_KEY_WIFI_SCANNEDITEM_CHANNEL
                0x000000000022cad8                ARCONTROLLER_DICTIONARY_KEY_WIFI_SCANNEDITEM_BAND
                0x000000000022cae0                ARCONTROLLER_DICTIONARY_KEY_WIFI_SCANNEDITEM_RSSI
                0x000000000022cae8                ARCONTROLLER_DICTIONARY_KEY_WIFI_SCANNEDITEM_SSID
                0x000000000022caf0                ARCONTROLLER_DICTIONARY_KEY_THERMAL_CAM_CALIBRATIONINFOS_YAW
                0x000000000022caf8                ARCONTROLLER_DICTIONARY_KEY_THERMAL_CAM_CALIBRATIONINFOS_PITCH
                0x000000000022cb00                ARCONTROLLER_DICTIONARY_KEY_THERMAL_CAM_CALIBRATIONINFOS_ROLL
                0x000000000022cb08                ARCONTROLLER_DICTIONARY_KEY_THERMAL_CAM_CALIBRATIONINFOS_CAM_ID
                0x000000000022cb10                ARCONTROLLER_DICTIONARY_KEY_THERMAL_CAM_SENSITIVITY_AVAILABLE_RANGES
                0x000000000022cb18                ARCONTROLLER_DICTIONARY_KEY_THERMAL_CAM_SENSITIVITY_CURRENT_RANGE
                0x000000000022cb20                ARCONTROLLER_DICTIONARY_KEY_THERMAL_CAM_SENSITIVITY_CAM_ID
                0x000000000022cb28                ARCONTROLLER_DICTIONARY_KEY_THERMAL_CAM_CAMERASTATE_STATE
                0x000000000022cb30                ARCONTROLLER_DICTIONARY_KEY_THERMAL_CAM_CAMERASTATE_CAM_ID
                0x000000000022cb38                ARCONTROLLER_DICTIONARY_KEY_SKYCONTROLLER_COMMONEVENTSTATE_SHUTDOWN_REASON
                0x000000000022cb40                ARCONTROLLER_DICTIONARY_KEY_SKYCONTROLLER_CALIBRATIONSTATE_MAGNETOCALIBRATIONSTATEV2_STATE
                0x000000000022cb48                ARCONTROLLER_DICTIONARY_KEY_SKYCONTROLLER_CALIBRATIONSTATE_MAGNETOCALIBRATIONQUALITYUPDATESSTATE_ENABLED
                0x000000000022cb50                ARCONTROLLER_DICTIONARY_KEY_SKYCONTROLLER_CALIBRATIONSTATE_MAGNETOCALIBRATIONSTATE_Z_QUALITY
                0x000000000022cb58                ARCONTROLLER_DICTIONARY_KEY_SKYCONTROLLER_CALIBRATIONSTATE_MAGNETOCALIBRATIONSTATE_Y_QUALITY
                0x000000000022cb60                ARCONTROLLER_DICTIONARY_KEY_SKYCONTROLLER_CALIBRATIONSTATE_MAGNETOCALIBRATIONSTATE_X_QUALITY
                0x000000000022cb68                ARCONTROLLER_DICTIONARY_KEY_SKYCONTROLLER_CALIBRATIONSTATE_MAGNETOCALIBRATIONSTATE_STATUS
                0x000000000022cb70                ARCONTROLLER_DICTIONARY_KEY_SKYCONTROLLER_COPILOTINGSTATE_PILOTINGSOURCE_SOURCE
                0x000000000022cb78                ARCONTROLLER_DICTIONARY_KEY_SKYCONTROLLER_AXISFILTERSSTATE_PRESETAXISFILTERS_NAME
                0x000000000022cb80                ARCONTROLLER_DICTIONARY_KEY_SKYCONTROLLER_AXISFILTERSSTATE_PRESETAXISFILTERS_FILTER_UID
                0x000000000022cb88                ARCONTROLLER_DICTIONARY_KEY_SKYCONTROLLER_AXISFILTERSSTATE_CURRENTAXISFILTERS_FILTER_UID_OR_BUILDER
                0x000000000022cb90                ARCONTROLLER_DICTIONARY_KEY_SKYCONTROLLER_AXISFILTERSSTATE_CURRENTAXISFILTERS_AXIS_ID
                0x000000000022cb98                ARCONTROLLER_DICTIONARY_KEY_SKYCONTROLLER_AXISMAPPINGSSTATE_AVAILABLEAXISMAPPINGS_NAME
                0x000000000022cba0                ARCONTROLLER_DICTIONARY_KEY_SKYCONTROLLER_AXISMAPPINGSSTATE_AVAILABLEAXISMAPPINGS_MAPPING_UID
                0x000000000022cba8                ARCONTROLLER_DICTIONARY_KEY_SKYCONTROLLER_AXISMAPPINGSSTATE_CURRENTAXISMAPPINGS_MAPPING_UID
                0x000000000022cbb0                ARCONTROLLER_DICTIONARY_KEY_SKYCONTROLLER_AXISMAPPINGSSTATE_CURRENTAXISMAPPINGS_AXIS_ID
                0x000000000022cbb8                ARCONTROLLER_DICTIONARY_KEY_SKYCONTROLLER_BUTTONMAPPINGSSTATE_AVAILABLEBUTTONMAPPINGS_NAME
                0x000000000022cbc0                ARCONTROLLER_DICTIONARY_KEY_SKYCONTROLLER_BUTTONMAPPINGSSTATE_AVAILABLEBUTTONMAPPINGS_MAPPING_UID
                0x000000000022cbc8                ARCONTROLLER_DICTIONARY_KEY_SKYCONTROLLER_BUTTONMAPPINGSSTATE_CURRENTBUTTONMAPPINGS_MAPPING_UID
                0x000000000022cbd0                ARCONTROLLER_DICTIONARY_KEY_SKYCONTROLLER_BUTTONMAPPINGSSTATE_CURRENTBUTTONMAPPINGS_KEY_ID
                0x000000000022cbd8                ARCONTROLLER_DICTIONARY_KEY_SKYCONTROLLER_GAMEPADINFOSSTATE_GAMEPADCONTROL_NAME
                0x000000000022cbe0                ARCONTROLLER_DICTIONARY_KEY_SKYCONTROLLER_GAMEPADINFOSSTATE_GAMEPADCONTROL_ID
                0x000000000022cbe8                ARCONTROLLER_DICTIONARY_KEY_SKYCONTROLLER_GAMEPADINFOSSTATE_GAMEPADCONTROL_TYPE
                0x000000000022cbf0                ARCONTROLLER_DICTIONARY_KEY_SKYCONTROLLER_ACCESSPOINTSETTINGSSTATE_WIFISECURITYCHANGED_KEY
                0x000000000022cbf8                ARCONTROLLER_DICTIONARY_KEY_SKYCONTROLLER_ACCESSPOINTSETTINGSSTATE_WIFISECURITYCHANGED_SECURITY_TYPE
                0x000000000022cc00                ARCONTROLLER_DICTIONARY_KEY_SKYCONTROLLER_ACCESSPOINTSETTINGSSTATE_WIFISELECTIONCHANGED_CHANNEL
                0x000000000022cc08                ARCONTROLLER_DICTIONARY_KEY_SKYCONTROLLER_ACCESSPOINTSETTINGSSTATE_WIFISELECTIONCHANGED_BAND
                0x000000000022cc10                ARCONTROLLER_DICTIONARY_KEY_SKYCONTROLLER_ACCESSPOINTSETTINGSSTATE_WIFISELECTIONCHANGED_TYPE
                0x000000000022cc18                ARCONTROLLER_DICTIONARY_KEY_SKYCONTROLLER_ACCESSPOINTSETTINGSSTATE_ACCESSPOINTCHANNELCHANGED_CHANNEL
                0x000000000022cc20                ARCONTROLLER_DICTIONARY_KEY_SKYCONTROLLER_ACCESSPOINTSETTINGSSTATE_ACCESSPOINTSSIDCHANGED_SSID
                0x000000000022cc28                ARCONTROLLER_DICTIONARY_KEY_SKYCONTROLLER_SKYCONTROLLERSTATE_ATTITUDECHANGED_Q3
                0x000000000022cc30                ARCONTROLLER_DICTIONARY_KEY_SKYCONTROLLER_SKYCONTROLLERSTATE_ATTITUDECHANGED_Q2
                0x000000000022cc38                ARCONTROLLER_DICTIONARY_KEY_SKYCONTROLLER_SKYCONTROLLERSTATE_ATTITUDECHANGED_Q1
                0x000000000022cc40                ARCONTROLLER_DICTIONARY_KEY_SKYCONTROLLER_SKYCONTROLLERSTATE_ATTITUDECHANGED_Q0
                0x000000000022cc48                ARCONTROLLER_DICTIONARY_KEY_SKYCONTROLLER_SKYCONTROLLERSTATE_BATTERYSTATE_STATE
                0x000000000022cc50                ARCONTROLLER_DICTIONARY_KEY_SKYCONTROLLER_SKYCONTROLLERSTATE_GPSPOSITIONCHANGED_HEADING
                0x000000000022cc58                ARCONTROLLER_DICTIONARY_KEY_SKYCONTROLLER_SKYCONTROLLERSTATE_GPSPOSITIONCHANGED_ALTITUDE
                0x000000000022cc60                ARCONTROLLER_DICTIONARY_KEY_SKYCONTROLLER_SKYCONTROLLERSTATE_GPSPOSITIONCHANGED_LONGITUDE
                0x000000000022cc68                ARCONTROLLER_DICTIONARY_KEY_SKYCONTROLLER_SKYCONTROLLERSTATE_GPSPOSITIONCHANGED_LATITUDE
                0x000000000022cc70                ARCONTROLLER_DICTIONARY_KEY_SKYCONTROLLER_SKYCONTROLLERSTATE_GPSFIXCHANGED_FIXED
                0x000000000022cc78                ARCONTROLLER_DICTIONARY_KEY_SKYCONTROLLER_SKYCONTROLLERSTATE_BATTERYCHANGED_PERCENT
                0x000000000022cc80                ARCONTROLLER_DICTIONARY_KEY_SKYCONTROLLER_SETTINGSSTATE_CPUID_ID
                0x000000000022cc88                ARCONTROLLER_DICTIONARY_KEY_SKYCONTROLLER_SETTINGSSTATE_PRODUCTVERSIONCHANGED_HARDWARE
                0x000000000022cc90                ARCONTROLLER_DICTIONARY_KEY_SKYCONTROLLER_SETTINGSSTATE_PRODUCTVERSIONCHANGED_SOFTWARE
                0x000000000022cc98                ARCONTROLLER_DICTIONARY_KEY_SKYCONTROLLER_SETTINGSSTATE_PRODUCTVARIANTCHANGED_VARIANT
                0x000000000022cca0                ARCONTROLLER_DICTIONARY_KEY_SKYCONTROLLER_SETTINGSSTATE_PRODUCTSERIALCHANGED_SERIALNUMBER
                0x000000000022cca8                ARCONTROLLER_DICTIONARY_KEY_SKYCONTROLLER_DEVICESTATE_CONNEXIONCHANGED_DEVICEPRODUCTID
                0x000000000022ccb0                ARCONTROLLER_DICTIONARY_KEY_SKYCONTROLLER_DEVICESTATE_CONNEXIONCHANGED_DEVICENAME
                0x000000000022ccb8                ARCONTROLLER_DICTIONARY_KEY_SKYCONTROLLER_DEVICESTATE_CONNEXIONCHANGED_STATUS
                0x000000000022ccc0                ARCONTROLLER_DICTIONARY_KEY_SKYCONTROLLER_DEVICESTATE_DEVICELIST_NAME
                0x000000000022ccc8                ARCONTROLLER_DICTIONARY_KEY_SKYCONTROLLER_WIFISTATE_WIFIENVIRONMENTCHANGED_ENVIRONMENT
                0x000000000022ccd0                ARCONTROLLER_DICTIONARY_KEY_SKYCONTROLLER_WIFISTATE_WIFICOUNTRYCHANGED_CODE
                0x000000000022ccd8                ARCONTROLLER_DICTIONARY_KEY_SKYCONTROLLER_WIFISTATE_WIFIAUTHCHANNELLISTCHANGEDV2_IN_OR_OUT
                0x000000000022cce0                ARCONTROLLER_DICTIONARY_KEY_SKYCONTROLLER_WIFISTATE_WIFIAUTHCHANNELLISTCHANGEDV2_CHANNEL
                0x000000000022cce8                ARCONTROLLER_DICTIONARY_KEY_SKYCONTROLLER_WIFISTATE_WIFIAUTHCHANNELLISTCHANGEDV2_BAND
                0x000000000022ccf0                ARCONTROLLER_DICTIONARY_KEY_SKYCONTROLLER_WIFISTATE_WIFISIGNALCHANGED_LEVEL
                0x000000000022ccf8                ARCONTROLLER_DICTIONARY_KEY_SKYCONTROLLER_WIFISTATE_WIFIAUTHCHANNELLISTCHANGED_IN_OR_OUT
                0x000000000022cd00                ARCONTROLLER_DICTIONARY_KEY_SKYCONTROLLER_WIFISTATE_WIFIAUTHCHANNELLISTCHANGED_CHANNEL
                0x000000000022cd08                ARCONTROLLER_DICTIONARY_KEY_SKYCONTROLLER_WIFISTATE_WIFIAUTHCHANNELLISTCHANGED_BAND
                0x000000000022cd10                ARCONTROLLER_DICTIONARY_KEY_SKYCONTROLLER_WIFISTATE_CONNEXIONCHANGED_STATUS
                0x000000000022cd18                ARCONTROLLER_DICTIONARY_KEY_SKYCONTROLLER_WIFISTATE_CONNEXIONCHANGED_SSID
                0x000000000022cd20                ARCONTROLLER_DICTIONARY_KEY_SKYCONTROLLER_WIFISTATE_WIFILIST_FREQUENCY
                0x000000000022cd28                ARCONTROLLER_DICTIONARY_KEY_SKYCONTROLLER_WIFISTATE_WIFILIST_RSSI
                0x000000000022cd30                ARCONTROLLER_DICTIONARY_KEY_SKYCONTROLLER_WIFISTATE_WIFILIST_SAVED
                0x000000000022cd38                ARCONTROLLER_DICTIONARY_KEY_SKYCONTROLLER_WIFISTATE_WIFILIST_SECURED
                0x000000000022cd40                ARCONTROLLER_DICTIONARY_KEY_SKYCONTROLLER_WIFISTATE_WIFILIST_SSID
                0x000000000022cd48                ARCONTROLLER_DICTIONARY_KEY_SKYCONTROLLER_WIFISTATE_WIFILIST_BSSID
                0x000000000022cd50                ARCONTROLLER_DICTIONARY_KEY_SEQUOIA_CAM_RADIOMETRICCALIBRESULT_VALUE
                0x000000000022cd58                ARCONTROLLER_DICTIONARY_KEY_SEQUOIA_CAM_RADIOMETRICCALIBRESULT_CAM_ID
                0x000000000022cd60                ARCONTROLLER_DICTIONARY_KEY_SEQUOIA_CAM_RADIOMETRICCALIBSTATUS_VALUE
                0x000000000022cd68                ARCONTROLLER_DICTIONARY_KEY_SEQUOIA_CAM_RADIOMETRICCALIBSTATUS_CAM_ID
                0x000000000022cd70                ARCONTROLLER_DICTIONARY_KEY_RC_CHANNELACTIONITEM_INVERTED
                0x000000000022cd78                ARCONTROLLER_DICTIONARY_KEY_RC_CHANNELACTIONITEM_CALIBRATED_TYPE
                0x000000000022cd80                ARCONTROLLER_DICTIONARY_KEY_RC_CHANNELACTIONITEM_SUPPORTED_TYPE
                0x000000000022cd88                ARCONTROLLER_DICTIONARY_KEY_RC_CHANNELACTIONITEM_ACTION
                0x000000000022cd90                ARCONTROLLER_DICTIONARY_KEY_RC_CALIBRATIONSTATE_NEUTRAL_CALIBRATED
                0x000000000022cd98                ARCONTROLLER_DICTIONARY_KEY_RC_CALIBRATIONSTATE_CALIBRATED
                0x000000000022cda0                ARCONTROLLER_DICTIONARY_KEY_RC_CALIBRATIONSTATE_REQUIRED
                0x000000000022cda8                ARCONTROLLER_DICTIONARY_KEY_RC_CALIBRATIONSTATE_CHANNEL_ACTION
                0x000000000022cdb0                ARCONTROLLER_DICTIONARY_KEY_RC_CALIBRATIONSTATE_CALIBRATION_TYPE
                0x000000000022cdb8                ARCONTROLLER_DICTIONARY_KEY_RC_CHANNELVALUE_VALUE
                0x000000000022cdc0                ARCONTROLLER_DICTIONARY_KEY_RC_CHANNELVALUE_ACTION
                0x000000000022cdc8                ARCONTROLLER_DICTIONARY_KEY_RC_CHANNELVALUE_ID
                0x000000000022cdd0                ARCONTROLLER_DICTIONARY_KEY_RC_CHANNELSMONITORSTATE_STATE
                0x000000000022cdd8                ARCONTROLLER_DICTIONARY_KEY_RC_RECEIVERSTATE_ENABLED
                0x000000000022cde0                ARCONTROLLER_DICTIONARY_KEY_RC_RECEIVERSTATE_PROTOCOL
                0x000000000022cde8                ARCONTROLLER_DICTIONARY_KEY_RC_RECEIVERSTATE_STATE
                0x000000000022cdf0                ARCONTROLLER_DICTIONARY_KEY_POWERUP_SOUNDSSTATE_BUZZCHANGED_ENABLED
                0x000000000022cdf8                ARCONTROLLER_DICTIONARY_KEY_POWERUP_VIDEOSETTINGSSTATE_VIDEOMODECHANGED_MODE
                0x000000000022ce00                ARCONTROLLER_DICTIONARY_KEY_POWERUP_VIDEOSETTINGSSTATE_AUTORECORDCHANGED_ENABLED
                0x000000000022ce08                ARCONTROLLER_DICTIONARY_KEY_POWERUP_MEDIASTREAMINGSTATE_VIDEOENABLECHANGED_ENABLED
                0x000000000022ce10                ARCONTROLLER_DICTIONARY_KEY_POWERUP_NETWORKSTATE_LINKQUALITYCHANGED_QUALITY
                0x000000000022ce18                ARCONTROLLER_DICTIONARY_KEY_POWERUP_NETWORKSTATE_WIFIAUTHCHANNELLISTCHANGED_IN_OR_OUT
                0x000000000022ce20                ARCONTROLLER_DICTIONARY_KEY_POWERUP_NETWORKSTATE_WIFIAUTHCHANNELLISTCHANGED_CHANNEL
                0x000000000022ce28                ARCONTROLLER_DICTIONARY_KEY_POWERUP_NETWORKSTATE_WIFIAUTHCHANNELLISTCHANGED_BAND
                0x000000000022ce30                ARCONTROLLER_DICTIONARY_KEY_POWERUP_NETWORKSTATE_WIFISCANLISTCHANGED_CHANNEL
                0x000000000022ce38                ARCONTROLLER_DICTIONARY_KEY_POWERUP_NETWORKSTATE_WIFISCANLISTCHANGED_BAND
                0x000000000022ce40                ARCONTROLLER_DICTIONARY_KEY_POWERUP_NETWORKSTATE_WIFISCANLISTCHANGED_RSSI
                0x000000000022ce48                ARCONTROLLER_DICTIONARY_KEY_POWERUP_NETWORKSTATE_WIFISCANLISTCHANGED_SSID
                0x000000000022ce50                ARCONTROLLER_DICTIONARY_KEY_POWERUP_NETWORKSETTINGSSTATE_WIFISELECTIONCHANGED_CHANNEL
                0x000000000022ce58                ARCONTROLLER_DICTIONARY_KEY_POWERUP_NETWORKSETTINGSSTATE_WIFISELECTIONCHANGED_BAND
                0x000000000022ce60                ARCONTROLLER_DICTIONARY_KEY_POWERUP_NETWORKSETTINGSSTATE_WIFISELECTIONCHANGED_TYPE
                0x000000000022ce68                ARCONTROLLER_DICTIONARY_KEY_POWERUP_MEDIARECORDEVENT_VIDEOEVENTCHANGED_ERROR
                0x000000000022ce70                ARCONTROLLER_DICTIONARY_KEY_POWERUP_MEDIARECORDEVENT_VIDEOEVENTCHANGED_EVENT
                0x000000000022ce78                ARCONTROLLER_DICTIONARY_KEY_POWERUP_MEDIARECORDEVENT_PICTUREEVENTCHANGED_ERROR
                0x000000000022ce80                ARCONTROLLER_DICTIONARY_KEY_POWERUP_MEDIARECORDEVENT_PICTUREEVENTCHANGED_EVENT
                0x000000000022ce88                ARCONTROLLER_DICTIONARY_KEY_POWERUP_MEDIARECORDSTATE_VIDEOSTATECHANGEDV2_ERROR
                0x000000000022ce90                ARCONTROLLER_DICTIONARY_KEY_POWERUP_MEDIARECORDSTATE_VIDEOSTATECHANGEDV2_STATE
                0x000000000022ce98                ARCONTROLLER_DICTIONARY_KEY_POWERUP_MEDIARECORDSTATE_PICTURESTATECHANGEDV2_ERROR
                0x000000000022cea0                ARCONTROLLER_DICTIONARY_KEY_POWERUP_MEDIARECORDSTATE_PICTURESTATECHANGEDV2_STATE
                0x000000000022cea8                ARCONTROLLER_DICTIONARY_KEY_POWERUP_PILOTINGSETTINGSSTATE_SETTINGCHANGED_MAX
                0x000000000022ceb0                ARCONTROLLER_DICTIONARY_KEY_POWERUP_PILOTINGSETTINGSSTATE_SETTINGCHANGED_MIN
                0x000000000022ceb8                ARCONTROLLER_DICTIONARY_KEY_POWERUP_PILOTINGSETTINGSSTATE_SETTINGCHANGED_CURRENT
                0x000000000022cec0                ARCONTROLLER_DICTIONARY_KEY_POWERUP_PILOTINGSETTINGSSTATE_SETTINGCHANGED_SETTING
                0x000000000022cec8                ARCONTROLLER_DICTIONARY_KEY_POWERUP_PILOTINGSTATE_ALTITUDECHANGED_ALTITUDE
                0x000000000022ced0                ARCONTROLLER_DICTIONARY_KEY_POWERUP_PILOTINGSTATE_ATTITUDECHANGED_YAW
                0x000000000022ced8                ARCONTROLLER_DICTIONARY_KEY_POWERUP_PILOTINGSTATE_ATTITUDECHANGED_PITCH
                0x000000000022cee0                ARCONTROLLER_DICTIONARY_KEY_POWERUP_PILOTINGSTATE_ATTITUDECHANGED_ROLL
                0x000000000022cee8                ARCONTROLLER_DICTIONARY_KEY_POWERUP_PILOTINGSTATE_MOTORMODECHANGED_MODE
                0x000000000022cef0                ARCONTROLLER_DICTIONARY_KEY_POWERUP_PILOTINGSTATE_FLYINGSTATECHANGED_STATE
                0x000000000022cef8                ARCONTROLLER_DICTIONARY_KEY_POWERUP_PILOTINGSTATE_ALERTSTATECHANGED_STATE
                0x000000000022cf00                ARCONTROLLER_DICTIONARY_KEY_MINIDRONE_REMOTECONTROLLERSTATE_CONNECTIONCHANGED_STATE
                0x000000000022cf08                ARCONTROLLER_DICTIONARY_KEY_MINIDRONE_VIDEOSETTINGSSTATE_VIDEORESOLUTIONCHANGED_TYPE
                0x000000000022cf10                ARCONTROLLER_DICTIONARY_KEY_MINIDRONE_VIDEOSETTINGSSTATE_ELECTRICFREQUENCYCHANGED_FREQUENCY
                0x000000000022cf18                ARCONTROLLER_DICTIONARY_KEY_MINIDRONE_VIDEOSETTINGSSTATE_AUTORECORDCHANGED_ENABLED
                0x000000000022cf20                ARCONTROLLER_DICTIONARY_KEY_MINIDRONE_MINICAMSTATE_MASSSTORAGEFORMATCHANGED_STATE
                0x000000000022cf28                ARCONTROLLER_DICTIONARY_KEY_MINIDRONE_MINICAMSTATE_VIDEOSTATECHANGED_ERROR
                0x000000000022cf30                ARCONTROLLER_DICTIONARY_KEY_MINIDRONE_MINICAMSTATE_VIDEOSTATECHANGED_STATE
                0x000000000022cf38                ARCONTROLLER_DICTIONARY_KEY_MINIDRONE_MINICAMSTATE_PICTURECHANGED_RESULT
                0x000000000022cf40                ARCONTROLLER_DICTIONARY_KEY_MINIDRONE_MINICAMSTATE_PICTURECHANGED_STATE
                0x000000000022cf48                ARCONTROLLER_DICTIONARY_KEY_MINIDRONE_MINICAMSTATE_VERSIONCHANGED_HARDWARE
                0x000000000022cf50                ARCONTROLLER_DICTIONARY_KEY_MINIDRONE_MINICAMSTATE_VERSIONCHANGED_SOFTWARE
                0x000000000022cf58                ARCONTROLLER_DICTIONARY_KEY_MINIDRONE_MINICAMSTATE_STATECHANGED_STATE
                0x000000000022cf60                ARCONTROLLER_DICTIONARY_KEY_MINIDRONE_MINICAMSTATE_PRODUCTSERIALCHANGED_SERIAL_NUMBER
                0x000000000022cf68                ARCONTROLLER_DICTIONARY_KEY_MINIDRONE_MINICAMSTATE_POWERMODECHANGED_POWER_MODE
                0x000000000022cf70                ARCONTROLLER_DICTIONARY_KEY_MINIDRONE_NAVIGATIONDATASTATE_DRONEQUATERNION_TS
                0x000000000022cf78                ARCONTROLLER_DICTIONARY_KEY_MINIDRONE_NAVIGATIONDATASTATE_DRONEQUATERNION_Q_Z
                0x000000000022cf80                ARCONTROLLER_DICTIONARY_KEY_MINIDRONE_NAVIGATIONDATASTATE_DRONEQUATERNION_Q_Y
                0x000000000022cf88                ARCONTROLLER_DICTIONARY_KEY_MINIDRONE_NAVIGATIONDATASTATE_DRONEQUATERNION_Q_X
                0x000000000022cf90                ARCONTROLLER_DICTIONARY_KEY_MINIDRONE_NAVIGATIONDATASTATE_DRONEQUATERNION_Q_W
                0x000000000022cf98                ARCONTROLLER_DICTIONARY_KEY_MINIDRONE_NAVIGATIONDATASTATE_DRONEALTITUDE_TS
                0x000000000022cfa0                ARCONTROLLER_DICTIONARY_KEY_MINIDRONE_NAVIGATIONDATASTATE_DRONEALTITUDE_ALTITUDE
                0x000000000022cfa8                ARCONTROLLER_DICTIONARY_KEY_MINIDRONE_NAVIGATIONDATASTATE_DRONESPEED_TS
                0x000000000022cfb0                ARCONTROLLER_DICTIONARY_KEY_MINIDRONE_NAVIGATIONDATASTATE_DRONESPEED_SPEED_Z
                0x000000000022cfb8                ARCONTROLLER_DICTIONARY_KEY_MINIDRONE_NAVIGATIONDATASTATE_DRONESPEED_SPEED_Y
                0x000000000022cfc0                ARCONTROLLER_DICTIONARY_KEY_MINIDRONE_NAVIGATIONDATASTATE_DRONESPEED_SPEED_X
                0x000000000022cfc8                ARCONTROLLER_DICTIONARY_KEY_MINIDRONE_NAVIGATIONDATASTATE_DRONEPOSITION_TS
                0x000000000022cfd0                ARCONTROLLER_DICTIONARY_KEY_MINIDRONE_NAVIGATIONDATASTATE_DRONEPOSITION_PSI
                0x000000000022cfd8                ARCONTROLLER_DICTIONARY_KEY_MINIDRONE_NAVIGATIONDATASTATE_DRONEPOSITION_POSZ
                0x000000000022cfe0                ARCONTROLLER_DICTIONARY_KEY_MINIDRONE_NAVIGATIONDATASTATE_DRONEPOSITION_POSY
                0x000000000022cfe8                ARCONTROLLER_DICTIONARY_KEY_MINIDRONE_NAVIGATIONDATASTATE_DRONEPOSITION_POSX
                0x000000000022cff0                ARCONTROLLER_DICTIONARY_KEY_MINIDRONE_USBACCESSORYSTATE_GUNSTATE_STATE
                0x000000000022cff8                ARCONTROLLER_DICTIONARY_KEY_MINIDRONE_USBACCESSORYSTATE_GUNSTATE_ID
                0x000000000022d000                ARCONTROLLER_DICTIONARY_KEY_MINIDRONE_USBACCESSORYSTATE_CLAWSTATE_STATE
                0x000000000022d008                ARCONTROLLER_DICTIONARY_KEY_MINIDRONE_USBACCESSORYSTATE_CLAWSTATE_ID
                0x000000000022d010                ARCONTROLLER_DICTIONARY_KEY_MINIDRONE_USBACCESSORYSTATE_LIGHTSTATE_INTENSITY
                0x000000000022d018                ARCONTROLLER_DICTIONARY_KEY_MINIDRONE_USBACCESSORYSTATE_LIGHTSTATE_STATE
                0x000000000022d020                ARCONTROLLER_DICTIONARY_KEY_MINIDRONE_USBACCESSORYSTATE_LIGHTSTATE_ID
                0x000000000022d028                ARCONTROLLER_DICTIONARY_KEY_MINIDRONE_FLOODCONTROLSTATE_FLOODCONTROLCHANGED_DELAY
                0x000000000022d030                ARCONTROLLER_DICTIONARY_KEY_MINIDRONE_SETTINGSSTATE_CUTOUTMODECHANGED_ENABLE
                0x000000000022d038                ARCONTROLLER_DICTIONARY_KEY_MINIDRONE_SETTINGSSTATE_PRODUCTINERTIALVERSIONCHANGED_HARDWARE
                0x000000000022d040                ARCONTROLLER_DICTIONARY_KEY_MINIDRONE_SETTINGSSTATE_PRODUCTINERTIALVERSIONCHANGED_SOFTWARE
                0x000000000022d048                ARCONTROLLER_DICTIONARY_KEY_MINIDRONE_SETTINGSSTATE_PRODUCTMOTORSVERSIONCHANGED_HARDWARE
                0x000000000022d050                ARCONTROLLER_DICTIONARY_KEY_MINIDRONE_SETTINGSSTATE_PRODUCTMOTORSVERSIONCHANGED_SOFTWARE
                0x000000000022d058                ARCONTROLLER_DICTIONARY_KEY_MINIDRONE_SETTINGSSTATE_PRODUCTMOTORSVERSIONCHANGED_TYPE
                0x000000000022d060                ARCONTROLLER_DICTIONARY_KEY_MINIDRONE_SETTINGSSTATE_PRODUCTMOTORSVERSIONCHANGED_MOTOR
                0x000000000022d068                ARCONTROLLER_DICTIONARY_KEY_MINIDRONE_SPEEDSETTINGSSTATE_MAXPLANEMODEROTATIONSPEEDCHANGED_MAX
                0x000000000022d070                ARCONTROLLER_DICTIONARY_KEY_MINIDRONE_SPEEDSETTINGSSTATE_MAXPLANEMODEROTATIONSPEEDCHANGED_MIN
                0x000000000022d078                ARCONTROLLER_DICTIONARY_KEY_MINIDRONE_SPEEDSETTINGSSTATE_MAXPLANEMODEROTATIONSPEEDCHANGED_CURRENT
                0x000000000022d080                ARCONTROLLER_DICTIONARY_KEY_MINIDRONE_SPEEDSETTINGSSTATE_MAXHORIZONTALSPEEDCHANGED_MAX
                0x000000000022d088                ARCONTROLLER_DICTIONARY_KEY_MINIDRONE_SPEEDSETTINGSSTATE_MAXHORIZONTALSPEEDCHANGED_MIN
                0x000000000022d090                ARCONTROLLER_DICTIONARY_KEY_MINIDRONE_SPEEDSETTINGSSTATE_MAXHORIZONTALSPEEDCHANGED_CURRENT
                0x000000000022d098                ARCONTROLLER_DICTIONARY_KEY_MINIDRONE_SPEEDSETTINGSSTATE_WHEELSCHANGED_PRESENT
                0x000000000022d0a0                ARCONTROLLER_DICTIONARY_KEY_MINIDRONE_SPEEDSETTINGSSTATE_MAXROTATIONSPEEDCHANGED_MAX
                0x000000000022d0a8                ARCONTROLLER_DICTIONARY_KEY_MINIDRONE_SPEEDSETTINGSSTATE_MAXROTATIONSPEEDCHANGED_MIN
                0x000000000022d0b0                ARCONTROLLER_DICTIONARY_KEY_MINIDRONE_SPEEDSETTINGSSTATE_MAXROTATIONSPEEDCHANGED_CURRENT
                0x000000000022d0b8                ARCONTROLLER_DICTIONARY_KEY_MINIDRONE_SPEEDSETTINGSSTATE_MAXVERTICALSPEEDCHANGED_MAX
                0x000000000022d0c0                ARCONTROLLER_DICTIONARY_KEY_MINIDRONE_SPEEDSETTINGSSTATE_MAXVERTICALSPEEDCHANGED_MIN
                0x000000000022d0c8                ARCONTROLLER_DICTIONARY_KEY_MINIDRONE_SPEEDSETTINGSSTATE_MAXVERTICALSPEEDCHANGED_CURRENT
                0x000000000022d0d0                ARCONTROLLER_DICTIONARY_KEY_MINIDRONE_PILOTINGSETTINGSSTATE_PREFERREDPILOTINGMODECHANGED_MODE
                0x000000000022d0d8                ARCONTROLLER_DICTIONARY_KEY_MINIDRONE_PILOTINGSETTINGSSTATE_MAXTHROTTLECHANGED_MAX
                0x000000000022d0e0                ARCONTROLLER_DICTIONARY_KEY_MINIDRONE_PILOTINGSETTINGSSTATE_BANKEDTURNCHANGED_STATE
                0x000000000022d0e8                ARCONTROLLER_DICTIONARY_KEY_MINIDRONE_PILOTINGSETTINGSSTATE_MAXTILTCHANGED_MAX
                0x000000000022d0f0                ARCONTROLLER_DICTIONARY_KEY_MINIDRONE_PILOTINGSETTINGSSTATE_MAXTILTCHANGED_MIN
                0x000000000022d0f8                ARCONTROLLER_DICTIONARY_KEY_MINIDRONE_PILOTINGSETTINGSSTATE_MAXTILTCHANGED_CURRENT
                0x000000000022d100                ARCONTROLLER_DICTIONARY_KEY_MINIDRONE_PILOTINGSETTINGSSTATE_MAXALTITUDECHANGED_MAX
                0x000000000022d108                ARCONTROLLER_DICTIONARY_KEY_MINIDRONE_PILOTINGSETTINGSSTATE_MAXALTITUDECHANGED_MIN
                0x000000000022d110                ARCONTROLLER_DICTIONARY_KEY_MINIDRONE_PILOTINGSETTINGSSTATE_MAXALTITUDECHANGED_CURRENT
                0x000000000022d118                ARCONTROLLER_DICTIONARY_KEY_MINIDRONE_MEDIARECORDEVENT_PICTUREEVENTCHANGED_ERROR
                0x000000000022d120                ARCONTROLLER_DICTIONARY_KEY_MINIDRONE_MEDIARECORDEVENT_PICTUREEVENTCHANGED_EVENT
                0x000000000022d128                ARCONTROLLER_DICTIONARY_KEY_MINIDRONE_MEDIARECORDSTATE_PICTURESTATECHANGEDV2_ERROR
                0x000000000022d130                ARCONTROLLER_DICTIONARY_KEY_MINIDRONE_MEDIARECORDSTATE_PICTURESTATECHANGEDV2_STATE
                0x000000000022d138                ARCONTROLLER_DICTIONARY_KEY_MINIDRONE_MEDIARECORDSTATE_PICTURESTATECHANGED_MASS_STORAGE_ID
                0x000000000022d140                ARCONTROLLER_DICTIONARY_KEY_MINIDRONE_MEDIARECORDSTATE_PICTURESTATECHANGED_STATE
                0x000000000022d148                ARCONTROLLER_DICTIONARY_KEY_MINIDRONE_PILOTINGSTATE_PILOTINGMODECHANGED_MODE
                0x000000000022d150                ARCONTROLLER_DICTIONARY_KEY_MINIDRONE_PILOTINGSTATE_PLANEGEARBOXCHANGED_STATE
                0x000000000022d158                ARCONTROLLER_DICTIONARY_KEY_MINIDRONE_PILOTINGSTATE_FLYINGMODECHANGED_MODE
                0x000000000022d160                ARCONTROLLER_DICTIONARY_KEY_MINIDRONE_PILOTINGSTATE_AUTOTAKEOFFMODECHANGED_STATE
                0x000000000022d168                ARCONTROLLER_DICTIONARY_KEY_MINIDRONE_PILOTINGSTATE_ALERTSTATECHANGED_STATE
                0x000000000022d170                ARCONTROLLER_DICTIONARY_KEY_MINIDRONE_PILOTINGSTATE_FLYINGSTATECHANGED_STATE
                0x000000000022d178                ARCONTROLLER_DICTIONARY_KEY_MAPPER_MINI_AXISMAPPINGITEM_BUTTONS
                0x000000000022d180                ARCONTROLLER_DICTIONARY_KEY_MAPPER_MINI_AXISMAPPINGITEM_AXIS
                0x000000000022d188                ARCONTROLLER_DICTIONARY_KEY_MAPPER_MINI_AXISMAPPINGITEM_ACTION
                0x000000000022d190                ARCONTROLLER_DICTIONARY_KEY_MAPPER_MINI_AXISMAPPINGITEM_MODES
                0x000000000022d198                ARCONTROLLER_DICTIONARY_KEY_MAPPER_MINI_AXISMAPPINGITEM_UID
                0x000000000022d1a0                ARCONTROLLER_DICTIONARY_KEY_MAPPER_MINI_BUTTONMAPPINGITEM_BUTTONS
                0x000000000022d1a8                ARCONTROLLER_DICTIONARY_KEY_MAPPER_MINI_BUTTONMAPPINGITEM_ACTION
                0x000000000022d1b0                ARCONTROLLER_DICTIONARY_KEY_MAPPER_MINI_BUTTONMAPPINGITEM_MODES
                0x000000000022d1b8                ARCONTROLLER_DICTIONARY_KEY_MAPPER_MINI_BUTTONMAPPINGITEM_UID
                0x000000000022d1c0                ARCONTROLLER_DICTIONARY_KEY_MAPPER_ACTIVEPRODUCT_PRODUCT
                0x000000000022d1c8                ARCONTROLLER_DICTIONARY_KEY_MAPPER_INVERTEDMAPITEM_INVERTED
                0x000000000022d1d0                ARCONTROLLER_DICTIONARY_KEY_MAPPER_INVERTEDMAPITEM_AXIS
                0x000000000022d1d8                ARCONTROLLER_DICTIONARY_KEY_MAPPER_INVERTEDMAPITEM_PRODUCT
                0x000000000022d1e0                ARCONTROLLER_DICTIONARY_KEY_MAPPER_INVERTEDMAPITEM_UID
                0x000000000022d1e8                ARCONTROLLER_DICTIONARY_KEY_MAPPER_EXPOMAPITEM_EXPO
                0x000000000022d1f0                ARCONTROLLER_DICTIONARY_KEY_MAPPER_EXPOMAPITEM_AXIS
                0x000000000022d1f8                ARCONTROLLER_DICTIONARY_KEY_MAPPER_EXPOMAPITEM_PRODUCT
                0x000000000022d200                ARCONTROLLER_DICTIONARY_KEY_MAPPER_EXPOMAPITEM_UID
                0x000000000022d208                ARCONTROLLER_DICTIONARY_KEY_MAPPER_APPLICATIONBUTTONEVENT_ACTION
                0x000000000022d210                ARCONTROLLER_DICTIONARY_KEY_MAPPER_APPLICATIONAXISEVENT_VALUE
                0x000000000022d218                ARCONTROLLER_DICTIONARY_KEY_MAPPER_APPLICATIONAXISEVENT_ACTION
                0x000000000022d220                ARCONTROLLER_DICTIONARY_KEY_MAPPER_AXISMAPPINGITEM_BUTTONS
                0x000000000022d228                ARCONTROLLER_DICTIONARY_KEY_MAPPER_AXISMAPPINGITEM_AXIS
                0x000000000022d230                ARCONTROLLER_DICTIONARY_KEY_MAPPER_AXISMAPPINGITEM_ACTION
                0x000000000022d238                ARCONTROLLER_DICTIONARY_KEY_MAPPER_AXISMAPPINGITEM_PRODUCT
                0x000000000022d240                ARCONTROLLER_DICTIONARY_KEY_MAPPER_AXISMAPPINGITEM_UID
                0x000000000022d248                ARCONTROLLER_DICTIONARY_KEY_MAPPER_BUTTONMAPPINGITEM_BUTTONS
                0x000000000022d250                ARCONTROLLER_DICTIONARY_KEY_MAPPER_BUTTONMAPPINGITEM_ACTION
                0x000000000022d258                ARCONTROLLER_DICTIONARY_KEY_MAPPER_BUTTONMAPPINGITEM_PRODUCT
                0x000000000022d260                ARCONTROLLER_DICTIONARY_KEY_MAPPER_BUTTONMAPPINGITEM_UID
                0x000000000022d268                ARCONTROLLER_DICTIONARY_KEY_MAPPER_GRABAXISEVENT_VALUE
                0x000000000022d270                ARCONTROLLER_DICTIONARY_KEY_MAPPER_GRABAXISEVENT_AXIS
                0x000000000022d278                ARCONTROLLER_DICTIONARY_KEY_MAPPER_GRABBUTTONEVENT_EVENT
                0x000000000022d280                ARCONTROLLER_DICTIONARY_KEY_MAPPER_GRABBUTTONEVENT_BUTTON
                0x000000000022d288                ARCONTROLLER_DICTIONARY_KEY_MAPPER_GRABSTATE_BUTTONS_STATE
                0x000000000022d290                ARCONTROLLER_DICTIONARY_KEY_MAPPER_GRABSTATE_AXES
                0x000000000022d298                ARCONTROLLER_DICTIONARY_KEY_MAPPER_GRABSTATE_BUTTONS
                0x000000000022d2a0                ARCONTROLLER_DICTIONARY_KEY_JUMPINGSUMO_VIDEOSETTINGSSTATE_AUTORECORDCHANGED_ENABLED
                0x000000000022d2a8                ARCONTROLLER_DICTIONARY_KEY_JUMPINGSUMO_MEDIASTREAMINGSTATE_VIDEOENABLECHANGED_ENABLED
                0x000000000022d2b0                ARCONTROLLER_DICTIONARY_KEY_JUMPINGSUMO_SPEEDSETTINGSSTATE_OUTDOORCHANGED_OUTDOOR
                0x000000000022d2b8                ARCONTROLLER_DICTIONARY_KEY_JUMPINGSUMO_ROADPLANSTATE_PLAYSCRIPTCHANGED_RESULTCODE
                0x000000000022d2c0                ARCONTROLLER_DICTIONARY_KEY_JUMPINGSUMO_ROADPLANSTATE_SCRIPTDELETECHANGED_RESULTCODE
                0x000000000022d2c8                ARCONTROLLER_DICTIONARY_KEY_JUMPINGSUMO_ROADPLANSTATE_SCRIPTUPLOADCHANGED_RESULTCODE
                0x000000000022d2d0                ARCONTROLLER_DICTIONARY_KEY_JUMPINGSUMO_ROADPLANSTATE_SCRIPTMETADATALISTCHANGED_LASTMODIFIED
                0x000000000022d2d8                ARCONTROLLER_DICTIONARY_KEY_JUMPINGSUMO_ROADPLANSTATE_SCRIPTMETADATALISTCHANGED_NAME
                0x000000000022d2e0                ARCONTROLLER_DICTIONARY_KEY_JUMPINGSUMO_ROADPLANSTATE_SCRIPTMETADATALISTCHANGED_PRODUCT
                0x000000000022d2e8                ARCONTROLLER_DICTIONARY_KEY_JUMPINGSUMO_ROADPLANSTATE_SCRIPTMETADATALISTCHANGED_VERSION
                0x000000000022d2f0                ARCONTROLLER_DICTIONARY_KEY_JUMPINGSUMO_ROADPLANSTATE_SCRIPTMETADATALISTCHANGED_UUID
                0x000000000022d2f8                ARCONTROLLER_DICTIONARY_KEY_JUMPINGSUMO_AUDIOSETTINGSSTATE_THEMECHANGED_THEME
                0x000000000022d300                ARCONTROLLER_DICTIONARY_KEY_JUMPINGSUMO_AUDIOSETTINGSSTATE_MASTERVOLUMECHANGED_VOLUME
                0x000000000022d308                ARCONTROLLER_DICTIONARY_KEY_JUMPINGSUMO_NETWORKSTATE_LINKQUALITYCHANGED_QUALITY
                0x000000000022d310                ARCONTROLLER_DICTIONARY_KEY_JUMPINGSUMO_NETWORKSTATE_WIFIAUTHCHANNELLISTCHANGED_IN_OR_OUT
                0x000000000022d318                ARCONTROLLER_DICTIONARY_KEY_JUMPINGSUMO_NETWORKSTATE_WIFIAUTHCHANNELLISTCHANGED_CHANNEL
                0x000000000022d320                ARCONTROLLER_DICTIONARY_KEY_JUMPINGSUMO_NETWORKSTATE_WIFIAUTHCHANNELLISTCHANGED_BAND
                0x000000000022d328                ARCONTROLLER_DICTIONARY_KEY_JUMPINGSUMO_NETWORKSTATE_WIFISCANLISTCHANGED_CHANNEL
                0x000000000022d330                ARCONTROLLER_DICTIONARY_KEY_JUMPINGSUMO_NETWORKSTATE_WIFISCANLISTCHANGED_BAND
                0x000000000022d338                ARCONTROLLER_DICTIONARY_KEY_JUMPINGSUMO_NETWORKSTATE_WIFISCANLISTCHANGED_RSSI
                0x000000000022d340                ARCONTROLLER_DICTIONARY_KEY_JUMPINGSUMO_NETWORKSTATE_WIFISCANLISTCHANGED_SSID
                0x000000000022d348                ARCONTROLLER_DICTIONARY_KEY_JUMPINGSUMO_NETWORKSETTINGSSTATE_WIFISELECTIONCHANGED_CHANNEL
                0x000000000022d350                ARCONTROLLER_DICTIONARY_KEY_JUMPINGSUMO_NETWORKSETTINGSSTATE_WIFISELECTIONCHANGED_BAND
                0x000000000022d358                ARCONTROLLER_DICTIONARY_KEY_JUMPINGSUMO_NETWORKSETTINGSSTATE_WIFISELECTIONCHANGED_TYPE
                0x000000000022d360                ARCONTROLLER_DICTIONARY_KEY_JUMPINGSUMO_MEDIARECORDEVENT_VIDEOEVENTCHANGED_ERROR
                0x000000000022d368                ARCONTROLLER_DICTIONARY_KEY_JUMPINGSUMO_MEDIARECORDEVENT_VIDEOEVENTCHANGED_EVENT
                0x000000000022d370                ARCONTROLLER_DICTIONARY_KEY_JUMPINGSUMO_MEDIARECORDEVENT_PICTUREEVENTCHANGED_ERROR
                0x000000000022d378                ARCONTROLLER_DICTIONARY_KEY_JUMPINGSUMO_MEDIARECORDEVENT_PICTUREEVENTCHANGED_EVENT
                0x000000000022d380                ARCONTROLLER_DICTIONARY_KEY_JUMPINGSUMO_MEDIARECORDSTATE_VIDEOSTATECHANGEDV2_ERROR
                0x000000000022d388                ARCONTROLLER_DICTIONARY_KEY_JUMPINGSUMO_MEDIARECORDSTATE_VIDEOSTATECHANGEDV2_STATE
                0x000000000022d390                ARCONTROLLER_DICTIONARY_KEY_JUMPINGSUMO_MEDIARECORDSTATE_PICTURESTATECHANGEDV2_ERROR
                0x000000000022d398                ARCONTROLLER_DICTIONARY_KEY_JUMPINGSUMO_MEDIARECORDSTATE_PICTURESTATECHANGEDV2_STATE
                0x000000000022d3a0                ARCONTROLLER_DICTIONARY_KEY_JUMPINGSUMO_MEDIARECORDSTATE_VIDEOSTATECHANGED_MASS_STORAGE_ID
                0x000000000022d3a8                ARCONTROLLER_DICTIONARY_KEY_JUMPINGSUMO_MEDIARECORDSTATE_VIDEOSTATECHANGED_STATE
                0x000000000022d3b0                ARCONTROLLER_DICTIONARY_KEY_JUMPINGSUMO_MEDIARECORDSTATE_PICTURESTATECHANGED_MASS_STORAGE_ID
                0x000000000022d3b8                ARCONTROLLER_DICTIONARY_KEY_JUMPINGSUMO_MEDIARECORDSTATE_PICTURESTATECHANGED_STATE
                0x000000000022d3c0                ARCONTROLLER_DICTIONARY_KEY_JUMPINGSUMO_SETTINGSSTATE_PRODUCTGPSVERSIONCHANGED_HARDWARE
                0x000000000022d3c8                ARCONTROLLER_DICTIONARY_KEY_JUMPINGSUMO_SETTINGSSTATE_PRODUCTGPSVERSIONCHANGED_SOFTWARE
                0x000000000022d3d0                ARCONTROLLER_DICTIONARY_KEY_JUMPINGSUMO_ANIMATIONSSTATE_JUMPMOTORPROBLEMCHANGED_ERROR
                0x000000000022d3d8                ARCONTROLLER_DICTIONARY_KEY_JUMPINGSUMO_ANIMATIONSSTATE_JUMPTYPECHANGED_STATE
                0x000000000022d3e0                ARCONTROLLER_DICTIONARY_KEY_JUMPINGSUMO_ANIMATIONSSTATE_JUMPLOADCHANGED_STATE
                0x000000000022d3e8                ARCONTROLLER_DICTIONARY_KEY_JUMPINGSUMO_PILOTINGSTATE_SPEEDCHANGED_REALSPEED
                0x000000000022d3f0                ARCONTROLLER_DICTIONARY_KEY_JUMPINGSUMO_PILOTINGSTATE_SPEEDCHANGED_SPEED
                0x000000000022d3f8                ARCONTROLLER_DICTIONARY_KEY_JUMPINGSUMO_PILOTINGSTATE_ALERTSTATECHANGED_STATE
                0x000000000022d400                ARCONTROLLER_DICTIONARY_KEY_JUMPINGSUMO_PILOTINGSTATE_POSTURECHANGED_STATE
                0x000000000022d408                ARCONTROLLER_DICTIONARY_KEY_FOLLOW_ME_TARGETIMAGEDETECTIONSTATE_STATE
                0x000000000022d410                ARCONTROLLER_DICTIONARY_KEY_FOLLOW_ME_TARGETFRAMINGPOSITIONCHANGED_VERTICAL
                0x000000000022d418                ARCONTROLLER_DICTIONARY_KEY_FOLLOW_ME_TARGETFRAMINGPOSITIONCHANGED_HORIZONTAL
                0x000000000022d420                ARCONTROLLER_DICTIONARY_KEY_FOLLOW_ME_DOLLYSLIDEANIMCONFIG_HORIZONTAL_DISTANCE
                0x000000000022d428                ARCONTROLLER_DICTIONARY_KEY_FOLLOW_ME_DOLLYSLIDEANIMCONFIG_ANGLE
                0x000000000022d430                ARCONTROLLER_DICTIONARY_KEY_FOLLOW_ME_DOLLYSLIDEANIMCONFIG_SPEED
                0x000000000022d438                ARCONTROLLER_DICTIONARY_KEY_FOLLOW_ME_DOLLYSLIDEANIMCONFIG_USE_DEFAULT
                0x000000000022d440                ARCONTROLLER_DICTIONARY_KEY_FOLLOW_ME_CANDLEANIMCONFIG_VERTICAL_DISTANCE
                0x000000000022d448                ARCONTROLLER_DICTIONARY_KEY_FOLLOW_ME_CANDLEANIMCONFIG_SPEED
                0x000000000022d450                ARCONTROLLER_DICTIONARY_KEY_FOLLOW_ME_CANDLEANIMCONFIG_USE_DEFAULT
                0x000000000022d458                ARCONTROLLER_DICTIONARY_KEY_FOLLOW_ME_BOOMERANGANIMCONFIG_DISTANCE
                0x000000000022d460                ARCONTROLLER_DICTIONARY_KEY_FOLLOW_ME_BOOMERANGANIMCONFIG_SPEED
                0x000000000022d468                ARCONTROLLER_DICTIONARY_KEY_FOLLOW_ME_BOOMERANGANIMCONFIG_USE_DEFAULT
                0x000000000022d470                ARCONTROLLER_DICTIONARY_KEY_FOLLOW_ME_SWINGANIMCONFIG_VERTICAL_DISTANCE
                0x000000000022d478                ARCONTROLLER_DICTIONARY_KEY_FOLLOW_ME_SWINGANIMCONFIG_SPEED
                0x000000000022d480                ARCONTROLLER_DICTIONARY_KEY_FOLLOW_ME_SWINGANIMCONFIG_USE_DEFAULT
                0x000000000022d488                ARCONTROLLER_DICTIONARY_KEY_FOLLOW_ME_HELICOIDANIMCONFIG_VERTICAL_DISTANCE
                0x000000000022d490                ARCONTROLLER_DICTIONARY_KEY_FOLLOW_ME_HELICOIDANIMCONFIG_REVOLUTION_NB
                0x000000000022d498                ARCONTROLLER_DICTIONARY_KEY_FOLLOW_ME_HELICOIDANIMCONFIG_SPEED
                0x000000000022d4a0                ARCONTROLLER_DICTIONARY_KEY_FOLLOW_ME_HELICOIDANIMCONFIG_USE_DEFAULT
                0x000000000022d4a8                ARCONTROLLER_DICTIONARY_KEY_FOLLOW_ME_TARGETTRAJECTORY_DOWN_SPEED
                0x000000000022d4b0                ARCONTROLLER_DICTIONARY_KEY_FOLLOW_ME_TARGETTRAJECTORY_EAST_SPEED
                0x000000000022d4b8                ARCONTROLLER_DICTIONARY_KEY_FOLLOW_ME_TARGETTRAJECTORY_NORTH_SPEED
                0x000000000022d4c0                ARCONTROLLER_DICTIONARY_KEY_FOLLOW_ME_TARGETTRAJECTORY_ALTITUDE
                0x000000000022d4c8                ARCONTROLLER_DICTIONARY_KEY_FOLLOW_ME_TARGETTRAJECTORY_LONGITUDE
                0x000000000022d4d0                ARCONTROLLER_DICTIONARY_KEY_FOLLOW_ME_TARGETTRAJECTORY_LATITUDE
                0x000000000022d4d8                ARCONTROLLER_DICTIONARY_KEY_FOLLOW_ME_RELATIVECONFIG_AZIMUTH
                0x000000000022d4e0                ARCONTROLLER_DICTIONARY_KEY_FOLLOW_ME_RELATIVECONFIG_ELEVATION
                0x000000000022d4e8                ARCONTROLLER_DICTIONARY_KEY_FOLLOW_ME_RELATIVECONFIG_DISTANCE
                0x000000000022d4f0                ARCONTROLLER_DICTIONARY_KEY_FOLLOW_ME_RELATIVECONFIG_USE_DEFAULT
                0x000000000022d4f8                ARCONTROLLER_DICTIONARY_KEY_FOLLOW_ME_GEOGRAPHICCONFIG_AZIMUTH
                0x000000000022d500                ARCONTROLLER_DICTIONARY_KEY_FOLLOW_ME_GEOGRAPHICCONFIG_ELEVATION
                0x000000000022d508                ARCONTROLLER_DICTIONARY_KEY_FOLLOW_ME_GEOGRAPHICCONFIG_DISTANCE
                0x000000000022d510                ARCONTROLLER_DICTIONARY_KEY_FOLLOW_ME_GEOGRAPHICCONFIG_USE_DEFAULT
                0x000000000022d518                ARCONTROLLER_DICTIONARY_KEY_FOLLOW_ME_MODEINFO_IMPROVEMENTS
                0x000000000022d520                ARCONTROLLER_DICTIONARY_KEY_FOLLOW_ME_MODEINFO_MISSING_REQUIREMENTS
                0x000000000022d528                ARCONTROLLER_DICTIONARY_KEY_FOLLOW_ME_MODEINFO_MODE
                0x000000000022d530                ARCONTROLLER_DICTIONARY_KEY_FOLLOW_ME_STATE_ANIMATION_AVAILABLE
                0x000000000022d538                ARCONTROLLER_DICTIONARY_KEY_FOLLOW_ME_STATE_ANIMATION
                0x000000000022d540                ARCONTROLLER_DICTIONARY_KEY_FOLLOW_ME_STATE_BEHAVIOR
                0x000000000022d548                ARCONTROLLER_DICTIONARY_KEY_FOLLOW_ME_STATE_MODE
                0x000000000022d550                ARCONTROLLER_DICTIONARY_KEY_DRONE_MANAGER_KNOWNDRONEITEM_HAS_SAVED_KEY
                0x000000000022d558                ARCONTROLLER_DICTIONARY_KEY_DRONE_MANAGER_KNOWNDRONEITEM_SECURITY
                0x000000000022d560                ARCONTROLLER_DICTIONARY_KEY_DRONE_MANAGER_KNOWNDRONEITEM_NAME
                0x000000000022d568                ARCONTROLLER_DICTIONARY_KEY_DRONE_MANAGER_KNOWNDRONEITEM_MODEL
                0x000000000022d570                ARCONTROLLER_DICTIONARY_KEY_DRONE_MANAGER_KNOWNDRONEITEM_SERIAL
                0x000000000022d578                ARCONTROLLER_DICTIONARY_KEY_DRONE_MANAGER_CONNECTIONREFUSED_NAME
                0x000000000022d580                ARCONTROLLER_DICTIONARY_KEY_DRONE_MANAGER_CONNECTIONREFUSED_MODEL
                0x000000000022d588                ARCONTROLLER_DICTIONARY_KEY_DRONE_MANAGER_CONNECTIONREFUSED_SERIAL
                0x000000000022d590                ARCONTROLLER_DICTIONARY_KEY_DRONE_MANAGER_AUTHENTICATIONFAILED_NAME
                0x000000000022d598                ARCONTROLLER_DICTIONARY_KEY_DRONE_MANAGER_AUTHENTICATIONFAILED_MODEL
                0x000000000022d5a0                ARCONTROLLER_DICTIONARY_KEY_DRONE_MANAGER_AUTHENTICATIONFAILED_SERIAL
                0x000000000022d5a8                ARCONTROLLER_DICTIONARY_KEY_DRONE_MANAGER_CONNECTIONSTATE_NAME
                0x000000000022d5b0                ARCONTROLLER_DICTIONARY_KEY_DRONE_MANAGER_CONNECTIONSTATE_MODEL
                0x000000000022d5b8                ARCONTROLLER_DICTIONARY_KEY_DRONE_MANAGER_CONNECTIONSTATE_SERIAL
                0x000000000022d5c0                ARCONTROLLER_DICTIONARY_KEY_DRONE_MANAGER_CONNECTIONSTATE_STATE
                0x000000000022d5c8                ARCONTROLLER_DICTIONARY_KEY_DRONE_MANAGER_DRONELISTITEM_RSSI
                0x000000000022d5d0                ARCONTROLLER_DICTIONARY_KEY_DRONE_MANAGER_DRONELISTITEM_HAS_SAVED_KEY
                0x000000000022d5d8                ARCONTROLLER_DICTIONARY_KEY_DRONE_MANAGER_DRONELISTITEM_SECURITY
                0x000000000022d5e0                ARCONTROLLER_DICTIONARY_KEY_DRONE_MANAGER_DRONELISTITEM_VISIBLE
                0x000000000022d5e8                ARCONTROLLER_DICTIONARY_KEY_DRONE_MANAGER_DRONELISTITEM_ACTIVE
                0x000000000022d5f0                ARCONTROLLER_DICTIONARY_KEY_DRONE_MANAGER_DRONELISTITEM_CONNECTION_ORDER
                0x000000000022d5f8                ARCONTROLLER_DICTIONARY_KEY_DRONE_MANAGER_DRONELISTITEM_NAME
                0x000000000022d600                ARCONTROLLER_DICTIONARY_KEY_DRONE_MANAGER_DRONELISTITEM_MODEL
                0x000000000022d608                ARCONTROLLER_DICTIONARY_KEY_DRONE_MANAGER_DRONELISTITEM_SERIAL
                0x000000000022d610                ARCONTROLLER_DICTIONARY_KEY_DEBUG_SETTINGSLIST_VALUE
                0x000000000022d618                ARCONTROLLER_DICTIONARY_KEY_DEBUG_SETTINGSLIST_ID
                0x000000000022d620                ARCONTROLLER_DICTIONARY_KEY_DEBUG_SETTINGSINFO_VALUE
                0x000000000022d628                ARCONTROLLER_DICTIONARY_KEY_DEBUG_SETTINGSINFO_RANGE_STEP
                0x000000000022d630                ARCONTROLLER_DICTIONARY_KEY_DEBUG_SETTINGSINFO_RANGE_MAX
                0x000000000022d638                ARCONTROLLER_DICTIONARY_KEY_DEBUG_SETTINGSINFO_RANGE_MIN
                0x000000000022d640                ARCONTROLLER_DICTIONARY_KEY_DEBUG_SETTINGSINFO_MODE
                0x000000000022d648                ARCONTROLLER_DICTIONARY_KEY_DEBUG_SETTINGSINFO_TYPE
                0x000000000022d650                ARCONTROLLER_DICTIONARY_KEY_DEBUG_SETTINGSINFO_LABEL
                0x000000000022d658                ARCONTROLLER_DICTIONARY_KEY_DEBUG_SETTINGSINFO_ID
                0x000000000022d660                ARCONTROLLER_DICTIONARY_KEY_COMMON_RUNSTATE_RUNIDCHANGED_RUNID
                0x000000000022d668                ARCONTROLLER_DICTIONARY_KEY_COMMON_CHARGERSTATE_CHARGINGINFO_FULLCHARGINGTIME
                0x000000000022d670                ARCONTROLLER_DICTIONARY_KEY_COMMON_CHARGERSTATE_CHARGINGINFO_INTENSITY
                0x000000000022d678                ARCONTROLLER_DICTIONARY_KEY_COMMON_CHARGERSTATE_CHARGINGINFO_RATE
                0x000000000022d680                ARCONTROLLER_DICTIONARY_KEY_COMMON_CHARGERSTATE_CHARGINGINFO_PHASE
                0x000000000022d688                ARCONTROLLER_DICTIONARY_KEY_COMMON_CHARGERSTATE_LASTCHARGERATECHANGED_RATE
                0x000000000022d690                ARCONTROLLER_DICTIONARY_KEY_COMMON_CHARGERSTATE_CURRENTCHARGESTATECHANGED_PHASE
                0x000000000022d698                ARCONTROLLER_DICTIONARY_KEY_COMMON_CHARGERSTATE_CURRENTCHARGESTATECHANGED_STATUS
                0x000000000022d6a0                ARCONTROLLER_DICTIONARY_KEY_COMMON_CHARGERSTATE_MAXCHARGERATECHANGED_RATE
                0x000000000022d6a8                ARCONTROLLER_DICTIONARY_KEY_COMMON_ACCESSORYSTATE_ACCESSORYCONFIGMODIFICATIONENABLED_ENABLED
                0x000000000022d6b0                ARCONTROLLER_DICTIONARY_KEY_COMMON_ACCESSORYSTATE_ACCESSORYCONFIGCHANGED_ERROR
                0x000000000022d6b8                ARCONTROLLER_DICTIONARY_KEY_COMMON_ACCESSORYSTATE_ACCESSORYCONFIGCHANGED_NEWACCESSORY
                0x000000000022d6c0                ARCONTROLLER_DICTIONARY_KEY_COMMON_ACCESSORYSTATE_SUPPORTEDACCESSORIESLISTCHANGED_ACCESSORY
                0x000000000022d6c8                ARCONTROLLER_DICTIONARY_KEY_COMMON_ANIMATIONSSTATE_LIST_ERROR
                0x000000000022d6d0                ARCONTROLLER_DICTIONARY_KEY_COMMON_ANIMATIONSSTATE_LIST_STATE
                0x000000000022d6d8                ARCONTROLLER_DICTIONARY_KEY_COMMON_ANIMATIONSSTATE_LIST_ANIM
                0x000000000022d6e0                ARCONTROLLER_DICTIONARY_KEY_COMMON_HEADLIGHTSSTATE_INTENSITYCHANGED_RIGHT
                0x000000000022d6e8                ARCONTROLLER_DICTIONARY_KEY_COMMON_HEADLIGHTSSTATE_INTENSITYCHANGED_LEFT
                0x000000000022d6f0                ARCONTROLLER_DICTIONARY_KEY_COMMON_AUDIOSTATE_AUDIOSTREAMINGRUNNING_RUNNING
                0x000000000022d6f8                ARCONTROLLER_DICTIONARY_KEY_COMMON_ARLIBSVERSIONSSTATE_DEVICELIBARCOMMANDSVERSION_VERSION
                0x000000000022d700                ARCONTROLLER_DICTIONARY_KEY_COMMON_ARLIBSVERSIONSSTATE_SKYCONTROLLERLIBARCOMMANDSVERSION_VERSION
                0x000000000022d708                ARCONTROLLER_DICTIONARY_KEY_COMMON_ARLIBSVERSIONSSTATE_CONTROLLERLIBARCOMMANDSVERSION_VERSION
                0x000000000022d710                ARCONTROLLER_DICTIONARY_KEY_COMMON_FLIGHTPLANSTATE_LOCKSTATECHANGED_LOCKSTATE
                0x000000000022d718                ARCONTROLLER_DICTIONARY_KEY_COMMON_FLIGHTPLANSTATE_COMPONENTSTATELISTCHANGED_STATE
                0x000000000022d720                ARCONTROLLER_DICTIONARY_KEY_COMMON_FLIGHTPLANSTATE_COMPONENTSTATELISTCHANGED_COMPONENT
                0x000000000022d728                ARCONTROLLER_DICTIONARY_KEY_COMMON_FLIGHTPLANSTATE_AVAILABILITYSTATECHANGED_AVAILABILITYSTATE
                0x000000000022d730                ARCONTROLLER_DICTIONARY_KEY_COMMON_CAMERASETTINGSSTATE_CAMERASETTINGSCHANGED_TILTMIN
                0x000000000022d738                ARCONTROLLER_DICTIONARY_KEY_COMMON_CAMERASETTINGSSTATE_CAMERASETTINGSCHANGED_TILTMAX
                0x000000000022d740                ARCONTROLLER_DICTIONARY_KEY_COMMON_CAMERASETTINGSSTATE_CAMERASETTINGSCHANGED_PANMIN
                0x000000000022d748                ARCONTROLLER_DICTIONARY_KEY_COMMON_CAMERASETTINGSSTATE_CAMERASETTINGSCHANGED_PANMAX
                0x000000000022d750                ARCONTROLLER_DICTIONARY_KEY_COMMON_CAMERASETTINGSSTATE_CAMERASETTINGSCHANGED_FOV
                0x000000000022d758                ARCONTROLLER_DICTIONARY_KEY_COMMON_CALIBRATIONSTATE_PITOTCALIBRATIONSTATECHANGED_LASTERROR
                0x000000000022d760                ARCONTROLLER_DICTIONARY_KEY_COMMON_CALIBRATIONSTATE_PITOTCALIBRATIONSTATECHANGED_STATE
                0x000000000022d768                ARCONTROLLER_DICTIONARY_KEY_COMMON_CALIBRATIONSTATE_MAGNETOCALIBRATIONSTARTEDCHANGED_STARTED
                0x000000000022d770                ARCONTROLLER_DICTIONARY_KEY_COMMON_CALIBRATIONSTATE_MAGNETOCALIBRATIONAXISTOCALIBRATECHANGED_AXIS
                0x000000000022d778                ARCONTROLLER_DICTIONARY_KEY_COMMON_CALIBRATIONSTATE_MAGNETOCALIBRATIONREQUIREDSTATE_REQUIRED
                0x000000000022d780                ARCONTROLLER_DICTIONARY_KEY_COMMON_CALIBRATIONSTATE_MAGNETOCALIBRATIONSTATECHANGED_CALIBRATIONFAILED
                0x000000000022d788                ARCONTROLLER_DICTIONARY_KEY_COMMON_CALIBRATIONSTATE_MAGNETOCALIBRATIONSTATECHANGED_ZAXISCALIBRATION
                0x000000000022d790                ARCONTROLLER_DICTIONARY_KEY_COMMON_CALIBRATIONSTATE_MAGNETOCALIBRATIONSTATECHANGED_YAXISCALIBRATION
                0x000000000022d798                ARCONTROLLER_DICTIONARY_KEY_COMMON_CALIBRATIONSTATE_MAGNETOCALIBRATIONSTATECHANGED_XAXISCALIBRATION
                0x000000000022d7a0                ARCONTROLLER_DICTIONARY_KEY_COMMON_FLIGHTPLANSETTINGSSTATE_RETURNHOMEONDISCONNECTCHANGED_ISREADONLY
                0x000000000022d7a8                ARCONTROLLER_DICTIONARY_KEY_COMMON_FLIGHTPLANSETTINGSSTATE_RETURNHOMEONDISCONNECTCHANGED_STATE
                0x000000000022d7b0                ARCONTROLLER_DICTIONARY_KEY_COMMON_MAVLINKSTATE_MISSIONITEMEXECUTED_IDX
                0x000000000022d7b8                ARCONTROLLER_DICTIONARY_KEY_COMMON_MAVLINKSTATE_MAVLINKPLAYERRORSTATECHANGED_ERROR
                0x000000000022d7c0                ARCONTROLLER_DICTIONARY_KEY_COMMON_MAVLINKSTATE_MAVLINKFILEPLAYINGSTATECHANGED_TYPE
                0x000000000022d7c8                ARCONTROLLER_DICTIONARY_KEY_COMMON_MAVLINKSTATE_MAVLINKFILEPLAYINGSTATECHANGED_FILEPATH
                0x000000000022d7d0                ARCONTROLLER_DICTIONARY_KEY_COMMON_MAVLINKSTATE_MAVLINKFILEPLAYINGSTATECHANGED_STATE
                0x000000000022d7d8                ARCONTROLLER_DICTIONARY_KEY_COMMON_WIFISETTINGSSTATE_OUTDOORSETTINGSCHANGED_OUTDOOR
                0x000000000022d7e0                ARCONTROLLER_DICTIONARY_KEY_COMMON_OVERHEATSTATE_OVERHEATREGULATIONCHANGED_REGULATIONTYPE
                0x000000000022d7e8                ARCONTROLLER_DICTIONARY_KEY_COMMON_COMMONSTATE_VIDEORECORDINGTIMESTAMP_STOPTIMESTAMP
                0x000000000022d7f0                ARCONTROLLER_DICTIONARY_KEY_COMMON_COMMONSTATE_VIDEORECORDINGTIMESTAMP_STARTTIMESTAMP
                0x000000000022d7f8                ARCONTROLLER_DICTIONARY_KEY_COMMON_COMMONSTATE_MASSSTORAGECONTENTFORCURRENTRUN_NBRAWPHOTOS
                0x000000000022d800                ARCONTROLLER_DICTIONARY_KEY_COMMON_COMMONSTATE_MASSSTORAGECONTENTFORCURRENTRUN_NBVIDEOS
                0x000000000022d808                ARCONTROLLER_DICTIONARY_KEY_COMMON_COMMONSTATE_MASSSTORAGECONTENTFORCURRENTRUN_NBPHOTOS
                0x000000000022d810                ARCONTROLLER_DICTIONARY_KEY_COMMON_COMMONSTATE_MASSSTORAGECONTENTFORCURRENTRUN_MASS_STORAGE_ID
                0x000000000022d818                ARCONTROLLER_DICTIONARY_KEY_COMMON_COMMONSTATE_MASSSTORAGECONTENT_NBRAWPHOTOS
                0x000000000022d820                ARCONTROLLER_DICTIONARY_KEY_COMMON_COMMONSTATE_MASSSTORAGECONTENT_NBCRASHLOGS
                0x000000000022d828                ARCONTROLLER_DICTIONARY_KEY_COMMON_COMMONSTATE_MASSSTORAGECONTENT_NBPUDS
                0x000000000022d830                ARCONTROLLER_DICTIONARY_KEY_COMMON_COMMONSTATE_MASSSTORAGECONTENT_NBVIDEOS
                0x000000000022d838                ARCONTROLLER_DICTIONARY_KEY_COMMON_COMMONSTATE_MASSSTORAGECONTENT_NBPHOTOS
                0x000000000022d840                ARCONTROLLER_DICTIONARY_KEY_COMMON_COMMONSTATE_MASSSTORAGECONTENT_MASS_STORAGE_ID
                0x000000000022d848                ARCONTROLLER_DICTIONARY_KEY_COMMON_COMMONSTATE_DEPRECATEDMASSSTORAGECONTENTCHANGED_NBCRASHLOGS
                0x000000000022d850                ARCONTROLLER_DICTIONARY_KEY_COMMON_COMMONSTATE_DEPRECATEDMASSSTORAGECONTENTCHANGED_NBPUDS
                0x000000000022d858                ARCONTROLLER_DICTIONARY_KEY_COMMON_COMMONSTATE_DEPRECATEDMASSSTORAGECONTENTCHANGED_NBVIDEOS
                0x000000000022d860                ARCONTROLLER_DICTIONARY_KEY_COMMON_COMMONSTATE_DEPRECATEDMASSSTORAGECONTENTCHANGED_NBPHOTOS
                0x000000000022d868                ARCONTROLLER_DICTIONARY_KEY_COMMON_COMMONSTATE_DEPRECATEDMASSSTORAGECONTENTCHANGED_MASS_STORAGE_ID
                0x000000000022d870                ARCONTROLLER_DICTIONARY_KEY_COMMON_COMMONSTATE_COUNTRYLISTKNOWN_COUNTRYCODES
                0x000000000022d878                ARCONTROLLER_DICTIONARY_KEY_COMMON_COMMONSTATE_COUNTRYLISTKNOWN_LISTFLAGS
                0x000000000022d880                ARCONTROLLER_DICTIONARY_KEY_COMMON_COMMONSTATE_PRODUCTMODEL_MODEL
                0x000000000022d888                ARCONTROLLER_DICTIONARY_KEY_COMMON_COMMONSTATE_SENSORSSTATESLISTCHANGED_SENSORSTATE
                0x000000000022d890                ARCONTROLLER_DICTIONARY_KEY_COMMON_COMMONSTATE_SENSORSSTATESLISTCHANGED_SENSORNAME
                0x000000000022d898                ARCONTROLLER_DICTIONARY_KEY_COMMON_COMMONSTATE_WIFISIGNALCHANGED_RSSI
                0x000000000022d8a0                ARCONTROLLER_DICTIONARY_KEY_COMMON_COMMONSTATE_MASSSTORAGEINFOREMAININGLISTCHANGED_PHOTO_REMAINING
                0x000000000022d8a8                ARCONTROLLER_DICTIONARY_KEY_COMMON_COMMONSTATE_MASSSTORAGEINFOREMAININGLISTCHANGED_REC_TIME
                0x000000000022d8b0                ARCONTROLLER_DICTIONARY_KEY_COMMON_COMMONSTATE_MASSSTORAGEINFOREMAININGLISTCHANGED_FREE_SPACE
                0x000000000022d8b8                ARCONTROLLER_DICTIONARY_KEY_COMMON_COMMONSTATE_CURRENTTIMECHANGED_TIME
                0x000000000022d8c0                ARCONTROLLER_DICTIONARY_KEY_COMMON_COMMONSTATE_CURRENTDATECHANGED_DATE
                0x000000000022d8c8                ARCONTROLLER_DICTIONARY_KEY_COMMON_COMMONSTATE_MASSSTORAGEINFOSTATELISTCHANGED_INTERNAL
                0x000000000022d8d0                ARCONTROLLER_DICTIONARY_KEY_COMMON_COMMONSTATE_MASSSTORAGEINFOSTATELISTCHANGED_FULL
                0x000000000022d8d8                ARCONTROLLER_DICTIONARY_KEY_COMMON_COMMONSTATE_MASSSTORAGEINFOSTATELISTCHANGED_PLUGGED
                0x000000000022d8e0                ARCONTROLLER_DICTIONARY_KEY_COMMON_COMMONSTATE_MASSSTORAGEINFOSTATELISTCHANGED_USED_SIZE
                0x000000000022d8e8                ARCONTROLLER_DICTIONARY_KEY_COMMON_COMMONSTATE_MASSSTORAGEINFOSTATELISTCHANGED_SIZE
                0x000000000022d8f0                ARCONTROLLER_DICTIONARY_KEY_COMMON_COMMONSTATE_MASSSTORAGEINFOSTATELISTCHANGED_MASS_STORAGE_ID
                0x000000000022d8f8                ARCONTROLLER_DICTIONARY_KEY_COMMON_COMMONSTATE_MASSSTORAGESTATELISTCHANGED_NAME
                0x000000000022d900                ARCONTROLLER_DICTIONARY_KEY_COMMON_COMMONSTATE_MASSSTORAGESTATELISTCHANGED_MASS_STORAGE_ID
                0x000000000022d908                ARCONTROLLER_DICTIONARY_KEY_COMMON_COMMONSTATE_BATTERYSTATECHANGED_PERCENT
                0x000000000022d910                ARCONTROLLER_DICTIONARY_KEY_COMMON_SETTINGSSTATE_AUTOCOUNTRYCHANGED_AUTOMATIC
                0x000000000022d918                ARCONTROLLER_DICTIONARY_KEY_COMMON_SETTINGSSTATE_COUNTRYCHANGED_CODE
                0x000000000022d920                ARCONTROLLER_DICTIONARY_KEY_COMMON_SETTINGSSTATE_PRODUCTSERIALLOWCHANGED_LOW
                0x000000000022d928                ARCONTROLLER_DICTIONARY_KEY_COMMON_SETTINGSSTATE_PRODUCTSERIALHIGHCHANGED_HIGH
                0x000000000022d930                ARCONTROLLER_DICTIONARY_KEY_COMMON_SETTINGSSTATE_PRODUCTVERSIONCHANGED_HARDWARE
                0x000000000022d938                ARCONTROLLER_DICTIONARY_KEY_COMMON_SETTINGSSTATE_PRODUCTVERSIONCHANGED_SOFTWARE
                0x000000000022d940                ARCONTROLLER_DICTIONARY_KEY_COMMON_SETTINGSSTATE_PRODUCTNAMECHANGED_NAME
                0x000000000022d948                ARCONTROLLER_DICTIONARY_KEY_COMMON_NETWORKEVENT_DISCONNECTION_CAUSE
                0x000000000022d950                ARCONTROLLER_DICTIONARY_KEY_ARDRONE3_SOUNDSTATE_ALERTSOUND_STATE
                0x000000000022d958                ARCONTROLLER_DICTIONARY_KEY_ARDRONE3_ACCESSORYSTATE_BATTERY_BATTERYLEVEL
                0x000000000022d960                ARCONTROLLER_DICTIONARY_KEY_ARDRONE3_ACCESSORYSTATE_BATTERY_ID
                0x000000000022d968                ARCONTROLLER_DICTIONARY_KEY_ARDRONE3_ACCESSORYSTATE_CONNECTEDACCESSORIES_SWVERSION
                0x000000000022d970                ARCONTROLLER_DICTIONARY_KEY_ARDRONE3_ACCESSORYSTATE_CONNECTEDACCESSORIES_UID
                0x000000000022d978                ARCONTROLLER_DICTIONARY_KEY_ARDRONE3_ACCESSORYSTATE_CONNECTEDACCESSORIES_ACCESSORY_TYPE
                0x000000000022d980                ARCONTROLLER_DICTIONARY_KEY_ARDRONE3_ACCESSORYSTATE_CONNECTEDACCESSORIES_ID
                0x000000000022d988                ARCONTROLLER_DICTIONARY_KEY_ARDRONE3_PROSTATE_FEATURES_FEATURES
                0x000000000022d990                ARCONTROLLER_DICTIONARY_KEY_ARDRONE3_GPSSTATE_HOMETYPECHOSENCHANGED_TYPE
                0x000000000022d998                ARCONTROLLER_DICTIONARY_KEY_ARDRONE3_GPSSTATE_HOMETYPEAVAILABILITYCHANGED_AVAILABLE
                0x000000000022d9a0                ARCONTROLLER_DICTIONARY_KEY_ARDRONE3_GPSSTATE_HOMETYPEAVAILABILITYCHANGED_TYPE
                0x000000000022d9a8                ARCONTROLLER_DICTIONARY_KEY_ARDRONE3_GPSSTATE_NUMBEROFSATELLITECHANGED_NUMBEROFSATELLITE
                0x000000000022d9b0                ARCONTROLLER_DICTIONARY_KEY_ARDRONE3_ANTIFLICKERINGSTATE_MODECHANGED_MODE
                0x000000000022d9b8                ARCONTROLLER_DICTIONARY_KEY_ARDRONE3_ANTIFLICKERINGSTATE_ELECTRICFREQUENCYCHANGED_FREQUENCY
                0x000000000022d9c0                ARCONTROLLER_DICTIONARY_KEY_ARDRONE3_CAMERASTATE_VELOCITYRANGE_MAX_PAN
                0x000000000022d9c8                ARCONTROLLER_DICTIONARY_KEY_ARDRONE3_CAMERASTATE_VELOCITYRANGE_MAX_TILT
                0x000000000022d9d0                ARCONTROLLER_DICTIONARY_KEY_ARDRONE3_CAMERASTATE_DEFAULTCAMERAORIENTATIONV2_PAN
                0x000000000022d9d8                ARCONTROLLER_DICTIONARY_KEY_ARDRONE3_CAMERASTATE_DEFAULTCAMERAORIENTATIONV2_TILT
                0x000000000022d9e0                ARCONTROLLER_DICTIONARY_KEY_ARDRONE3_CAMERASTATE_ORIENTATIONV2_PAN
                0x000000000022d9e8                ARCONTROLLER_DICTIONARY_KEY_ARDRONE3_CAMERASTATE_ORIENTATIONV2_TILT
                0x000000000022d9f0                ARCONTROLLER_DICTIONARY_KEY_ARDRONE3_CAMERASTATE_DEFAULTCAMERAORIENTATION_PAN
                0x000000000022d9f8                ARCONTROLLER_DICTIONARY_KEY_ARDRONE3_CAMERASTATE_DEFAULTCAMERAORIENTATION_TILT
                0x000000000022da00                ARCONTROLLER_DICTIONARY_KEY_ARDRONE3_CAMERASTATE_ORIENTATION_PAN
                0x000000000022da08                ARCONTROLLER_DICTIONARY_KEY_ARDRONE3_CAMERASTATE_ORIENTATION_TILT
                0x000000000022da10                ARCONTROLLER_DICTIONARY_KEY_ARDRONE3_GPSSETTINGSSTATE_GEOFENCECENTERCHANGED_LONGITUDE
                0x000000000022da18                ARCONTROLLER_DICTIONARY_KEY_ARDRONE3_GPSSETTINGSSTATE_GEOFENCECENTERCHANGED_LATITUDE
                0x000000000022da20                ARCONTROLLER_DICTIONARY_KEY_ARDRONE3_GPSSETTINGSSTATE_RETURNHOMEDELAYCHANGED_DELAY
                0x000000000022da28                ARCONTROLLER_DICTIONARY_KEY_ARDRONE3_GPSSETTINGSSTATE_HOMETYPECHANGED_TYPE
                0x000000000022da30                ARCONTROLLER_DICTIONARY_KEY_ARDRONE3_GPSSETTINGSSTATE_GPSUPDATESTATECHANGED_STATE
                0x000000000022da38                ARCONTROLLER_DICTIONARY_KEY_ARDRONE3_GPSSETTINGSSTATE_GPSFIXSTATECHANGED_FIXED
                0x000000000022da40                ARCONTROLLER_DICTIONARY_KEY_ARDRONE3_GPSSETTINGSSTATE_RESETHOMECHANGED_ALTITUDE
                0x000000000022da48                ARCONTROLLER_DICTIONARY_KEY_ARDRONE3_GPSSETTINGSSTATE_RESETHOMECHANGED_LONGITUDE
                0x000000000022da50                ARCONTROLLER_DICTIONARY_KEY_ARDRONE3_GPSSETTINGSSTATE_RESETHOMECHANGED_LATITUDE
                0x000000000022da58                ARCONTROLLER_DICTIONARY_KEY_ARDRONE3_GPSSETTINGSSTATE_HOMECHANGED_ALTITUDE
                0x000000000022da60                ARCONTROLLER_DICTIONARY_KEY_ARDRONE3_GPSSETTINGSSTATE_HOMECHANGED_LONGITUDE
                0x000000000022da68                ARCONTROLLER_DICTIONARY_KEY_ARDRONE3_GPSSETTINGSSTATE_HOMECHANGED_LATITUDE
                0x000000000022da70                ARCONTROLLER_DICTIONARY_KEY_ARDRONE3_MEDIASTREAMINGSTATE_VIDEOSTREAMMODECHANGED_MODE
                0x000000000022da78                ARCONTROLLER_DICTIONARY_KEY_ARDRONE3_MEDIASTREAMINGSTATE_VIDEOENABLECHANGED_ENABLED
                0x000000000022da80                ARCONTROLLER_DICTIONARY_KEY_ARDRONE3_PICTURESETTINGSSTATE_VIDEORESOLUTIONSCHANGED_TYPE
                0x000000000022da88                ARCONTROLLER_DICTIONARY_KEY_ARDRONE3_PICTURESETTINGSSTATE_VIDEOFRAMERATECHANGED_FRAMERATE
                0x000000000022da90                ARCONTROLLER_DICTIONARY_KEY_ARDRONE3_PICTURESETTINGSSTATE_VIDEORECORDINGMODECHANGED_MODE
                0x000000000022da98                ARCONTROLLER_DICTIONARY_KEY_ARDRONE3_PICTURESETTINGSSTATE_VIDEOSTABILIZATIONMODECHANGED_MODE
                0x000000000022daa0                ARCONTROLLER_DICTIONARY_KEY_ARDRONE3_PICTURESETTINGSSTATE_VIDEOAUTORECORDCHANGED_MASS_STORAGE_ID
                0x000000000022daa8                ARCONTROLLER_DICTIONARY_KEY_ARDRONE3_PICTURESETTINGSSTATE_VIDEOAUTORECORDCHANGED_ENABLED
                0x000000000022dab0                ARCONTROLLER_DICTIONARY_KEY_ARDRONE3_PICTURESETTINGSSTATE_TIMELAPSECHANGED_MAXINTERVAL
                0x000000000022dab8                ARCONTROLLER_DICTIONARY_KEY_ARDRONE3_PICTURESETTINGSSTATE_TIMELAPSECHANGED_MININTERVAL
                0x000000000022dac0                ARCONTROLLER_DICTIONARY_KEY_ARDRONE3_PICTURESETTINGSSTATE_TIMELAPSECHANGED_INTERVAL
                0x000000000022dac8                ARCONTROLLER_DICTIONARY_KEY_ARDRONE3_PICTURESETTINGSSTATE_TIMELAPSECHANGED_ENABLED
                0x000000000022dad0                ARCONTROLLER_DICTIONARY_KEY_ARDRONE3_PICTURESETTINGSSTATE_SATURATIONCHANGED_MAX
                0x000000000022dad8                ARCONTROLLER_DICTIONARY_KEY_ARDRONE3_PICTURESETTINGSSTATE_SATURATIONCHANGED_MIN
                0x000000000022dae0                ARCONTROLLER_DICTIONARY_KEY_ARDRONE3_PICTURESETTINGSSTATE_SATURATIONCHANGED_VALUE
                0x000000000022dae8                ARCONTROLLER_DICTIONARY_KEY_ARDRONE3_PICTURESETTINGSSTATE_EXPOSITIONCHANGED_MAX
                0x000000000022daf0                ARCONTROLLER_DICTIONARY_KEY_ARDRONE3_PICTURESETTINGSSTATE_EXPOSITIONCHANGED_MIN
                0x000000000022daf8                ARCONTROLLER_DICTIONARY_KEY_ARDRONE3_PICTURESETTINGSSTATE_EXPOSITIONCHANGED_VALUE
                0x000000000022db00                ARCONTROLLER_DICTIONARY_KEY_ARDRONE3_PICTURESETTINGSSTATE_AUTOWHITEBALANCECHANGED_TYPE
                0x000000000022db08                ARCONTROLLER_DICTIONARY_KEY_ARDRONE3_PICTURESETTINGSSTATE_PICTUREFORMATCHANGED_TYPE
                0x000000000022db10                ARCONTROLLER_DICTIONARY_KEY_ARDRONE3_SETTINGSSTATE_CPUID_ID
                0x000000000022db18                ARCONTROLLER_DICTIONARY_KEY_ARDRONE3_SETTINGSSTATE_P7ID_SERIALID
                0x000000000022db20                ARCONTROLLER_DICTIONARY_KEY_ARDRONE3_SETTINGSSTATE_MOTORERRORLASTERRORCHANGED_MOTORERROR
                0x000000000022db28                ARCONTROLLER_DICTIONARY_KEY_ARDRONE3_SETTINGSSTATE_MOTORFLIGHTSSTATUSCHANGED_TOTALFLIGHTDURATION
                0x000000000022db30                ARCONTROLLER_DICTIONARY_KEY_ARDRONE3_SETTINGSSTATE_MOTORFLIGHTSSTATUSCHANGED_LASTFLIGHTDURATION
                0x000000000022db38                ARCONTROLLER_DICTIONARY_KEY_ARDRONE3_SETTINGSSTATE_MOTORFLIGHTSSTATUSCHANGED_NBFLIGHTS
                0x000000000022db40                ARCONTROLLER_DICTIONARY_KEY_ARDRONE3_SETTINGSSTATE_MOTORSOFTWAREVERSIONCHANGED_VERSION
                0x000000000022db48                ARCONTROLLER_DICTIONARY_KEY_ARDRONE3_SETTINGSSTATE_MOTORERRORSTATECHANGED_MOTORERROR
                0x000000000022db50                ARCONTROLLER_DICTIONARY_KEY_ARDRONE3_SETTINGSSTATE_MOTORERRORSTATECHANGED_MOTORIDS
                0x000000000022db58                ARCONTROLLER_DICTIONARY_KEY_ARDRONE3_SETTINGSSTATE_PRODUCTGPSVERSIONCHANGED_HARDWARE
                0x000000000022db60                ARCONTROLLER_DICTIONARY_KEY_ARDRONE3_SETTINGSSTATE_PRODUCTGPSVERSIONCHANGED_SOFTWARE
                0x000000000022db68                ARCONTROLLER_DICTIONARY_KEY_ARDRONE3_SETTINGSSTATE_PRODUCTMOTORVERSIONLISTCHANGED_HARDWARE
                0x000000000022db70                ARCONTROLLER_DICTIONARY_KEY_ARDRONE3_SETTINGSSTATE_PRODUCTMOTORVERSIONLISTCHANGED_SOFTWARE
                0x000000000022db78                ARCONTROLLER_DICTIONARY_KEY_ARDRONE3_SETTINGSSTATE_PRODUCTMOTORVERSIONLISTCHANGED_TYPE
                0x000000000022db80                ARCONTROLLER_DICTIONARY_KEY_ARDRONE3_SETTINGSSTATE_PRODUCTMOTORVERSIONLISTCHANGED_MOTOR_NUMBER
                0x000000000022db88                ARCONTROLLER_DICTIONARY_KEY_ARDRONE3_NETWORKSETTINGSSTATE_WIFISECURITY_KEYTYPE
                0x000000000022db90                ARCONTROLLER_DICTIONARY_KEY_ARDRONE3_NETWORKSETTINGSSTATE_WIFISECURITY_KEY
                0x000000000022db98                ARCONTROLLER_DICTIONARY_KEY_ARDRONE3_NETWORKSETTINGSSTATE_WIFISECURITY_TYPE
                0x000000000022dba0                ARCONTROLLER_DICTIONARY_KEY_ARDRONE3_NETWORKSETTINGSSTATE_WIFISECURITYCHANGED_TYPE
                0x000000000022dba8                ARCONTROLLER_DICTIONARY_KEY_ARDRONE3_NETWORKSETTINGSSTATE_WIFISELECTIONCHANGED_CHANNEL
                0x000000000022dbb0                ARCONTROLLER_DICTIONARY_KEY_ARDRONE3_NETWORKSETTINGSSTATE_WIFISELECTIONCHANGED_BAND
                0x000000000022dbb8                ARCONTROLLER_DICTIONARY_KEY_ARDRONE3_NETWORKSETTINGSSTATE_WIFISELECTIONCHANGED_TYPE
                0x000000000022dbc0                ARCONTROLLER_DICTIONARY_KEY_ARDRONE3_SPEEDSETTINGSSTATE_MAXPITCHROLLROTATIONSPEEDCHANGED_MAX
                0x000000000022dbc8                ARCONTROLLER_DICTIONARY_KEY_ARDRONE3_SPEEDSETTINGSSTATE_MAXPITCHROLLROTATIONSPEEDCHANGED_MIN
                0x000000000022dbd0                ARCONTROLLER_DICTIONARY_KEY_ARDRONE3_SPEEDSETTINGSSTATE_MAXPITCHROLLROTATIONSPEEDCHANGED_CURRENT
                0x000000000022dbd8                ARCONTROLLER_DICTIONARY_KEY_ARDRONE3_SPEEDSETTINGSSTATE_OUTDOORCHANGED_OUTDOOR
                0x000000000022dbe0                ARCONTROLLER_DICTIONARY_KEY_ARDRONE3_SPEEDSETTINGSSTATE_HULLPROTECTIONCHANGED_PRESENT
                0x000000000022dbe8                ARCONTROLLER_DICTIONARY_KEY_ARDRONE3_SPEEDSETTINGSSTATE_MAXROTATIONSPEEDCHANGED_MAX
                0x000000000022dbf0                ARCONTROLLER_DICTIONARY_KEY_ARDRONE3_SPEEDSETTINGSSTATE_MAXROTATIONSPEEDCHANGED_MIN
                0x000000000022dbf8                ARCONTROLLER_DICTIONARY_KEY_ARDRONE3_SPEEDSETTINGSSTATE_MAXROTATIONSPEEDCHANGED_CURRENT
                0x000000000022dc00                ARCONTROLLER_DICTIONARY_KEY_ARDRONE3_SPEEDSETTINGSSTATE_MAXVERTICALSPEEDCHANGED_MAX
                0x000000000022dc08                ARCONTROLLER_DICTIONARY_KEY_ARDRONE3_SPEEDSETTINGSSTATE_MAXVERTICALSPEEDCHANGED_MIN
                0x000000000022dc10                ARCONTROLLER_DICTIONARY_KEY_ARDRONE3_SPEEDSETTINGSSTATE_MAXVERTICALSPEEDCHANGED_CURRENT
                0x000000000022dc18                ARCONTROLLER_DICTIONARY_KEY_ARDRONE3_PILOTINGSETTINGSSTATE_MOTIONDETECTION_ENABLED
                0x000000000022dc20                ARCONTROLLER_DICTIONARY_KEY_ARDRONE3_PILOTINGSETTINGSSTATE_PITCHMODECHANGED_VALUE
                0x000000000022dc28                ARCONTROLLER_DICTIONARY_KEY_ARDRONE3_PILOTINGSETTINGSSTATE_CIRCLINGALTITUDECHANGED_MAX
                0x000000000022dc30                ARCONTROLLER_DICTIONARY_KEY_ARDRONE3_PILOTINGSETTINGSSTATE_CIRCLINGALTITUDECHANGED_MIN
                0x000000000022dc38                ARCONTROLLER_DICTIONARY_KEY_ARDRONE3_PILOTINGSETTINGSSTATE_CIRCLINGALTITUDECHANGED_CURRENT
                0x000000000022dc40                ARCONTROLLER_DICTIONARY_KEY_ARDRONE3_PILOTINGSETTINGSSTATE_CIRCLINGRADIUSCHANGED_MAX
                0x000000000022dc48                ARCONTROLLER_DICTIONARY_KEY_ARDRONE3_PILOTINGSETTINGSSTATE_CIRCLINGRADIUSCHANGED_MIN
                0x000000000022dc50                ARCONTROLLER_DICTIONARY_KEY_ARDRONE3_PILOTINGSETTINGSSTATE_CIRCLINGRADIUSCHANGED_CURRENT
                0x000000000022dc58                ARCONTROLLER_DICTIONARY_KEY_ARDRONE3_PILOTINGSETTINGSSTATE_CIRCLINGDIRECTIONCHANGED_VALUE
                0x000000000022dc60                ARCONTROLLER_DICTIONARY_KEY_ARDRONE3_PILOTINGSETTINGSSTATE_MINALTITUDECHANGED_MAX
                0x000000000022dc68                ARCONTROLLER_DICTIONARY_KEY_ARDRONE3_PILOTINGSETTINGSSTATE_MINALTITUDECHANGED_MIN
                0x000000000022dc70                ARCONTROLLER_DICTIONARY_KEY_ARDRONE3_PILOTINGSETTINGSSTATE_MINALTITUDECHANGED_CURRENT
                0x000000000022dc78                ARCONTROLLER_DICTIONARY_KEY_ARDRONE3_PILOTINGSETTINGSSTATE_BANKEDTURNCHANGED_STATE
                0x000000000022dc80                ARCONTROLLER_DICTIONARY_KEY_ARDRONE3_PILOTINGSETTINGSSTATE_AUTONOMOUSFLIGHTMAXROTATIONSPEED_VALUE
                0x000000000022dc88                ARCONTROLLER_DICTIONARY_KEY_ARDRONE3_PILOTINGSETTINGSSTATE_AUTONOMOUSFLIGHTMAXVERTICALACCELERATION_VALUE
                0x000000000022dc90                ARCONTROLLER_DICTIONARY_KEY_ARDRONE3_PILOTINGSETTINGSSTATE_AUTONOMOUSFLIGHTMAXHORIZONTALACCELERATION_VALUE
                0x000000000022dc98                ARCONTROLLER_DICTIONARY_KEY_ARDRONE3_PILOTINGSETTINGSSTATE_AUTONOMOUSFLIGHTMAXVERTICALSPEED_VALUE
                0x000000000022dca0                ARCONTROLLER_DICTIONARY_KEY_ARDRONE3_PILOTINGSETTINGSSTATE_AUTONOMOUSFLIGHTMAXHORIZONTALSPEED_VALUE
                0x000000000022dca8                ARCONTROLLER_DICTIONARY_KEY_ARDRONE3_PILOTINGSETTINGSSTATE_NOFLYOVERMAXDISTANCECHANGED_SHOULDNOTFLYOVER
                0x000000000022dcb0                ARCONTROLLER_DICTIONARY_KEY_ARDRONE3_PILOTINGSETTINGSSTATE_MAXDISTANCECHANGED_MAX
                0x000000000022dcb8                ARCONTROLLER_DICTIONARY_KEY_ARDRONE3_PILOTINGSETTINGSSTATE_MAXDISTANCECHANGED_MIN
                0x000000000022dcc0                ARCONTROLLER_DICTIONARY_KEY_ARDRONE3_PILOTINGSETTINGSSTATE_MAXDISTANCECHANGED_CURRENT
                0x000000000022dcc8                ARCONTROLLER_DICTIONARY_KEY_ARDRONE3_PILOTINGSETTINGSSTATE_ABSOLUTCONTROLCHANGED_ON
                0x000000000022dcd0                ARCONTROLLER_DICTIONARY_KEY_ARDRONE3_PILOTINGSETTINGSSTATE_MAXTILTCHANGED_MAX
                0x000000000022dcd8                ARCONTROLLER_DICTIONARY_KEY_ARDRONE3_PILOTINGSETTINGSSTATE_MAXTILTCHANGED_MIN
                0x000000000022dce0                ARCONTROLLER_DICTIONARY_KEY_ARDRONE3_PILOTINGSETTINGSSTATE_MAXTILTCHANGED_CURRENT
                0x000000000022dce8                ARCONTROLLER_DICTIONARY_KEY_ARDRONE3_PILOTINGSETTINGSSTATE_MAXALTITUDECHANGED_MAX
                0x000000000022dcf0                ARCONTROLLER_DICTIONARY_KEY_ARDRONE3_PILOTINGSETTINGSSTATE_MAXALTITUDECHANGED_MIN
                0x000000000022dcf8                ARCONTROLLER_DICTIONARY_KEY_ARDRONE3_PILOTINGSETTINGSSTATE_MAXALTITUDECHANGED_CURRENT
                0x000000000022dd00                ARCONTROLLER_DICTIONARY_KEY_ARDRONE3_NETWORKSTATE_WIFIAUTHCHANNELLISTCHANGED_IN_OR_OUT
                0x000000000022dd08                ARCONTROLLER_DICTIONARY_KEY_ARDRONE3_NETWORKSTATE_WIFIAUTHCHANNELLISTCHANGED_CHANNEL
                0x000000000022dd10                ARCONTROLLER_DICTIONARY_KEY_ARDRONE3_NETWORKSTATE_WIFIAUTHCHANNELLISTCHANGED_BAND
                0x000000000022dd18                ARCONTROLLER_DICTIONARY_KEY_ARDRONE3_NETWORKSTATE_WIFISCANLISTCHANGED_CHANNEL
                0x000000000022dd20                ARCONTROLLER_DICTIONARY_KEY_ARDRONE3_NETWORKSTATE_WIFISCANLISTCHANGED_BAND
                0x000000000022dd28                ARCONTROLLER_DICTIONARY_KEY_ARDRONE3_NETWORKSTATE_WIFISCANLISTCHANGED_RSSI
                0x000000000022dd30                ARCONTROLLER_DICTIONARY_KEY_ARDRONE3_NETWORKSTATE_WIFISCANLISTCHANGED_SSID
                0x000000000022dd38                ARCONTROLLER_DICTIONARY_KEY_ARDRONE3_PILOTINGEVENT_MOVEBYEND_ERROR
                0x000000000022dd40                ARCONTROLLER_DICTIONARY_KEY_ARDRONE3_PILOTINGEVENT_MOVEBYEND_DPSI
                0x000000000022dd48                ARCONTROLLER_DICTIONARY_KEY_ARDRONE3_PILOTINGEVENT_MOVEBYEND_DZ
                0x000000000022dd50                ARCONTROLLER_DICTIONARY_KEY_ARDRONE3_PILOTINGEVENT_MOVEBYEND_DY
                0x000000000022dd58                ARCONTROLLER_DICTIONARY_KEY_ARDRONE3_PILOTINGEVENT_MOVEBYEND_DX
                0x000000000022dd60                ARCONTROLLER_DICTIONARY_KEY_ARDRONE3_PILOTINGSTATE_RETURNHOMEBATTERYCAPACITY_STATUS
                0x000000000022dd68                ARCONTROLLER_DICTIONARY_KEY_ARDRONE3_PILOTINGSTATE_PILOTEDPOI_STATUS
                0x000000000022dd70                ARCONTROLLER_DICTIONARY_KEY_ARDRONE3_PILOTINGSTATE_PILOTEDPOI_ALTITUDE
                0x000000000022dd78                ARCONTROLLER_DICTIONARY_KEY_ARDRONE3_PILOTINGSTATE_PILOTEDPOI_LONGITUDE
                0x000000000022dd80                ARCONTROLLER_DICTIONARY_KEY_ARDRONE3_PILOTINGSTATE_PILOTEDPOI_LATITUDE
                0x000000000022dd88                ARCONTROLLER_DICTIONARY_KEY_ARDRONE3_PILOTINGSTATE_MOTIONSTATE_STATE
                0x000000000022dd90                ARCONTROLLER_DICTIONARY_KEY_ARDRONE3_PILOTINGSTATE_MOVETOCHANGED_STATUS
                0x000000000022dd98                ARCONTROLLER_DICTIONARY_KEY_ARDRONE3_PILOTINGSTATE_MOVETOCHANGED_HEADING
                0x000000000022dda0                ARCONTROLLER_DICTIONARY_KEY_ARDRONE3_PILOTINGSTATE_MOVETOCHANGED_ORIENTATION_MODE
                0x000000000022dda8                ARCONTROLLER_DICTIONARY_KEY_ARDRONE3_PILOTINGSTATE_MOVETOCHANGED_ALTITUDE
                0x000000000022ddb0                ARCONTROLLER_DICTIONARY_KEY_ARDRONE3_PILOTINGSTATE_MOVETOCHANGED_LONGITUDE
                0x000000000022ddb8                ARCONTROLLER_DICTIONARY_KEY_ARDRONE3_PILOTINGSTATE_MOVETOCHANGED_LATITUDE
                0x000000000022ddc0                ARCONTROLLER_DICTIONARY_KEY_ARDRONE3_PILOTINGSTATE_AIRSPEEDCHANGED_AIRSPEED
                0x000000000022ddc8                ARCONTROLLER_DICTIONARY_KEY_ARDRONE3_PILOTINGSTATE_LANDINGSTATECHANGED_STATE
                0x000000000022ddd0                ARCONTROLLER_DICTIONARY_KEY_ARDRONE3_PILOTINGSTATE_GPSLOCATIONCHANGED_ALTITUDE_ACCURACY
                0x000000000022ddd8                ARCONTROLLER_DICTIONARY_KEY_ARDRONE3_PILOTINGSTATE_GPSLOCATIONCHANGED_LONGITUDE_ACCURACY
                0x000000000022dde0                ARCONTROLLER_DICTIONARY_KEY_ARDRONE3_PILOTINGSTATE_GPSLOCATIONCHANGED_LATITUDE_ACCURACY
                0x000000000022dde8                ARCONTROLLER_DICTIONARY_KEY_ARDRONE3_PILOTINGSTATE_GPSLOCATIONCHANGED_ALTITUDE
                0x000000000022ddf0                ARCONTROLLER_DICTIONARY_KEY_ARDRONE3_PILOTINGSTATE_GPSLOCATIONCHANGED_LONGITUDE
                0x000000000022ddf8                ARCONTROLLER_DICTIONARY_KEY_ARDRONE3_PILOTINGSTATE_GPSLOCATIONCHANGED_LATITUDE
                0x000000000022de00                ARCONTROLLER_DICTIONARY_KEY_ARDRONE3_PILOTINGSTATE_ALTITUDECHANGED_ALTITUDE
                0x000000000022de08                ARCONTROLLER_DICTIONARY_KEY_ARDRONE3_PILOTINGSTATE_AUTOTAKEOFFMODECHANGED_STATE
                0x000000000022de10                ARCONTROLLER_DICTIONARY_KEY_ARDRONE3_PILOTINGSTATE_ATTITUDECHANGED_YAW
                0x000000000022de18                ARCONTROLLER_DICTIONARY_KEY_ARDRONE3_PILOTINGSTATE_ATTITUDECHANGED_PITCH
                0x000000000022de20                ARCONTROLLER_DICTIONARY_KEY_ARDRONE3_PILOTINGSTATE_ATTITUDECHANGED_ROLL
                0x000000000022de28                ARCONTROLLER_DICTIONARY_KEY_ARDRONE3_PILOTINGSTATE_SPEEDCHANGED_SPEEDZ
                0x000000000022de30                ARCONTROLLER_DICTIONARY_KEY_ARDRONE3_PILOTINGSTATE_SPEEDCHANGED_SPEEDY
                0x000000000022de38                ARCONTROLLER_DICTIONARY_KEY_ARDRONE3_PILOTINGSTATE_SPEEDCHANGED_SPEEDX
                0x000000000022de40                ARCONTROLLER_DICTIONARY_KEY_ARDRONE3_PILOTINGSTATE_POSITIONCHANGED_ALTITUDE
                0x000000000022de48                ARCONTROLLER_DICTIONARY_KEY_ARDRONE3_PILOTINGSTATE_POSITIONCHANGED_LONGITUDE
                0x000000000022de50                ARCONTROLLER_DICTIONARY_KEY_ARDRONE3_PILOTINGSTATE_POSITIONCHANGED_LATITUDE
                0x000000000022de58                ARCONTROLLER_DICTIONARY_KEY_ARDRONE3_PILOTINGSTATE_NAVIGATEHOMESTATECHANGED_REASON
                0x000000000022de60                ARCONTROLLER_DICTIONARY_KEY_ARDRONE3_PILOTINGSTATE_NAVIGATEHOMESTATECHANGED_STATE
                0x000000000022de68                ARCONTROLLER_DICTIONARY_KEY_ARDRONE3_PILOTINGSTATE_ALERTSTATECHANGED_STATE
                0x000000000022de70                ARCONTROLLER_DICTIONARY_KEY_ARDRONE3_PILOTINGSTATE_FLYINGSTATECHANGED_STATE
                0x000000000022de78                ARCONTROLLER_DICTIONARY_KEY_ARDRONE3_MEDIARECORDEVENT_VIDEOEVENTCHANGED_ERROR
                0x000000000022de80                ARCONTROLLER_DICTIONARY_KEY_ARDRONE3_MEDIARECORDEVENT_VIDEOEVENTCHANGED_EVENT
                0x000000000022de88                ARCONTROLLER_DICTIONARY_KEY_ARDRONE3_MEDIARECORDEVENT_PICTUREEVENTCHANGED_ERROR
                0x000000000022de90                ARCONTROLLER_DICTIONARY_KEY_ARDRONE3_MEDIARECORDEVENT_PICTUREEVENTCHANGED_EVENT
                0x000000000022de98                ARCONTROLLER_DICTIONARY_KEY_ARDRONE3_MEDIARECORDSTATE_VIDEORESOLUTIONSTATE_RECORDING
                0x000000000022dea0                ARCONTROLLER_DICTIONARY_KEY_ARDRONE3_MEDIARECORDSTATE_VIDEORESOLUTIONSTATE_STREAMING
                0x000000000022dea8                ARCONTROLLER_DICTIONARY_KEY_ARDRONE3_MEDIARECORDSTATE_VIDEOSTATECHANGEDV2_ERROR
                0x000000000022deb0                ARCONTROLLER_DICTIONARY_KEY_ARDRONE3_MEDIARECORDSTATE_VIDEOSTATECHANGEDV2_STATE
                0x000000000022deb8                ARCONTROLLER_DICTIONARY_KEY_ARDRONE3_MEDIARECORDSTATE_PICTURESTATECHANGEDV2_ERROR
                0x000000000022dec0                ARCONTROLLER_DICTIONARY_KEY_ARDRONE3_MEDIARECORDSTATE_PICTURESTATECHANGEDV2_STATE
                0x000000000022dec8                ARCONTROLLER_DICTIONARY_KEY_ARDRONE3_MEDIARECORDSTATE_VIDEOSTATECHANGED_MASS_STORAGE_ID
                0x000000000022ded0                ARCONTROLLER_DICTIONARY_KEY_ARDRONE3_MEDIARECORDSTATE_VIDEOSTATECHANGED_STATE
                0x000000000022ded8                ARCONTROLLER_DICTIONARY_KEY_ARDRONE3_MEDIARECORDSTATE_PICTURESTATECHANGED_MASS_STORAGE_ID
                0x000000000022dee0                ARCONTROLLER_DICTIONARY_KEY_ARDRONE3_MEDIARECORDSTATE_PICTURESTATECHANGED_STATE
                0x000000000022dee8                ARCONTROLLER_DICTIONARY_KEY_ANIMATION_DOLLYSLIDESTATE_PLAY_MODE
                0x000000000022def0                ARCONTROLLER_DICTIONARY_KEY_ANIMATION_DOLLYSLIDESTATE_HORIZONTAL_DISTANCE
                0x000000000022def8                ARCONTROLLER_DICTIONARY_KEY_ANIMATION_DOLLYSLIDESTATE_ANGLE
                0x000000000022df00                ARCONTROLLER_DICTIONARY_KEY_ANIMATION_DOLLYSLIDESTATE_SPEED
                0x000000000022df08                ARCONTROLLER_DICTIONARY_KEY_ANIMATION_DOLLYSLIDESTATE_STATE
                0x000000000022df10                ARCONTROLLER_DICTIONARY_KEY_ANIMATION_CANDLESTATE_PLAY_MODE
                0x000000000022df18                ARCONTROLLER_DICTIONARY_KEY_ANIMATION_CANDLESTATE_VERTICAL_DISTANCE
                0x000000000022df20                ARCONTROLLER_DICTIONARY_KEY_ANIMATION_CANDLESTATE_SPEED
                0x000000000022df28                ARCONTROLLER_DICTIONARY_KEY_ANIMATION_CANDLESTATE_STATE
                0x000000000022df30                ARCONTROLLER_DICTIONARY_KEY_ANIMATION_PARABOLASTATE_PLAY_MODE
                0x000000000022df38                ARCONTROLLER_DICTIONARY_KEY_ANIMATION_PARABOLASTATE_VERTICAL_DISTANCE
                0x000000000022df40                ARCONTROLLER_DICTIONARY_KEY_ANIMATION_PARABOLASTATE_SPEED
                0x000000000022df48                ARCONTROLLER_DICTIONARY_KEY_ANIMATION_PARABOLASTATE_STATE
                0x000000000022df50                ARCONTROLLER_DICTIONARY_KEY_ANIMATION_SPIRALSTATE_PLAY_MODE
                0x000000000022df58                ARCONTROLLER_DICTIONARY_KEY_ANIMATION_SPIRALSTATE_REVOLUTION_NB
                0x000000000022df60                ARCONTROLLER_DICTIONARY_KEY_ANIMATION_SPIRALSTATE_VERTICAL_DISTANCE
                0x000000000022df68                ARCONTROLLER_DICTIONARY_KEY_ANIMATION_SPIRALSTATE_RADIUS_VARIATION
                0x000000000022df70                ARCONTROLLER_DICTIONARY_KEY_ANIMATION_SPIRALSTATE_SPEED
                0x000000000022df78                ARCONTROLLER_DICTIONARY_KEY_ANIMATION_SPIRALSTATE_STATE
                0x000000000022df80                ARCONTROLLER_DICTIONARY_KEY_ANIMATION_VERTICALREVEALSTATE_PLAY_MODE
                0x000000000022df88                ARCONTROLLER_DICTIONARY_KEY_ANIMATION_VERTICALREVEALSTATE_ROTATION_SPEED
                0x000000000022df90                ARCONTROLLER_DICTIONARY_KEY_ANIMATION_VERTICALREVEALSTATE_ROTATION_ANGLE
                0x000000000022df98                ARCONTROLLER_DICTIONARY_KEY_ANIMATION_VERTICALREVEALSTATE_VERTICAL_DISTANCE
                0x000000000022dfa0                ARCONTROLLER_DICTIONARY_KEY_ANIMATION_VERTICALREVEALSTATE_SPEED
                0x000000000022dfa8                ARCONTROLLER_DICTIONARY_KEY_ANIMATION_VERTICALREVEALSTATE_STATE
                0x000000000022dfb0                ARCONTROLLER_DICTIONARY_KEY_ANIMATION_HORIZONTALREVEALSTATE_PLAY_MODE
                0x000000000022dfb8                ARCONTROLLER_DICTIONARY_KEY_ANIMATION_HORIZONTALREVEALSTATE_DISTANCE
                0x000000000022dfc0                ARCONTROLLER_DICTIONARY_KEY_ANIMATION_HORIZONTALREVEALSTATE_SPEED
                0x000000000022dfc8                ARCONTROLLER_DICTIONARY_KEY_ANIMATION_HORIZONTALREVEALSTATE_STATE
                0x000000000022dfd0                ARCONTROLLER_DICTIONARY_KEY_ANIMATION_DRONIESTATE_PLAY_MODE
                0x000000000022dfd8                ARCONTROLLER_DICTIONARY_KEY_ANIMATION_DRONIESTATE_DISTANCE
                0x000000000022dfe0                ARCONTROLLER_DICTIONARY_KEY_ANIMATION_DRONIESTATE_SPEED
                0x000000000022dfe8                ARCONTROLLER_DICTIONARY_KEY_ANIMATION_DRONIESTATE_STATE
                0x000000000022dff0                ARCONTROLLER_DICTIONARY_KEY_ANIMATION_HORIZONTALPANORAMASTATE_ROTATION_SPEED
                0x000000000022dff8                ARCONTROLLER_DICTIONARY_KEY_ANIMATION_HORIZONTALPANORAMASTATE_ROTATION_ANGLE
                0x000000000022e000                ARCONTROLLER_DICTIONARY_KEY_ANIMATION_HORIZONTALPANORAMASTATE_STATE
                0x000000000022e008                ARCONTROLLER_DICTIONARY_KEY_ANIMATION_FLIPSTATE_TYPE
                0x000000000022e010                ARCONTROLLER_DICTIONARY_KEY_ANIMATION_FLIPSTATE_STATE
                0x000000000022e018                ARCONTROLLER_DICTIONARY_KEY_ANIMATION_STATE_PERCENT
                0x000000000022e020                ARCONTROLLER_DICTIONARY_KEY_ANIMATION_STATE_TYPE
                0x000000000022e028                ARCONTROLLER_DICTIONARY_KEY_ANIMATION_AVAILABILITY_VALUES
                0x000000000022e030                ARCONTROLLER_DICTIONARY_KEY_GENERIC_DRONESETTINGSCHANGED_SETTINGS

.tm_clone_table
                0x000000000022e038        0x0
 .tm_clone_table
                0x000000000022e038        0x0 /usr/lib/gcc/x86_64-linux-gnu/9/crtbeginS.o
 .tm_clone_table
                0x000000000022e038        0x0 /usr/lib/gcc/x86_64-linux-gnu/9/crtendS.o

.data1
 *(.data1)
                [!provide]                        PROVIDE (_edata = .)
                [!provide]                        PROVIDE (edata = .)
                0x000000000022e038                . = .
                [!provide]                        PROVIDE (__bss_start = .)

.bss            0x000000000022e038       0x10
 *(.dynbss)
 .dynbss        0x000000000022e038        0x0 /usr/lib/gcc/x86_64-linux-gnu/9/../../../x86_64-linux-gnu/crti.o
 *(.bss .bss.* .gnu.linkonce.b.*)
 .bss           0x000000000022e038        0x1 /usr/lib/gcc/x86_64-linux-gnu/9/crtbeginS.o
 *fill*         0x000000000022e039        0x7 
 .bss           0x000000000022e040        0x8 /home/jose/catkin_ws/build/parrot_arsdk/arsdk/src/ARSDKBuildUtils/out/arsdk-native/build/libARController/obj/Sources/ARCONTROLLER_Stream1.c.o
 *(COMMON)
                0x000000000022e048                . = ALIGN ((. != 0x0)?0x8:0x1)

.lbss
 *(.dynlbss)
 *(.lbss .lbss.* .gnu.linkonce.lb.*)
 *(LARGE_COMMON)
                0x000000000022e048                . = ALIGN (0x8)
                0x000000000022e048                . = SEGMENT_START ("ldata-segment", .)

.lrodata
 *(.lrodata .lrodata.* .gnu.linkonce.lr.*)

.ldata          0x0000000000230048        0x0
 *(.ldata .ldata.* .gnu.linkonce.l.*)
                0x0000000000230048                . = ALIGN ((. != 0x0)?0x8:0x1)
                0x0000000000230048                . = ALIGN (0x8)
                [!provide]                        PROVIDE (_end = .)
                [!provide]                        PROVIDE (end = .)
                0x0000000000230048                . = DATA_SEGMENT_END (.)

.stab
 *(.stab)

.stabstr
 *(.stabstr)

.stab.excl
 *(.stab.excl)

.stab.exclstr
 *(.stab.exclstr)

.stab.index
 *(.stab.index)

.stab.indexstr
 *(.stab.indexstr)

.comment        0x0000000000000000       0x2b
 *(.comment)
 .comment       0x0000000000000000       0x2b /usr/lib/gcc/x86_64-linux-gnu/9/crtbeginS.o
                                         0x2c (size before relaxing)
 .comment       0x000000000000002b       0x2c /home/jose/catkin_ws/build/parrot_arsdk/arsdk/src/ARSDKBuildUtils/out/arsdk-native/build/libARController/obj/Sources/ARCONTROLLER_Dictionary.c.o
 .comment       0x000000000000002b       0x2c /home/jose/catkin_ws/build/parrot_arsdk/arsdk/src/ARSDKBuildUtils/out/arsdk-native/build/libARController/obj/Sources/ARCONTROLLER_Frame.c.o
 .comment       0x000000000000002b       0x2c /home/jose/catkin_ws/build/parrot_arsdk/arsdk/src/ARSDKBuildUtils/out/arsdk-native/build/libARController/obj/Sources/ARCONTROLLER_Network.c.o
 .comment       0x000000000000002b       0x2c /home/jose/catkin_ws/build/parrot_arsdk/arsdk/src/ARSDKBuildUtils/out/arsdk-native/build/libARController/obj/Sources/ARCONTROLLER_Stream.c.o
 .comment       0x000000000000002b       0x2c /home/jose/catkin_ws/build/parrot_arsdk/arsdk/src/ARSDKBuildUtils/out/arsdk-native/build/libARController/obj/Sources/ARCONTROLLER_StreamPool.c.o
 .comment       0x000000000000002b       0x2c /home/jose/catkin_ws/build/parrot_arsdk/arsdk/src/ARSDKBuildUtils/out/arsdk-native/build/libARController/obj/Sources/ARCONTROLLER_StreamQueue.c.o
 .comment       0x000000000000002b       0x2c /home/jose/catkin_ws/build/parrot_arsdk/arsdk/src/ARSDKBuildUtils/out/arsdk-native/build/libARController/obj/Sources/ARCONTROLLER_Stream1.c.o
 .comment       0x000000000000002b       0x2c /home/jose/catkin_ws/build/parrot_arsdk/arsdk/src/ARSDKBuildUtils/out/arsdk-native/build/libARController/obj/Sources/ARCONTROLLER_Stream2.c.o
 .comment       0x000000000000002b       0x2c /home/jose/catkin_ws/build/parrot_arsdk/arsdk/src/ARSDKBuildUtils/out/arsdk-native/build/libARController/obj/Sources/ARCONTROLLER_StreamSender.c.o
 .comment       0x000000000000002b       0x2c /home/jose/catkin_ws/build/parrot_arsdk/arsdk/src/ARSDKBuildUtils/out/arsdk-native/build/libARController/obj/Sources/ARCONTROLLER_NAckCbs.c.o
 .comment       0x000000000000002b       0x2c /home/jose/catkin_ws/build/parrot_arsdk/arsdk/src/ARSDKBuildUtils/out/arsdk-native/build/libARController/obj/gen/Sources/ARCONTROLLER_Device.c.o
 .comment       0x000000000000002b       0x2c /home/jose/catkin_ws/build/parrot_arsdk/arsdk/src/ARSDKBuildUtils/out/arsdk-native/build/libARController/obj/gen/Sources/ARCONTROLLER_DICTIONARY_Key.c.o
 .comment       0x000000000000002b       0x2c /home/jose/catkin_ws/build/parrot_arsdk/arsdk/src/ARSDKBuildUtils/out/arsdk-native/build/libARController/obj/gen/Sources/ARCONTROLLER_Error.c.o
 .comment       0x000000000000002b       0x2c /home/jose/catkin_ws/build/parrot_arsdk/arsdk/src/ARSDKBuildUtils/out/arsdk-native/build/libARController/obj/gen/Sources/ARCONTROLLER_Feature.c.o
 .comment       0x000000000000002b       0x2c /usr/lib/gcc/x86_64-linux-gnu/9/crtendS.o

.gnu.build.attributes
 *(.gnu.build.attributes .gnu.build.attributes.*)

.debug
 *(.debug)

.line
 *(.line)

.debug_srcinfo
 *(.debug_srcinfo)

.debug_sfnames
 *(.debug_sfnames)

.debug_aranges  0x0000000000000000     0x55d0
 *(.debug_aranges)
 .debug_aranges
                0x0000000000000000       0xf0 /home/jose/catkin_ws/build/parrot_arsdk/arsdk/src/ARSDKBuildUtils/out/arsdk-native/build/libARController/obj/Sources/ARCONTROLLER_Dictionary.c.o
 .debug_aranges
                0x00000000000000f0       0x70 /home/jose/catkin_ws/build/parrot_arsdk/arsdk/src/ARSDKBuildUtils/out/arsdk-native/build/libARController/obj/Sources/ARCONTROLLER_Frame.c.o
 .debug_aranges
                0x0000000000000160      0x180 /home/jose/catkin_ws/build/parrot_arsdk/arsdk/src/ARSDKBuildUtils/out/arsdk-native/build/libARController/obj/Sources/ARCONTROLLER_Network.c.o
 .debug_aranges
                0x00000000000002e0       0xc0 /home/jose/catkin_ws/build/parrot_arsdk/arsdk/src/ARSDKBuildUtils/out/arsdk-native/build/libARController/obj/Sources/ARCONTROLLER_Stream.c.o
 .debug_aranges
                0x00000000000003a0       0x60 /home/jose/catkin_ws/build/parrot_arsdk/arsdk/src/ARSDKBuildUtils/out/arsdk-native/build/libARController/obj/Sources/ARCONTROLLER_StreamPool.c.o
 .debug_aranges
                0x0000000000000400       0xc0 /home/jose/catkin_ws/build/parrot_arsdk/arsdk/src/ARSDKBuildUtils/out/arsdk-native/build/libARController/obj/Sources/ARCONTROLLER_StreamQueue.c.o
 .debug_aranges
                0x00000000000004c0      0x120 /home/jose/catkin_ws/build/parrot_arsdk/arsdk/src/ARSDKBuildUtils/out/arsdk-native/build/libARController/obj/Sources/ARCONTROLLER_Stream1.c.o
 .debug_aranges
                0x00000000000005e0      0x140 /home/jose/catkin_ws/build/parrot_arsdk/arsdk/src/ARSDKBuildUtils/out/arsdk-native/build/libARController/obj/Sources/ARCONTROLLER_Stream2.c.o
 .debug_aranges
                0x0000000000000720       0x90 /home/jose/catkin_ws/build/parrot_arsdk/arsdk/src/ARSDKBuildUtils/out/arsdk-native/build/libARController/obj/Sources/ARCONTROLLER_StreamSender.c.o
 .debug_aranges
                0x00000000000007b0      0x160 /home/jose/catkin_ws/build/parrot_arsdk/arsdk/src/ARSDKBuildUtils/out/arsdk-native/build/libARController/obj/Sources/ARCONTROLLER_NAckCbs.c.o
 .debug_aranges
                0x0000000000000910      0x3f0 /home/jose/catkin_ws/build/parrot_arsdk/arsdk/src/ARSDKBuildUtils/out/arsdk-native/build/libARController/obj/gen/Sources/ARCONTROLLER_Device.c.o
 .debug_aranges
                0x0000000000000d00       0x30 /home/jose/catkin_ws/build/parrot_arsdk/arsdk/src/ARSDKBuildUtils/out/arsdk-native/build/libARController/obj/gen/Sources/ARCONTROLLER_DICTIONARY_Key.c.o
 .debug_aranges
                0x0000000000000d30       0x30 /home/jose/catkin_ws/build/parrot_arsdk/arsdk/src/ARSDKBuildUtils/out/arsdk-native/build/libARController/obj/gen/Sources/ARCONTROLLER_Error.c.o
 .debug_aranges
                0x0000000000000d60     0x4870 /home/jose/catkin_ws/build/parrot_arsdk/arsdk/src/ARSDKBuildUtils/out/arsdk-native/build/libARController/obj/gen/Sources/ARCONTROLLER_Feature.c.o

.debug_pubnames
 *(.debug_pubnames)

.debug_info     0x0000000000000000   0x1433af
 *(.debug_info .gnu.linkonce.wi.*)
 .debug_info    0x0000000000000000     0x21a3 /home/jose/catkin_ws/build/parrot_arsdk/arsdk/src/ARSDKBuildUtils/out/arsdk-native/build/libARController/obj/Sources/ARCONTROLLER_Dictionary.c.o
 .debug_info    0x00000000000021a3      0x840 /home/jose/catkin_ws/build/parrot_arsdk/arsdk/src/ARSDKBuildUtils/out/arsdk-native/build/libARController/obj/Sources/ARCONTROLLER_Frame.c.o
 .debug_info    0x00000000000029e3     0x3cbd /home/jose/catkin_ws/build/parrot_arsdk/arsdk/src/ARSDKBuildUtils/out/arsdk-native/build/libARController/obj/Sources/ARCONTROLLER_Network.c.o
 .debug_info    0x00000000000066a0     0x1b87 /home/jose/catkin_ws/build/parrot_arsdk/arsdk/src/ARSDKBuildUtils/out/arsdk-native/build/libARController/obj/Sources/ARCONTROLLER_Stream.c.o
 .debug_info    0x0000000000008227      0x91c /home/jose/catkin_ws/build/parrot_arsdk/arsdk/src/ARSDKBuildUtils/out/arsdk-native/build/libARController/obj/Sources/ARCONTROLLER_StreamPool.c.o
 .debug_info    0x0000000000008b43      0xf5c /home/jose/catkin_ws/build/parrot_arsdk/arsdk/src/ARSDKBuildUtils/out/arsdk-native/build/libARController/obj/Sources/ARCONTROLLER_StreamQueue.c.o
 .debug_info    0x0000000000009a9f     0x26a7 /home/jose/catkin_ws/build/parrot_arsdk/arsdk/src/ARSDKBuildUtils/out/arsdk-native/build/libARController/obj/Sources/ARCONTROLLER_Stream1.c.o
 .debug_info    0x000000000000c146     0x3186 /home/jose/catkin_ws/build/parrot_arsdk/arsdk/src/ARSDKBuildUtils/out/arsdk-native/build/libARController/obj/Sources/ARCONTROLLER_Stream2.c.o
 .debug_info    0x000000000000f2cc     0x191b /home/jose/catkin_ws/build/parrot_arsdk/arsdk/src/ARSDKBuildUtils/out/arsdk-native/build/libARController/obj/Sources/ARCONTROLLER_StreamSender.c.o
 .debug_info    0x0000000000010be7     0x564d /home/jose/catkin_ws/build/parrot_arsdk/arsdk/src/ARSDKBuildUtils/out/arsdk-native/build/libARController/obj/Sources/ARCONTROLLER_NAckCbs.c.o
 .debug_info    0x0000000000016234    0x197e3 /home/jose/catkin_ws/build/parrot_arsdk/arsdk/src/ARSDKBuildUtils/out/arsdk-native/build/libARController/obj/gen/Sources/ARCONTROLLER_Device.c.o
 .debug_info    0x000000000002fa17      0xc45 /home/jose/catkin_ws/build/parrot_arsdk/arsdk/src/ARSDKBuildUtils/out/arsdk-native/build/libARController/obj/gen/Sources/ARCONTROLLER_DICTIONARY_Key.c.o
 .debug_info    0x000000000003065c      0x1ba /home/jose/catkin_ws/build/parrot_arsdk/arsdk/src/ARSDKBuildUtils/out/arsdk-native/build/libARController/obj/gen/Sources/ARCONTROLLER_Error.c.o
 .debug_info    0x0000000000030816   0x112b99 /home/jose/catkin_ws/build/parrot_arsdk/arsdk/src/ARSDKBuildUtils/out/arsdk-native/build/libARController/obj/gen/Sources/ARCONTROLLER_Feature.c.o

.debug_abbrev   0x0000000000000000     0x3285
 *(.debug_abbrev)
 .debug_abbrev  0x0000000000000000      0x427 /home/jose/catkin_ws/build/parrot_arsdk/arsdk/src/ARSDKBuildUtils/out/arsdk-native/build/libARController/obj/Sources/ARCONTROLLER_Dictionary.c.o
 .debug_abbrev  0x0000000000000427      0x1d0 /home/jose/catkin_ws/build/parrot_arsdk/arsdk/src/ARSDKBuildUtils/out/arsdk-native/build/libARController/obj/Sources/ARCONTROLLER_Frame.c.o
 .debug_abbrev  0x00000000000005f7      0x4cb /home/jose/catkin_ws/build/parrot_arsdk/arsdk/src/ARSDKBuildUtils/out/arsdk-native/build/libARController/obj/Sources/ARCONTROLLER_Network.c.o
 .debug_abbrev  0x0000000000000ac2      0x313 /home/jose/catkin_ws/build/parrot_arsdk/arsdk/src/ARSDKBuildUtils/out/arsdk-native/build/libARController/obj/Sources/ARCONTROLLER_Stream.c.o
 .debug_abbrev  0x0000000000000dd5      0x234 /home/jose/catkin_ws/build/parrot_arsdk/arsdk/src/ARSDKBuildUtils/out/arsdk-native/build/libARController/obj/Sources/ARCONTROLLER_StreamPool.c.o
 .debug_abbrev  0x0000000000001009      0x2be /home/jose/catkin_ws/build/parrot_arsdk/arsdk/src/ARSDKBuildUtils/out/arsdk-native/build/libARController/obj/Sources/ARCONTROLLER_StreamQueue.c.o
 .debug_abbrev  0x00000000000012c7      0x46e /home/jose/catkin_ws/build/parrot_arsdk/arsdk/src/ARSDKBuildUtils/out/arsdk-native/build/libARController/obj/Sources/ARCONTROLLER_Stream1.c.o
 .debug_abbrev  0x0000000000001735      0x4c1 /home/jose/catkin_ws/build/parrot_arsdk/arsdk/src/ARSDKBuildUtils/out/arsdk-native/build/libARController/obj/Sources/ARCONTROLLER_Stream2.c.o
 .debug_abbrev  0x0000000000001bf6      0x403 /home/jose/catkin_ws/build/parrot_arsdk/arsdk/src/ARSDKBuildUtils/out/arsdk-native/build/libARController/obj/Sources/ARCONTROLLER_StreamSender.c.o
 .debug_abbrev  0x0000000000001ff9      0x3c4 /home/jose/catkin_ws/build/parrot_arsdk/arsdk/src/ARSDKBuildUtils/out/arsdk-native/build/libARController/obj/Sources/ARCONTROLLER_NAckCbs.c.o
 .debug_abbrev  0x00000000000023bd      0x610 /home/jose/catkin_ws/build/parrot_arsdk/arsdk/src/ARSDKBuildUtils/out/arsdk-native/build/libARController/obj/gen/Sources/ARCONTROLLER_Device.c.o
 .debug_abbrev  0x00000000000029cd      0x127 /home/jose/catkin_ws/build/parrot_arsdk/arsdk/src/ARSDKBuildUtils/out/arsdk-native/build/libARController/obj/gen/Sources/ARCONTROLLER_DICTIONARY_Key.c.o
 .debug_abbrev  0x0000000000002af4       0xa0 /home/jose/catkin_ws/build/parrot_arsdk/arsdk/src/ARSDKBuildUtils/out/arsdk-native/build/libARController/obj/gen/Sources/ARCONTROLLER_Error.c.o
 .debug_abbrev  0x0000000000002b94      0x6f1 /home/jose/catkin_ws/build/parrot_arsdk/arsdk/src/ARSDKBuildUtils/out/arsdk-native/build/libARController/obj/gen/Sources/ARCONTROLLER_Feature.c.o

.debug_line     0x0000000000000000   0x185502
 *(.debug_line .debug_line.* .debug_line_end)
 .debug_line    0x0000000000000000     0x11e8 /home/jose/catkin_ws/build/parrot_arsdk/arsdk/src/ARSDKBuildUtils/out/arsdk-native/build/libARController/obj/Sources/ARCONTROLLER_Dictionary.c.o
 .debug_line    0x00000000000011e8      0x408 /home/jose/catkin_ws/build/parrot_arsdk/arsdk/src/ARSDKBuildUtils/out/arsdk-native/build/libARController/obj/Sources/ARCONTROLLER_Frame.c.o
 .debug_line    0x00000000000015f0     0x189c /home/jose/catkin_ws/build/parrot_arsdk/arsdk/src/ARSDKBuildUtils/out/arsdk-native/build/libARController/obj/Sources/ARCONTROLLER_Network.c.o
 .debug_line    0x0000000000002e8c      0x8aa /home/jose/catkin_ws/build/parrot_arsdk/arsdk/src/ARSDKBuildUtils/out/arsdk-native/build/libARController/obj/Sources/ARCONTROLLER_Stream.c.o
 .debug_line    0x0000000000003736      0x4fc /home/jose/catkin_ws/build/parrot_arsdk/arsdk/src/ARSDKBuildUtils/out/arsdk-native/build/libARController/obj/Sources/ARCONTROLLER_StreamPool.c.o
 .debug_line    0x0000000000003c32      0x767 /home/jose/catkin_ws/build/parrot_arsdk/arsdk/src/ARSDKBuildUtils/out/arsdk-native/build/libARController/obj/Sources/ARCONTROLLER_StreamQueue.c.o
 .debug_line    0x0000000000004399     0x12a7 /home/jose/catkin_ws/build/parrot_arsdk/arsdk/src/ARSDKBuildUtils/out/arsdk-native/build/libARController/obj/Sources/ARCONTROLLER_Stream1.c.o
 .debug_line    0x0000000000005640     0x1263 /home/jose/catkin_ws/build/parrot_arsdk/arsdk/src/ARSDKBuildUtils/out/arsdk-native/build/libARController/obj/Sources/ARCONTROLLER_Stream2.c.o
 .debug_line    0x00000000000068a3      0xa88 /home/jose/catkin_ws/build/parrot_arsdk/arsdk/src/ARSDKBuildUtils/out/arsdk-native/build/libARController/obj/Sources/ARCONTROLLER_StreamSender.c.o
 .debug_line    0x000000000000732b      0xc26 /home/jose/catkin_ws/build/parrot_arsdk/arsdk/src/ARSDKBuildUtils/out/arsdk-native/build/libARController/obj/Sources/ARCONTROLLER_NAckCbs.c.o
 .debug_line    0x0000000000007f51     0xa754 /home/jose/catkin_ws/build/parrot_arsdk/arsdk/src/ARSDKBuildUtils/out/arsdk-native/build/libARController/obj/gen/Sources/ARCONTROLLER_Device.c.o
 .debug_line    0x00000000000126a5      0x2a5 /home/jose/catkin_ws/build/parrot_arsdk/arsdk/src/ARSDKBuildUtils/out/arsdk-native/build/libARController/obj/gen/Sources/ARCONTROLLER_DICTIONARY_Key.c.o
 .debug_line    0x000000000001294a      0x237 /home/jose/catkin_ws/build/parrot_arsdk/arsdk/src/ARSDKBuildUtils/out/arsdk-native/build/libARController/obj/gen/Sources/ARCONTROLLER_Error.c.o
 .debug_line    0x0000000000012b81   0x172981 /home/jose/catkin_ws/build/parrot_arsdk/arsdk/src/ARSDKBuildUtils/out/arsdk-native/build/libARController/obj/gen/Sources/ARCONTROLLER_Feature.c.o

.debug_frame
 *(.debug_frame)

.debug_str      0x0000000000000000    0x53a0d
 *(.debug_str)
 .debug_str     0x0000000000000000     0x747f /home/jose/catkin_ws/build/parrot_arsdk/arsdk/src/ARSDKBuildUtils/out/arsdk-native/build/libARController/obj/Sources/ARCONTROLLER_Dictionary.c.o
                                       0x75b6 (size before relaxing)
 .debug_str     0x000000000000747f      0x151 /home/jose/catkin_ws/build/parrot_arsdk/arsdk/src/ARSDKBuildUtils/out/arsdk-native/build/libARController/obj/Sources/ARCONTROLLER_Frame.c.o
                                        0xb19 (size before relaxing)
 .debug_str     0x00000000000075d0     0x30d3 /home/jose/catkin_ws/build/parrot_arsdk/arsdk/src/ARSDKBuildUtils/out/arsdk-native/build/libARController/obj/Sources/ARCONTROLLER_Network.c.o
                                       0x3c6a (size before relaxing)
 .debug_str     0x000000000000a6a3      0x292 /home/jose/catkin_ws/build/parrot_arsdk/arsdk/src/ARSDKBuildUtils/out/arsdk-native/build/libARController/obj/Sources/ARCONTROLLER_Stream.c.o
                                       0x2a0f (size before relaxing)
 .debug_str     0x000000000000a935       0xee /home/jose/catkin_ws/build/parrot_arsdk/arsdk/src/ARSDKBuildUtils/out/arsdk-native/build/libARController/obj/Sources/ARCONTROLLER_StreamPool.c.o
                                        0xb70 (size before relaxing)
 .debug_str     0x000000000000aa23      0x2a6 /home/jose/catkin_ws/build/parrot_arsdk/arsdk/src/ARSDKBuildUtils/out/arsdk-native/build/libARController/obj/Sources/ARCONTROLLER_StreamQueue.c.o
                                        0xe45 (size before relaxing)
 .debug_str     0x000000000000acc9      0x5fb /home/jose/catkin_ws/build/parrot_arsdk/arsdk/src/ARSDKBuildUtils/out/arsdk-native/build/libARController/obj/Sources/ARCONTROLLER_Stream1.c.o
                                       0x22d1 (size before relaxing)
 .debug_str     0x000000000000b2c4      0xab2 /home/jose/catkin_ws/build/parrot_arsdk/arsdk/src/ARSDKBuildUtils/out/arsdk-native/build/libARController/obj/Sources/ARCONTROLLER_Stream2.c.o
                                       0x355d (size before relaxing)
 .debug_str     0x000000000000bd76      0x24a /home/jose/catkin_ws/build/parrot_arsdk/arsdk/src/ARSDKBuildUtils/out/arsdk-native/build/libARController/obj/Sources/ARCONTROLLER_StreamSender.c.o
                                       0x1cb3 (size before relaxing)
 .debug_str     0x000000000000bfc0    0x11320 /home/jose/catkin_ws/build/parrot_arsdk/arsdk/src/ARSDKBuildUtils/out/arsdk-native/build/libARController/obj/Sources/ARCONTROLLER_NAckCbs.c.o
                                      0x185c2 (size before relaxing)
 .debug_str     0x000000000001d2e0     0xc362 /home/jose/catkin_ws/build/parrot_arsdk/arsdk/src/ARSDKBuildUtils/out/arsdk-native/build/libARController/obj/gen/Sources/ARCONTROLLER_Device.c.o
                                      0x26ed3 (size before relaxing)
 .debug_str     0x0000000000029642       0x5c /home/jose/catkin_ws/build/parrot_arsdk/arsdk/src/ARSDKBuildUtils/out/arsdk-native/build/libARController/obj/gen/Sources/ARCONTROLLER_DICTIONARY_Key.c.o
                                       0x671a (size before relaxing)
 .debug_str     0x000000000002969e       0x48 /home/jose/catkin_ws/build/parrot_arsdk/arsdk/src/ARSDKBuildUtils/out/arsdk-native/build/libARController/obj/gen/Sources/ARCONTROLLER_Error.c.o
                                        0x70e (size before relaxing)
 .debug_str     0x00000000000296e6    0x2a327 /home/jose/catkin_ws/build/parrot_arsdk/arsdk/src/ARSDKBuildUtils/out/arsdk-native/build/libARController/obj/gen/Sources/ARCONTROLLER_Feature.c.o
                                      0x4f95c (size before relaxing)

.debug_loc      0x0000000000000000   0x442b4d
 *(.debug_loc)
 .debug_loc     0x0000000000000000     0x610f /home/jose/catkin_ws/build/parrot_arsdk/arsdk/src/ARSDKBuildUtils/out/arsdk-native/build/libARController/obj/Sources/ARCONTROLLER_Dictionary.c.o
 .debug_loc     0x000000000000610f      0x575 /home/jose/catkin_ws/build/parrot_arsdk/arsdk/src/ARSDKBuildUtils/out/arsdk-native/build/libARController/obj/Sources/ARCONTROLLER_Frame.c.o
 .debug_loc     0x0000000000006684     0x32cf /home/jose/catkin_ws/build/parrot_arsdk/arsdk/src/ARSDKBuildUtils/out/arsdk-native/build/libARController/obj/Sources/ARCONTROLLER_Network.c.o
 .debug_loc     0x0000000000009953      0xf63 /home/jose/catkin_ws/build/parrot_arsdk/arsdk/src/ARSDKBuildUtils/out/arsdk-native/build/libARController/obj/Sources/ARCONTROLLER_Stream.c.o
 .debug_loc     0x000000000000a8b6      0x536 /home/jose/catkin_ws/build/parrot_arsdk/arsdk/src/ARSDKBuildUtils/out/arsdk-native/build/libARController/obj/Sources/ARCONTROLLER_StreamPool.c.o
 .debug_loc     0x000000000000adec      0xe09 /home/jose/catkin_ws/build/parrot_arsdk/arsdk/src/ARSDKBuildUtils/out/arsdk-native/build/libARController/obj/Sources/ARCONTROLLER_StreamQueue.c.o
 .debug_loc     0x000000000000bbf5     0x27d3 /home/jose/catkin_ws/build/parrot_arsdk/arsdk/src/ARSDKBuildUtils/out/arsdk-native/build/libARController/obj/Sources/ARCONTROLLER_Stream1.c.o
 .debug_loc     0x000000000000e3c8     0x1a21 /home/jose/catkin_ws/build/parrot_arsdk/arsdk/src/ARSDKBuildUtils/out/arsdk-native/build/libARController/obj/Sources/ARCONTROLLER_Stream2.c.o
 .debug_loc     0x000000000000fde9     0x1202 /home/jose/catkin_ws/build/parrot_arsdk/arsdk/src/ARSDKBuildUtils/out/arsdk-native/build/libARController/obj/Sources/ARCONTROLLER_StreamSender.c.o
 .debug_loc     0x0000000000010feb      0xafc /home/jose/catkin_ws/build/parrot_arsdk/arsdk/src/ARSDKBuildUtils/out/arsdk-native/build/libARController/obj/Sources/ARCONTROLLER_NAckCbs.c.o
 .debug_loc     0x0000000000011ae7     0xec65 /home/jose/catkin_ws/build/parrot_arsdk/arsdk/src/ARSDKBuildUtils/out/arsdk-native/build/libARController/obj/gen/Sources/ARCONTROLLER_Device.c.o
 .debug_loc     0x000000000002074c       0x55 /home/jose/catkin_ws/build/parrot_arsdk/arsdk/src/ARSDKBuildUtils/out/arsdk-native/build/libARController/obj/gen/Sources/ARCONTROLLER_DICTIONARY_Key.c.o
 .debug_loc     0x00000000000207a1       0xc4 /home/jose/catkin_ws/build/parrot_arsdk/arsdk/src/ARSDKBuildUtils/out/arsdk-native/build/libARController/obj/gen/Sources/ARCONTROLLER_Error.c.o
 .debug_loc     0x0000000000020865   0x4222e8 /home/jose/catkin_ws/build/parrot_arsdk/arsdk/src/ARSDKBuildUtils/out/arsdk-native/build/libARController/obj/gen/Sources/ARCONTROLLER_Feature.c.o

.debug_macinfo
 *(.debug_macinfo)

.debug_weaknames
 *(.debug_weaknames)

.debug_funcnames
 *(.debug_funcnames)

.debug_typenames
 *(.debug_typenames)

.debug_varnames
 *(.debug_varnames)

.debug_pubtypes
 *(.debug_pubtypes)

.debug_ranges   0x0000000000000000    0x62250
 *(.debug_ranges)
 .debug_ranges  0x0000000000000000      0x390 /home/jose/catkin_ws/build/parrot_arsdk/arsdk/src/ARSDKBuildUtils/out/arsdk-native/build/libARController/obj/Sources/ARCONTROLLER_Dictionary.c.o
 .debug_ranges  0x0000000000000390       0x60 /home/jose/catkin_ws/build/parrot_arsdk/arsdk/src/ARSDKBuildUtils/out/arsdk-native/build/libARController/obj/Sources/ARCONTROLLER_Frame.c.o
 .debug_ranges  0x00000000000003f0      0x450 /home/jose/catkin_ws/build/parrot_arsdk/arsdk/src/ARSDKBuildUtils/out/arsdk-native/build/libARController/obj/Sources/ARCONTROLLER_Network.c.o
 .debug_ranges  0x0000000000000840       0xe0 /home/jose/catkin_ws/build/parrot_arsdk/arsdk/src/ARSDKBuildUtils/out/arsdk-native/build/libARController/obj/Sources/ARCONTROLLER_Stream.c.o
 .debug_ranges  0x0000000000000920       0x50 /home/jose/catkin_ws/build/parrot_arsdk/arsdk/src/ARSDKBuildUtils/out/arsdk-native/build/libARController/obj/Sources/ARCONTROLLER_StreamPool.c.o
 .debug_ranges  0x0000000000000970       0xb0 /home/jose/catkin_ws/build/parrot_arsdk/arsdk/src/ARSDKBuildUtils/out/arsdk-native/build/libARController/obj/Sources/ARCONTROLLER_StreamQueue.c.o
 .debug_ranges  0x0000000000000a20      0x260 /home/jose/catkin_ws/build/parrot_arsdk/arsdk/src/ARSDKBuildUtils/out/arsdk-native/build/libARController/obj/Sources/ARCONTROLLER_Stream1.c.o
 .debug_ranges  0x0000000000000c80      0x340 /home/jose/catkin_ws/build/parrot_arsdk/arsdk/src/ARSDKBuildUtils/out/arsdk-native/build/libARController/obj/Sources/ARCONTROLLER_Stream2.c.o
 .debug_ranges  0x0000000000000fc0      0x200 /home/jose/catkin_ws/build/parrot_arsdk/arsdk/src/ARSDKBuildUtils/out/arsdk-native/build/libARController/obj/Sources/ARCONTROLLER_StreamSender.c.o
 .debug_ranges  0x00000000000011c0      0x150 /home/jose/catkin_ws/build/parrot_arsdk/arsdk/src/ARSDKBuildUtils/out/arsdk-native/build/libARController/obj/Sources/ARCONTROLLER_NAckCbs.c.o
 .debug_ranges  0x0000000000001310      0xc90 /home/jose/catkin_ws/build/parrot_arsdk/arsdk/src/ARSDKBuildUtils/out/arsdk-native/build/libARController/obj/gen/Sources/ARCONTROLLER_Device.c.o
 .debug_ranges  0x0000000000001fa0       0x20 /home/jose/catkin_ws/build/parrot_arsdk/arsdk/src/ARSDKBuildUtils/out/arsdk-native/build/libARController/obj/gen/Sources/ARCONTROLLER_DICTIONARY_Key.c.o
 .debug_ranges  0x0000000000001fc0       0x20 /home/jose/catkin_ws/build/parrot_arsdk/arsdk/src/ARSDKBuildUtils/out/arsdk-native/build/libARController/obj/gen/Sources/ARCONTROLLER_Error.c.o
 .debug_ranges  0x0000000000001fe0    0x60270 /home/jose/catkin_ws/build/parrot_arsdk/arsdk/src/ARSDKBuildUtils/out/arsdk-native/build/libARController/obj/gen/Sources/ARCONTROLLER_Feature.c.o

.debug_macro
 *(.debug_macro)

.debug_addr
 *(.debug_addr)

.gnu.attributes
 *(.gnu.attributes)

/DISCARD/
 *(.note.GNU-stack)
 *(.gnu_debuglink)
 *(.gnu.lto_*)
OUTPUT(out/arsdk-native/build/libARController/libarcontroller.so elf64-x86-64)
